
lab2_cruisecontroloptimized.elf:     file format elf32-littlenios2
lab2_cruisecontroloptimized.elf
architecture: nios2, flags 0x00000112:
EXEC_P, HAS_SYMS, D_PAGED
start address 0x00800144

Program Header:
    LOAD off    0x00001000 vaddr 0x00800000 paddr 0x00800000 align 2**12
         filesz 0x00000020 memsz 0x00000020 flags r-x
    LOAD off    0x00001020 vaddr 0x00800020 paddr 0x00800020 align 2**12
         filesz 0x000088b0 memsz 0x000088b0 flags r-x
    LOAD off    0x000098d0 vaddr 0x008088d0 paddr 0x00808c64 align 2**12
         filesz 0x00000394 memsz 0x00000394 flags rw-
    LOAD off    0x00009ff8 vaddr 0x00808ff8 paddr 0x00808ff8 align 2**12
         filesz 0x00000000 memsz 0x000050fc flags rw-

Sections:
Idx Name          Size      VMA       LMA       File off  Algn
  0 .entry        00000020  00800000  00800000  00001000  2**5
                  CONTENTS, ALLOC, LOAD, READONLY, CODE
  1 .exceptions   00000124  00800020  00800020  00001020  2**2
                  CONTENTS, ALLOC, LOAD, READONLY, CODE
  2 .text         000082f8  00800144  00800144  00001144  2**2
                  CONTENTS, ALLOC, LOAD, READONLY, CODE
  3 .rodata       00000494  0080843c  0080843c  0000943c  2**2
                  CONTENTS, ALLOC, LOAD, READONLY, DATA
  4 .rwdata       00000394  008088d0  00808c64  000098d0  2**2
                  CONTENTS, ALLOC, LOAD, DATA, SMALL_DATA
  5 .bss          000050fc  00808ff8  00808ff8  00009ff8  2**2
                  ALLOC, SMALL_DATA
  6 .comment      00000026  00000000  00000000  00009c64  2**0
                  CONTENTS, READONLY
  7 .debug_aranges 00000958  00000000  00000000  00009c90  2**3
                  CONTENTS, READONLY, DEBUGGING
  8 .debug_pubnames 00001b82  00000000  00000000  0000a5e8  2**0
                  CONTENTS, READONLY, DEBUGGING
  9 .debug_info   00014489  00000000  00000000  0000c16a  2**0
                  CONTENTS, READONLY, DEBUGGING
 10 .debug_abbrev 00005b24  00000000  00000000  000205f3  2**0
                  CONTENTS, READONLY, DEBUGGING
 11 .debug_line   0000f3c7  00000000  00000000  00026117  2**0
                  CONTENTS, READONLY, DEBUGGING
 12 .debug_frame  0000165c  00000000  00000000  000354e0  2**2
                  CONTENTS, READONLY, DEBUGGING
 13 .debug_str    00002bcb  00000000  00000000  00036b3c  2**0
                  CONTENTS, READONLY, DEBUGGING
 14 .debug_loc    00005b13  00000000  00000000  00039707  2**0
                  CONTENTS, READONLY, DEBUGGING
 15 .debug_alt_sim_info 00000010  00000000  00000000  0003f21c  2**2
                  CONTENTS, READONLY, DEBUGGING
 16 .debug_ranges 00000598  00000000  00000000  0003f230  2**3
                  CONTENTS, READONLY, DEBUGGING
 17 .thread_model 00000006  00000000  00000000  00043510  2**0
                  CONTENTS, READONLY
 18 .cpu          00000019  00000000  00000000  00043516  2**0
                  CONTENTS, READONLY
 19 .qsys         00000001  00000000  00000000  0004352f  2**0
                  CONTENTS, READONLY
 20 .simulation_enabled 00000001  00000000  00000000  00043530  2**0
                  CONTENTS, READONLY
 21 .sysid_hash   00000004  00000000  00000000  00043531  2**0
                  CONTENTS, READONLY
 22 .sysid_base   00000004  00000000  00000000  00043535  2**0
                  CONTENTS, READONLY
 23 .sysid_time   00000004  00000000  00000000  00043539  2**0
                  CONTENTS, READONLY
 24 .stderr_dev   0000000b  00000000  00000000  0004353d  2**0
                  CONTENTS, READONLY
 25 .stdin_dev    0000000b  00000000  00000000  00043548  2**0
                  CONTENTS, READONLY
 26 .stdout_dev   0000000b  00000000  00000000  00043553  2**0
                  CONTENTS, READONLY
 27 .sopc_system_name 00000019  00000000  00000000  0004355e  2**0
                  CONTENTS, READONLY
 28 .quartus_project_dir 00000051  00000000  00000000  00043577  2**0
                  CONTENTS, READONLY
 29 .sopcinfo     000712d3  00000000  00000000  000435c8  2**0
                  CONTENTS, READONLY
SYMBOL TABLE:
00800000 l    d  .entry	00000000 .entry
00800020 l    d  .exceptions	00000000 .exceptions
00800144 l    d  .text	00000000 .text
0080843c l    d  .rodata	00000000 .rodata
008088d0 l    d  .rwdata	00000000 .rwdata
00808ff8 l    d  .bss	00000000 .bss
00000000 l    d  .comment	00000000 .comment
00000000 l    d  .debug_aranges	00000000 .debug_aranges
00000000 l    d  .debug_pubnames	00000000 .debug_pubnames
00000000 l    d  .debug_info	00000000 .debug_info
00000000 l    d  .debug_abbrev	00000000 .debug_abbrev
00000000 l    d  .debug_line	00000000 .debug_line
00000000 l    d  .debug_frame	00000000 .debug_frame
00000000 l    d  .debug_str	00000000 .debug_str
00000000 l    d  .debug_loc	00000000 .debug_loc
00000000 l    d  .debug_alt_sim_info	00000000 .debug_alt_sim_info
00000000 l    d  .debug_ranges	00000000 .debug_ranges
0080017c l       .text	00000000 alt_after_alt_main
00000000 l    df *ABS*	00000000 alt_irq_handler.c
00000000 l    df *ABS*	00000000 cruise_opti.c
008088d0 l     O .rwdata	0000002c b2sLUT
008090dc l     O .bss	00000018 alarm.3334
00000000 l    df *ABS*	00000000 fp-bit.c
00000000 l    df *ABS*	00000000 fp-bit.c
00000000 l    df *ABS*	00000000 dp-bit.c
00801da4 l     F .text	00000410 _fpadd_parts
00000000 l    df *ABS*	00000000 dp-bit.c
00000000 l    df *ABS*	00000000 dp-bit.c
00000000 l    df *ABS*	00000000 dp-bit.c
00000000 l    df *ABS*	00000000 dp-bit.c
00000000 l    df *ABS*	00000000 dp-bit.c
00000000 l    df *ABS*	00000000 lib2-divmod.c
00802708 l     F .text	0000007c udivmodsi4
00000000 l    df *ABS*	00000000 lib2-mul.c
00000000 l    df *ABS*	00000000 libgcc2.c
00000000 l    df *ABS*	00000000 fp-bit.c
00000000 l    df *ABS*	00000000 fp-bit.c
00000000 l    df *ABS*	00000000 dp-bit.c
00000000 l    df *ABS*	00000000 dp-bit.c
00000000 l    df *ABS*	00000000 libgcc2.c
00000000 l    df *ABS*	00000000 printf.c
00000000 l    df *ABS*	00000000 vfprintf.c
00803018 l     F .text	00000080 print_repeat
00000000 l    df *ABS*	00000000 fvwrite_small_dev.c
00000000 l    df *ABS*	00000000 impure.c
008088fc l     O .rwdata	000000e0 impure_data
00000000 l    df *ABS*	00000000 strlen.c
00000000 l    df *ABS*	00000000 writer.c
00000000 l    df *ABS*	00000000 int_errno.c
00000000 l    df *ABS*	00000000 alt_alarm_start.c
00000000 l    df *ABS*	00000000 alt_load.c
0080393c l     F .text	00000020 alt_load_section
00000000 l    df *ABS*	00000000 alt_main.c
00000000 l    df *ABS*	00000000 alt_printf.c
00000000 l    df *ABS*	00000000 alt_putchar.c
00000000 l    df *ABS*	00000000 alt_tick.c
00000000 l    df *ABS*	00000000 alt_write.c
00803ca8 l     F .text	00000020 alt_get_errno
00000000 l    df *ABS*	00000000 alt_env_lock.c
00000000 l    df *ABS*	00000000 alt_malloc_lock.c
00000000 l    df *ABS*	00000000 os_core.c
00000000 l    df *ABS*	00000000 os_dbg.c
00000000 l    df *ABS*	00000000 os_flag.c
00804c8c l     F .text	000000b8 OS_FlagBlock
00804d80 l     F .text	00000090 OS_FlagTaskRdy
00000000 l    df *ABS*	00000000 os_mbox.c
00000000 l    df *ABS*	00000000 os_sem.c
00000000 l    df *ABS*	00000000 os_task.c
00000000 l    df *ABS*	00000000 os_time.c
00000000 l    df *ABS*	00000000 os_tmr.c
00806908 l     F .text	00000068 OSTmr_Free
00806970 l     F .text	000000a0 OSTmr_Link
00806a10 l     F .text	00000064 OSTmr_Unlink
00806c10 l     F .text	000000c0 OSTmr_Task
00806bd4 l     F .text	0000002c OSTmr_Lock
00806c00 l     F .text	00000010 OSTmr_Unlock
00000000 l    df *ABS*	00000000 alt_sys_init.c
008089dc l     O .rwdata	0000002c jtag_uart_0
00000000 l    df *ABS*	00000000 altera_avalon_jtag_uart_fd.c
00000000 l    df *ABS*	00000000 altera_avalon_jtag_uart_read.c
00000000 l    df *ABS*	00000000 altera_avalon_jtag_uart_write.c
00000000 l    df *ABS*	00000000 altera_avalon_timer_sc.c
00807544 l     F .text	0000003c alt_avalon_timer_sc_irq
00000000 l    df *ABS*	00000000 alt_close.c
00807580 l     F .text	00000020 alt_get_errno
00000000 l    df *ABS*	00000000 alt_dcache_flush_all.c
00000000 l    df *ABS*	00000000 alt_dev.c
00807640 l     F .text	00000008 alt_dev_null_write
00000000 l    df *ABS*	00000000 alt_dev_llist_insert.c
00000000 l    df *ABS*	00000000 alt_do_ctors.c
00000000 l    df *ABS*	00000000 alt_do_dtors.c
00000000 l    df *ABS*	00000000 alt_errno.c
00000000 l    df *ABS*	00000000 alt_icache_flush_all.c
00000000 l    df *ABS*	00000000 alt_iic.c
00000000 l    df *ABS*	00000000 alt_iic_isr_register.c
00000000 l    df *ABS*	00000000 alt_io_redirect.c
00807844 l     F .text	00000088 alt_open_fd
00000000 l    df *ABS*	00000000 alt_irq_vars.c
00000000 l    df *ABS*	00000000 alt_open.c
00000000 l    df *ABS*	00000000 alt_release_fd.c
00000000 l    df *ABS*	00000000 altera_nios2_qsys_irq.c
00000038 l       *ABS*	00000000 OSCtxSw_SWITCH_PC
00000000 l    df *ABS*	00000000 os_cpu_c.c
00000014 l       *ABS*	00000000 OSTCBNext_OFFSET
00000032 l       *ABS*	00000000 OSTCBPrio_OFFSET
00000000 l       *ABS*	00000000 OSTCBStkPtr_OFFSET
008090d8 l     O .bss	00000002 OSTmrCtr
00000000 l    df *ABS*	00000000 alt_find_dev.c
00000000 l    df *ABS*	00000000 alt_find_file.c
00000000 l    df *ABS*	00000000 alt_get_fd.c
00000000 l    df *ABS*	00000000 atexit.c
00000000 l    df *ABS*	00000000 exit.c
00000000 l    df *ABS*	00000000 memcmp.c
00000000 l    df *ABS*	00000000 putc.c
00000000 l    df *ABS*	00000000 __atexit.c
00000000 l    df *ABS*	00000000 __call_atexit.c
00808108 l     F .text	00000004 register_fini
00000000 l    df *ABS*	00000000 dp-bit.c
00000000 l    df *ABS*	00000000 dp-bit.c
00000000 l    df *ABS*	00000000 alt_exit.c
0080900c g     O .bss	00000004 SemSwitches
00808c1e g     O .rwdata	00000002 OSTaskNameSize
008039c8 g     F .text	000000a8 alt_main
00809074 g     O .bss	00000004 OSTmrFreeList
0080df68 g     O .bss	00000100 alt_irq
008090f4 g     O .bss	00000400 SwitchIO_Stack
00808c64 g       *ABS*	00000000 __flash_rwdata_start
0080b0f4 g     O .bss	00000010 OSTmrWheelTbl
00808bbc g     O .rwdata	00000004 engine
00809010 g     O .bss	00000004 Mbox_Throttle
008044b0 g     F .text	000002d4 OSEventPendMulti
00807c1c g     F .text	00000004 OSTaskCreateHook
00802f80 g     F .text	00000054 printf
00808bf6 g     O .rwdata	00000002 OSMboxEn
00804784 g     F .text	0000003c OSIntEnter
00000000 g       *ABS*	00000000 __alt_mem_sram
00808c06 g     O .rwdata	00000002 OSQEn
00800410 g     F .text	00000034 CallbackOverload
00803d88 g     F .text	00000004 __malloc_unlock
00807c28 g     F .text	00000004 OSTaskStatHook
00809005 g     O .bss	00000001 TOP_GEAR
00809078 g     O .bss	00000001 OSLockNesting
0080907c g     O .bss	00000004 OSTmrSemSignal
00808c44 g     O .rwdata	00000002 OSDataSize
00809080 g     O .bss	00000001 OSRunning
00809014 g     O .bss	00000004 SemExtraload
00807c2c g     F .text	00000008 OSInitHookBegin
00808c3c g     O .rwdata	00000002 OSTmrSize
00800478 g     F .text	0000002c CallbackExtraload
00809084 g     O .bss	00000004 OSIdleCtr
00807bd4 g       .text	00000000 OSStartTsk
00000000  w      *UND*	00000000 __errno
008049b0 g     F .text	00000170 OS_TCBInit
008004a4 g     F .text	00000038 CallbackWatchdog
00800000 g     F .entry	0000000c __reset
00809088 g     O .bss	00000002 OSTmrUsed
0080096c g     F .text	000005f0 VehicleTask
00808c42 g     O .rwdata	00000002 OSTmrWheelTblSize
00800020 g       *ABS*	00000000 __flash_exceptions_start
00808be2 g     O .rwdata	00000002 OSEventSize
0080908a g     O .bss	00000001 OSPrioHighRdy
00807c20 g     F .text	00000004 OSTaskDelHook
00800720 g     F .text	0000010c adjust_position
00809054 g     O .bss	00000004 errno
008026d0 g     F .text	00000038 __make_dp
00807bb4 g       .text	00000000 OSStartHighRdy
008060c0 g     F .text	00000168 OSTaskCreateExt
008001d4 g     F .text	00000034 CallbackStat
00805614 g     F .text	0000002c OSFlagPendGetFlagsRdy
00808c22 g     O .rwdata	00000002 OSTaskStatStkSize
00804ec4 g     F .text	00000154 OSFlagAccept
0080905c g     O .bss	00000004 alt_argv
00810bb0 g       *ABS*	00000000 _gp
00801350 g     F .text	000000c4 SwitchIO
00809070 g     O .bss	00000004 alt_heapsem
00804c88 g     F .text	00000004 OSDebugInit
00806228 g     F .text	0000022c OSTaskDel
00808a30 g     O .rwdata	00000180 alt_fd_list
0080b104 g     O .bss	00000370 OSFlagTbl
00809006 g     O .bss	00000001 GAS_PEDAL
00803ebc g     F .text	0000004c OS_EventTaskRemove
00807c98 g     F .text	00000070 alt_find_dev
00809018 g     O .bss	00000004 Mbox_Velocity
00808c0c g     O .rwdata	00000002 OSRdyTblSize
0080b474 g     O .bss	00000340 OSTmrTbl
00802500 g     F .text	000000f8 __floatsidf
008078cc g     F .text	0000008c alt_io_redirect
0080843c g       *ABS*	00000000 __DTOR_END__
00809007 g     O .bss	00000001 BRAKE_PEDAL
008094f4 g     O .bss	00000400 ControlTask_Stack
00804424 g     F .text	0000008c OSEventNameGet
00808bf0 g     O .rwdata	00000002 OSFlagMax
00804b20 g     F .text	000000c8 OSIntExit
0080901c g     O .bss	00000004 TimerVehicle
00809020 g     O .bss	00000004 SemControl
00808c2a g     O .rwdata	00000002 OSTCBSize
0080908b g     O .bss	00000001 OSPrioCur
00807460 g     F .text	00000060 altera_avalon_jtag_uart_read
00000000  w      *UND*	00000000 malloc
00802fd4 g     F .text	00000044 _printf_r
00802844 g     F .text	00000008 __udivsi3
00808c10 g     O .rwdata	00000002 OSStkWidth
00808c04 g     O .rwdata	00000002 OSPtrSize
00809024 g     O .bss	00000004 TimerWatchdog
008003dc g     F .text	00000034 CallbackSwitches
00808be4 g     O .rwdata	00000002 OSEventTblSize
00808bb0 g     O .rwdata	00000004 gas_pedal
00807b38 g       .text	00000000 OSCtxSw
00809028 g     O .bss	00000004 TimerStat
0080908c g     O .bss	00000004 OSTCBList
00801530 g     F .text	00000168 Extraload
00807190 g     F .text	00000028 OSTmrSignal
008090d0 g     O .bss	00000004 alt_fd_list_lock
00800374 g     F .text	00000034 CallbackControl
00809090 g     O .bss	00000001 OSTickStepState
00808c08 g     O .rwdata	00000002 OSQMax
0080b7b4 g     O .bss	00000800 OSTaskStatStk
0080082c g     F .text	00000140 adjust_velocity
00808be8 g     O .rwdata	00000002 OSFlagEn
00808c2e g     O .rwdata	00000002 OSTimeTickHookEn
00804d44 g     F .text	0000003c OS_FlagUnlink
00800444 g     F .text	00000034 CallbackExtraloadTask
008003a8 g     F .text	00000034 CallbackButtons
00808c58 g     O .rwdata	00000004 alt_max_fd
00804090 g     F .text	00000024 OS_MemCopy
00804138 g     F .text	000000ac OS_Sched
00802e48 g     F .text	00000138 __unpack_d
008065c8 g     F .text	000000ec OSTaskNameSet
00809094 g     O .bss	00000004 OSCtxSwCtr
00807c40 g     F .text	00000058 OSTimeTickHook
00809000 g     O .bss	00000004 led_red
00809004 g     O .bss	00000001 ENGINE
00808bf2 g     O .rwdata	00000002 OSFlagNameSize
00801d50 g     F .text	00000054 __extendsfdf2
00803f08 g     F .text	0000005c OS_EventTaskRemoveMulti
00802234 g     F .text	00000074 __adddf3
00803e1c g     F .text	000000a0 OS_EventTaskWaitMulti
00808c0a g     O .rwdata	00000002 OSQSize
00805d58 g     F .text	00000158 OSSemPend
00808bc8 g     O .rwdata	00000004 _global_impure_ptr
008098f4 g     O .bss	00000400 OverloadDetection_Stack
00800180 g     F .text	0000002c buttons_pressed
00808bf4 g     O .rwdata	00000002 OSLowestPrio
0080e0f4 g       *ABS*	00000000 __bss_end
008077d8 g     F .text	0000006c alt_iic_isr_register
00807c3c g     F .text	00000004 OSTCBInitHook
00808c3a g     O .rwdata	00000002 OSTmrCfgTicksPerSec
00803bfc g     F .text	000000ac alt_tick
00805bb4 g     F .text	00000084 OSMboxPost
00808bdc g     O .rwdata	00000002 OSEventEn
00808c36 g     O .rwdata	00000002 OSTmrCfgNameSize
0080773c g     F .text	00000018 alt_ic_irq_enabled
00809098 g     O .bss	00000002 OSTmrFree
00804e10 g     F .text	00000070 OS_FlagInit
00803bc8 g     F .text	00000034 alt_alarm_stop
008070a8 g     F .text	000000e8 OSTmrDel
00808c18 g     O .rwdata	00000002 OSTaskIdleStkSize
00800284 g     F .text	0000008c statisticTask
008090d4 g     O .bss	00000004 alt_irq_active
00808ffc g     O .bss	00000002 led_green
0080909c g     O .bss	00000004 OSIdleCtrMax
008000ec g     F .exceptions	00000058 alt_irq_handler
00808a08 g     O .rwdata	00000028 alt_dev_null
00808c2c g     O .rwdata	00000002 OSTicksPerSec
00802a6c g     F .text	000000c8 __unpack_f
00807b38 g       .text	00000000 OSIntCtxSw
0080763c g     F .text	00000004 alt_dcache_flush_all
008025f8 g     F .text	000000d8 __fixdfsi
00808bc0 g     O .rwdata	00000004 cruise_control
008090a0 g     O .bss	00000004 OSTCBFreeList
00808c64 g       *ABS*	00000000 __ram_rwdata_end
00805eb0 g     F .text	000000d8 OSSemPendAbort
01008000 g       *ABS*	00000000 __alt_mem_onchip_memory
00809cf4 g     O .bss	00000400 VehicleTask_Stack
00808c50 g     O .rwdata	00000008 alt_dev_list
00803cc8 g     F .text	000000b4 write
00807f28 g     F .text	00000074 _putc_r
00808c30 g     O .rwdata	00000002 OSVersionNbr
0080a0f4 g     O .bss	00000400 ButtonsIO_Stack
008088d0 g       *ABS*	00000000 __ram_rodata_end
00806fa0 g     F .text	00000108 OSTmrRemainGet
00808bd8 g     O .rwdata	00000004 OSEndiannessTest
0080284c g     F .text	00000008 __umodsi3
00808bea g     O .rwdata	00000002 OSFlagGrpSize
00806f08 g     F .text	00000098 OSTmrStateGet
0080e0f4 g       *ABS*	00000000 end
0080290c g     F .text	00000160 __pack_f
00808ff8 g     O .bss	00000004 TimerExtraload
0080492c g     F .text	00000084 OS_TaskStat
00808438 g       *ABS*	00000000 __CTOR_LIST__
01000000 g       *ABS*	00000000 __alt_stack_pointer
008074f4 g     F .text	00000050 alt_avalon_timer_sc_init
0080288c g     F .text	00000080 __clzsi2
008074c0 g     F .text	00000034 altera_avalon_jtag_uart_write
00806a74 g     F .text	00000160 OSTmr_Init
00804074 g     F .text	0000001c OS_MemClr
00803098 g     F .text	0000069c ___vfprintf_internal_r
00807bf8 g     F .text	00000024 OSTaskStkInit
00803a70 g     F .text	00000144 alt_printf
00803f64 g     F .text	000000f4 OS_EventTaskRdy
0080810c g     F .text	000001bc __call_exitprocs
0080060c g     F .text	0000008c show_target_velocity
008090a4 g     O .bss	00000001 OSCPUUsage
00800144 g     F .text	0000003c _start
00809064 g     O .bss	00000004 _alt_tick_rate
00806870 g     F .text	00000098 OSTimeDly
00800518 g     F .text	000000f4 show_velocity_on_sevenseg
00809068 g     O .bss	00000004 _alt_nticks
008073d0 g     F .text	00000050 alt_sys_init
00801cb8 g     F .text	00000098 __floatsisf
00807f9c g     F .text	0000016c __register_exitproc
008090a5 g     O .bss	00000001 OSTaskCtr
00802854 g     F .text	00000038 __mulsi3
008088d0 g       *ABS*	00000000 __ram_rwdata_start
0080843c g       *ABS*	00000000 __ram_rodata_start
00808bde g     O .rwdata	00000002 OSEventMax
00805c38 g     F .text	00000094 OSSemPost
00807450 g     F .text	00000010 altera_avalon_jtag_uart_read_fd
00807da4 g     F .text	000000a4 alt_get_fd
008047c0 g     F .text	00000064 OSStatInit
00804e80 g     F .text	00000044 OSFlagQuery
00808350 g     F .text	000000c8 __fpcmp_parts_d
00808c14 g     O .rwdata	00000002 OSTaskCreateExtEn
00807e7c g     F .text	0000003c memcmp
00803d94 g     F .text	00000004 OS_Dummy
0080e0f4 g       *ABS*	00000000 __alt_stack_base
0080902c g     O .bss	00000004 TimerOverload
00809030 g     O .bss	00000004 SemVehicle
00809034 g     O .bss	00000004 SemOverload
008022a8 g     F .text	00000258 __divdf3
00808bb4 g     O .rwdata	00000004 brake_pedal
008090a8 g     O .bss	00000004 OSTCBHighRdy
00807d08 g     F .text	0000009c alt_find_file
00800340 g     F .text	00000034 CallbackVehicle
00807648 g     F .text	00000070 alt_dev_llist_insert
00803d84 g     F .text	00000004 __malloc_lock
00804be8 g     F .text	000000a0 OSEventNameSet
008004dc g     F .text	0000003c int2seven
00809038 g     O .bss	00000004 SemButtons
008090ac g     O .bss	00000001 OSRdyGrp
0080903c g     O .bss	00000004 SemStat
00803758 g     F .text	000000bc __sfvwrite_small_dev
00806e18 g     F .text	000000f0 OSTmrStart
00808ff8 g       *ABS*	00000000 __bss_start
00801c3c g     F .text	0000007c main
00809060 g     O .bss	00000004 alt_envp
00807440 g     F .text	00000010 altera_avalon_jtag_uart_write_fd
0080878a g     O .rodata	00000100 OSUnMapTbl
00808c0e g     O .rwdata	00000002 OSSemEn
00805640 g     F .text	000001d8 OSFlagPost
00803d98 g     F .text	00000084 OS_EventTaskWait
00804100 g     F .text	00000038 OS_TaskStatStkChk
008001ac g     F .text	00000028 switches_pressed
0080e068 g     O .bss	0000008c _atexit0
00806454 g     F .text	000000a8 OSTaskDelReq
00808c5c g     O .rwdata	00000004 alt_errno
008041e4 g     F .text	0000006c OSStart
00803d80 g     F .text	00000004 __env_unlock
0080a4f4 g     O .bss	00000400 StartTask_Stack
008066b4 g     F .text	000000f4 OSTaskResume
00808c20 g     O .rwdata	00000002 OSTaskStatEn
00808bfa g     O .rwdata	00000002 OSMemMax
00807eb8 g     F .text	00000070 putc
00802784 g     F .text	00000060 __divsi3
008090ad g     O .bss	00000003 OSRdyTbl
00808bd4 g     O .rwdata	00000002 OSDebugEn
00808644 g     O .rodata	00000014 __thenan_df
00809040 g     O .bss	00000004 TimerExtraloadTask
0080843c g       *ABS*	00000000 __CTOR_END__
00808bec g     O .rwdata	00000002 OSFlagNodeSize
00808c34 g     O .rwdata	00000002 OSTmrCfgMax
008064fc g     F .text	000000cc OSTaskNameGet
0080843c g       *ABS*	00000000 __flash_rodata_start
00804824 g     F .text	000000d8 OSTimeTick
00808c1c g     O .rwdata	00000002 OSTaskMax
0080843c g       *ABS*	00000000 __DTOR_LIST__
00805ccc g     F .text	0000008c OSSemCreate
00808c40 g     O .rwdata	00000002 OSTmrWheelSize
00800698 g     F .text	00000088 show_position
00809044 g     O .bss	00000004 delay
00808bb8 g     O .rwdata	00000004 top_gear
00808c16 g     O .rwdata	00000002 OSTaskDelEn
00807420 g     F .text	00000020 alt_irq_init
00807ad4 g     F .text	0000005c alt_release_fd
00808658 g     O .rodata	00000100 __clz_tab
00806cd0 g     F .text	00000148 OSTmrStop
00807e48 g     F .text	00000014 atexit
0080a8f4 g     O .bss	00000400 statisticTask_Stack
00803834 g     F .text	00000078 _write_r
0080bfb4 g     O .bss	00000800 OSTmrTaskStk
00805018 g     F .text	00000080 OSFlagCreate
00808bc4 g     O .rwdata	00000004 _impure_ptr
00809048 g     O .bss	00000004 TimerButtons
00809058 g     O .bss	00000004 alt_argc
008076f8 g     F .text	00000040 _do_dtors
00808be6 g     O .rwdata	00000002 OSEventMultiEn
00807280 g     F .text	00000150 OSTmrCreate
00805098 g     F .text	0000014c OSFlagDel
008090b0 g     O .bss	00000004 OSEventFreeList
00800020 g       .exceptions	00000000 alt_irq_entry
00805ae4 g     F .text	000000d0 OSMboxPendAbort
00801414 g     F .text	000000e8 ButtonsIO
00805330 g     F .text	000002e4 OSFlagPend
00808c32 g     O .rwdata	00000002 OSTmrEn
00808c48 g     O .rwdata	00000008 alt_fs_list
008071b8 g     F .text	000000c8 OSTmrNameGet
008040b4 g     F .text	0000002c OS_StrCopy
0080904c g     O .bss	00000004 TimerControl
00800208 g     F .text	0000007c printStackSize
00808bfc g     O .rwdata	00000002 OSMemNameSize
00807c34 g     F .text	00000004 OSInitHookEnd
00800020 g       *ABS*	00000000 __ram_exceptions_start
00808c28 g     O .rwdata	00000002 OSTCBPrioTblMax
00808c24 g     O .rwdata	00000002 OSTaskStatStkChkEn
00800310 g     F .text	00000030 alarm_handler
008058e4 g     F .text	0000008c OSMboxCreate
008077d4 g     F .text	00000004 alt_ic_isr_register
00808bf8 g     O .rwdata	00000002 OSMemEn
00808c02 g     O .rwdata	00000002 OSMutexEn
00808c64 g       *ABS*	00000000 _edata
0080e0f4 g       *ABS*	00000000 _end
00800f5c g     F .text	000003f4 ControlTask
008090b4 g     O .bss	00000001 OSIntNesting
00800144 g       *ABS*	00000000 __ram_exceptions_end
00805278 g     F .text	000000b8 OSFlagNameSet
00805970 g     F .text	00000174 OSMboxPend
00809050 g     O .bss	00000004 TimerSwitches
008014fc g     F .text	00000034 OverloadDetection
008067a8 g     F .text	000000c8 OSTaskStkChk
00807794 g     F .text	00000040 alt_ic_irq_disable
00808bfe g     O .rwdata	00000002 OSMemSize
00807b30 g     F .text	00000008 altera_nios2_qsys_irq_init
008090b8 g     O .bss	00000004 OSTCBCur
00807e5c g     F .text	00000020 exit
00808c00 g     O .rwdata	00000002 OSMemTblSize
008027e4 g     F .text	00000060 __modsi3
01000000 g       *ABS*	00000000 __alt_data_end
00800020 g     F .exceptions	00000000 alt_exception
00804250 g     F .text	000001d4 OSInit
008090bc g     O .bss	00000004 OSTmrTime
00800000 g       *ABS*	00000000 __alt_mem_sdram
008040e0 g     F .text	00000020 OS_StrLen
00808c1a g     O .rwdata	00000002 OSTaskProfileEn
008090c0 g     O .bss	00000004 OSTmrSem
0080c7b4 g     O .bss	00000800 OSTaskIdleStk
00808418 g     F .text	00000020 _exit
00805818 g     F .text	000000cc OSMboxPostOpt
008051e4 g     F .text	00000094 OSFlagNameGet
008038ac g     F .text	00000090 alt_alarm_start
0080acf4 g     O .bss	00000400 Extraload_Stack
00803814 g     F .text	00000020 strlen
00807c24 g     F .text	00000004 OSTaskSwHook
00807958 g     F .text	0000017c open
0080cfb4 g     O .bss	00000b40 OSEventTbl
008082c8 g     F .text	00000088 __gedf2
00803bb4 g     F .text	00000014 alt_putchar
0080daf4 g     O .bss	00000420 OSTCBTbl
00801698 g     F .text	000005a4 StartTask
00807738 g     F .text	00000004 alt_icache_flush_all
00808c60 g     O .rwdata	00000004 alt_priority_mask
008090c4 g     O .bss	00000004 OSFlagFreeList
00807754 g     F .text	00000040 alt_ic_irq_enable
00808be0 g     O .rwdata	00000002 OSEventNameSize
00803734 g     F .text	00000024 __vfprintf_internal
008090c8 g     O .bss	00000001 OSStatRdy
0080df14 g     O .bss	00000054 OSTCBPrioTbl
00803d7c g     F .text	00000004 __env_lock
00808c26 g     O .rwdata	00000002 OSTaskSwHookEn
008021b4 g     F .text	00000080 __subdf3
00808bcc g     O .rwdata	00000008 alt_alarm_list
00808bee g     O .rwdata	00000002 OSFlagWidth
008076b8 g     F .text	00000040 _do_ctors
008075a0 g     F .text	0000009c close
0080906c g     O .bss	00000004 alt_envsem
008090cc g     O .bss	00000004 OSIdleCtrRun
00803d8c g     F .text	00000008 OSVersion
00808c38 g     O .rwdata	00000002 OSTmrCfgWheelSize
0080395c g     F .text	0000006c alt_load
00805f88 g     F .text	00000030 OS_TaskStkClr
00802b34 g     F .text	00000314 __pack_d
00808c12 g     O .rwdata	00000002 OSTaskCreateEn
00809008 g     O .bss	00000001 CRUISE_CONTROL
00804058 g     F .text	0000001c OS_EventWaitListInit
00807c38 g     F .text	00000004 OSTaskIdleHook
00000000  w      *UND*	00000000 free
00805fb8 g     F .text	00000108 OSTaskSuspend
008048fc g     F .text	00000030 OS_TaskIdle
00809009 g     O .bss	00000001 FLAG
00808c3e g     O .rwdata	00000002 OSTmrTblSize



Disassembly of section .entry:

00800000 <__reset>:
 * Jump to the _start entry point in the .text section if reset code
 * is allowed or if optimizing for RTL simulation.
 */
#if defined(ALT_ALLOW_CODE_AT_RESET) || defined(ALT_SIM_OPTIMIZE)
    /* Jump to the _start entry point in the .text section. */
    movhi r1, %hi(_start)
  800000:	00402034 	movhi	at,128
    ori r1, r1, %lo(_start)
  800004:	08405114 	ori	at,at,324
    jmp r1
  800008:	0800683a 	jmp	at
	...

Disassembly of section .exceptions:

00800020 <alt_exception>:
         * Process an exception.  For all exceptions we must preserve all
         * caller saved registers on the stack (See the Nios2 ABI
         * documentation for details).
         */

        addi  sp, sp, -76
  800020:	deffed04 	addi	sp,sp,-76

#endif

#endif

        stw   ra,  0(sp)
  800024:	dfc00015 	stw	ra,0(sp)
        /*
         * Leave a gap in the stack frame at 4(sp) for the muldiv handler to
         * store zero into.
         */

        stw   r1,   8(sp)
  800028:	d8400215 	stw	at,8(sp)
        stw   r2,  12(sp)
  80002c:	d8800315 	stw	r2,12(sp)
        stw   r3,  16(sp)
  800030:	d8c00415 	stw	r3,16(sp)
        stw   r4,  20(sp)
  800034:	d9000515 	stw	r4,20(sp)
        stw   r5,  24(sp)
  800038:	d9400615 	stw	r5,24(sp)
        stw   r6,  28(sp)
  80003c:	d9800715 	stw	r6,28(sp)
        stw   r7,  32(sp)
  800040:	d9c00815 	stw	r7,32(sp)

        rdctl r5, estatus
  800044:	000b307a 	rdctl	r5,estatus

        stw   r8,  36(sp)
  800048:	da000915 	stw	r8,36(sp)
        stw   r9,  40(sp)
  80004c:	da400a15 	stw	r9,40(sp)
        stw   r10, 44(sp)
  800050:	da800b15 	stw	r10,44(sp)
        stw   r11, 48(sp)
  800054:	dac00c15 	stw	r11,48(sp)
        stw   r12, 52(sp)
  800058:	db000d15 	stw	r12,52(sp)
        stw   r13, 56(sp)
  80005c:	db400e15 	stw	r13,56(sp)
        stw   r14, 60(sp)
  800060:	db800f15 	stw	r14,60(sp)
        stw   r15, 64(sp)
  800064:	dbc01015 	stw	r15,64(sp)
        /*
         * ea-4 contains the address of the instruction being executed
         * when the exception occured. For interrupt exceptions, we will
         * will be re-issue the isntruction. Store it in 72(sp)
         */
        stw   r5,  68(sp)  /* estatus */
  800068:	d9401115 	stw	r5,68(sp)
        addi  r15, ea, -4  /* instruction that caused exception */
  80006c:	ebffff04 	addi	r15,ea,-4
        stw   r15,  72(sp)
  800070:	dbc01215 	stw	r15,72(sp)
#else
        /*
         * Test to see if the exception was a software exception or caused 
         * by an external interrupt, and vector accordingly.
         */
        rdctl r4, ipending
  800074:	0009313a 	rdctl	r4,ipending
        andi  r2, r5, 1
  800078:	2880004c 	andi	r2,r5,1
        beq   r2, zero, .Lnot_irq
  80007c:	10000326 	beq	r2,zero,80008c <alt_exception+0x6c>
        beq   r4, zero, .Lnot_irq
  800080:	20000226 	beq	r4,zero,80008c <alt_exception+0x6c>
        /*
         * Now that all necessary registers have been preserved, call 
         * alt_irq_handler() to process the interrupts.
         */

        call alt_irq_handler
  800084:	08000ec0 	call	8000ec <alt_irq_handler>

        .section .exceptions.irqreturn, "xa"

        br    .Lexception_exit
  800088:	00000306 	br	800098 <alt_exception+0x78>
         * upon completion, so we write ea (address of instruction *after*
         * the one where the exception occured) into 72(sp). The actual
         * instruction that caused the exception is written in r2, which these
         * handlers will utilize.
         */
        stw   ea,  72(sp)  /* Don't re-issue */
  80008c:	df401215 	stw	ea,72(sp)
        ldw   r2, -4(ea)   /* Instruction that caused exception */
  800090:	e8bfff17 	ldw	r2,-4(ea)
#ifdef NIOS2_HAS_DEBUG_STUB
       /*
        *  Either tell the user now (if there is a debugger attached) or go into
        *  the debug monitor which will loop until a debugger is attached.
        */
        break
  800094:	003da03a 	break	0
        /* 
         * Restore the saved registers, so that all general purpose registers 
         * have been restored to their state at the time the interrupt occured.
         */

        ldw   r5,  68(sp)
  800098:	d9401117 	ldw	r5,68(sp)
        ldw   ea,  72(sp)  /* This becomes the PC once eret is executed */
  80009c:	df401217 	ldw	ea,72(sp)
        ldw   ra,   0(sp)
  8000a0:	dfc00017 	ldw	ra,0(sp)

        wrctl estatus, r5
  8000a4:	2801707a 	wrctl	estatus,r5

        ldw   r1,   8(sp)
  8000a8:	d8400217 	ldw	at,8(sp)
        ldw   r2,  12(sp)
  8000ac:	d8800317 	ldw	r2,12(sp)
        ldw   r3,  16(sp)
  8000b0:	d8c00417 	ldw	r3,16(sp)
        ldw   r4,  20(sp)
  8000b4:	d9000517 	ldw	r4,20(sp)
        ldw   r5,  24(sp)
  8000b8:	d9400617 	ldw	r5,24(sp)
        ldw   r6,  28(sp)
  8000bc:	d9800717 	ldw	r6,28(sp)
        ldw   r7,  32(sp)
  8000c0:	d9c00817 	ldw	r7,32(sp)
#ifdef ALT_STACK_CHECK
        ldw   et, %gprel(alt_exception_old_stack_limit)(gp)
#endif
#endif

        ldw   r8,  36(sp)
  8000c4:	da000917 	ldw	r8,36(sp)
        ldw   r9,  40(sp)
  8000c8:	da400a17 	ldw	r9,40(sp)
        ldw   r10, 44(sp)
  8000cc:	da800b17 	ldw	r10,44(sp)
        ldw   r11, 48(sp)
  8000d0:	dac00c17 	ldw	r11,48(sp)
        ldw   r12, 52(sp)
  8000d4:	db000d17 	ldw	r12,52(sp)
        ldw   r13, 56(sp)
  8000d8:	db400e17 	ldw	r13,56(sp)
        ldw   r14, 60(sp)
  8000dc:	db800f17 	ldw	r14,60(sp)
        ldw   r15, 64(sp)
  8000e0:	dbc01017 	ldw	r15,64(sp)
#endif

        ldw   sp,  76(sp)

#else
        addi  sp, sp, 76
  8000e4:	dec01304 	addi	sp,sp,76

        /*
         * Return to the interrupted instruction.
         */

        eret
  8000e8:	ef80083a 	eret

008000ec <alt_irq_handler>:
 * instruction is present if the macro ALT_CI_INTERRUPT_VECTOR defined.
 */

void alt_irq_handler (void) __attribute__ ((section (".exceptions")));
void alt_irq_handler (void)
{
  8000ec:	deffff04 	addi	sp,sp,-4
  8000f0:	dfc00015 	stw	ra,0(sp)
  
  /*
   * Notify the operating system that we are at interrupt level.
   */ 
  
  ALT_OS_INT_ENTER();
  8000f4:	08047840 	call	804784 <OSIntEnter>
#ifndef NIOS2_EIC_PRESENT
static ALT_INLINE alt_u32 ALT_ALWAYS_INLINE alt_irq_pending (void)
{
  alt_u32 active;

  NIOS2_READ_IPENDING (active);
  8000f8:	0009313a 	rdctl	r4,ipending
  8000fc:	00c00044 	movi	r3,1
  800100:	01402074 	movhi	r5,129
  800104:	2977da04 	addi	r5,r5,-8344
     * called to clear the interrupt condition.
     */

    do
    {
      if (active & mask)
  800108:	20c4703a 	and	r2,r4,r3
#else
        alt_irq[i].handler(alt_irq[i].context, i); 
#endif
        break;
      }
      mask <<= 1;
  80010c:	18c7883a 	add	r3,r3,r3
     * called to clear the interrupt condition.
     */

    do
    {
      if (active & mask)
  800110:	10000726 	beq	r2,zero,800130 <alt_irq_handler+0x44>
      { 
#ifdef ALT_ENHANCED_INTERRUPT_API_PRESENT
        alt_irq[i].handler(alt_irq[i].context); 
  800114:	29000117 	ldw	r4,4(r5)
  800118:	28800017 	ldw	r2,0(r5)
  80011c:	103ee83a 	callr	r2
  800120:	0005313a 	rdctl	r2,ipending

    } while (1);

    active = alt_irq_pending ();
    
  } while (active);
  800124:	10000426 	beq	r2,zero,800138 <alt_irq_handler+0x4c>
  800128:	1009883a 	mov	r4,r2
  80012c:	003ff306 	br	8000fc <alt_irq_handler+0x10>
  800130:	29400204 	addi	r5,r5,8
  800134:	003ff406 	br	800108 <alt_irq_handler+0x1c>
  /*
   * Notify the operating system that interrupt processing is complete.
   */ 

  ALT_OS_INT_EXIT();
}
  800138:	dfc00017 	ldw	ra,0(sp)
  80013c:	dec00104 	addi	sp,sp,4

  /*
   * Notify the operating system that interrupt processing is complete.
   */ 

  ALT_OS_INT_EXIT();
  800140:	0804b201 	jmpi	804b20 <OSIntExit>

Disassembly of section .text:

00800144 <_start>:
#if (NIOS2_NUM_OF_SHADOW_REG_SETS == 0)    
    /*
     * Now that the caches are initialized, set up the stack pointer.
     * The value provided by the linker is assumed to be correctly aligned.
     */
    movhi sp, %hi(__alt_stack_pointer)
  800144:	06c04034 	movhi	sp,256
    ori sp, sp, %lo(__alt_stack_pointer)
  800148:	dec00014 	ori	sp,sp,0

    /* Set up the global pointer. */
    movhi gp, %hi(_gp)
  80014c:	06802074 	movhi	gp,129
    ori gp, gp, %lo(_gp)
  800150:	d682ec14 	ori	gp,gp,2992
 */
#ifndef ALT_SIM_OPTIMIZE
    /* Log that the BSS is about to be cleared. */
    ALT_LOG_PUTS(alt_log_msg_bss)

    movhi r2, %hi(__bss_start)
  800154:	00802034 	movhi	r2,128
    ori r2, r2, %lo(__bss_start)
  800158:	10a3fe14 	ori	r2,r2,36856

    movhi r3, %hi(__bss_end)
  80015c:	00c02034 	movhi	r3,128
    ori r3, r3, %lo(__bss_end)
  800160:	18f83d14 	ori	r3,r3,57588

    beq r2, r3, 1f
  800164:	10c00326 	beq	r2,r3,800174 <_start+0x30>

0:
    stw zero, (r2)
  800168:	10000015 	stw	zero,0(r2)
    addi r2, r2, 4
  80016c:	10800104 	addi	r2,r2,4
    bltu r2, r3, 0b
  800170:	10fffd36 	bltu	r2,r3,800168 <_start+0x24>
     * section aren't defined until alt_load() has been called).
     */
    mov   et, zero
#endif

    call alt_load
  800174:	080395c0 	call	80395c <alt_load>

    /* Log that alt_main is about to be called. */
    ALT_LOG_PUTS(alt_log_msg_alt_main)

    /* Call the C entry point. It should never return. */
    call alt_main
  800178:	08039c80 	call	8039c8 <alt_main>

0080017c <alt_after_alt_main>:

    /* Wait in infinite loop in case alt_main does return. */
alt_after_alt_main:
    br alt_after_alt_main
  80017c:	003fff06 	br	80017c <alt_after_alt_main>

00800180 <buttons_pressed>:
INT8U GAS_PEDAL = 0;
INT8U BRAKE_PEDAL = 0;
INT8U CRUISE_CONTROL = 0;
INT8U FLAG = 0;

int buttons_pressed(void) {
  800180:	deffff04 	addi	sp,sp,-4
  800184:	df000015 	stw	fp,0(sp)
  800188:	d839883a 	mov	fp,sp
	return ~IORD_ALTERA_AVALON_PIO_DATA(DE2_PIO_KEYS4_BASE);
  80018c:	00804074 	movhi	r2,257
  800190:	10844004 	addi	r2,r2,4352
  800194:	10800037 	ldwio	r2,0(r2)
  800198:	0084303a 	nor	r2,zero,r2
}
  80019c:	e037883a 	mov	sp,fp
  8001a0:	df000017 	ldw	fp,0(sp)
  8001a4:	dec00104 	addi	sp,sp,4
  8001a8:	f800283a 	ret

008001ac <switches_pressed>:

int switches_pressed(void) {
  8001ac:	deffff04 	addi	sp,sp,-4
  8001b0:	df000015 	stw	fp,0(sp)
  8001b4:	d839883a 	mov	fp,sp
	return IORD_ALTERA_AVALON_PIO_DATA(DE2_PIO_TOGGLES18_BASE);
  8001b8:	00804074 	movhi	r2,257
  8001bc:	10844404 	addi	r2,r2,4368
  8001c0:	10800037 	ldwio	r2,0(r2)
}
  8001c4:	e037883a 	mov	sp,fp
  8001c8:	df000017 	ldw	fp,0(sp)
  8001cc:	dec00104 	addi	sp,sp,4
  8001d0:	f800283a 	ret

008001d4 <CallbackStat>:
#ifdef DEBUG

OS_EVENT *SemStat;
OS_TMR *TimerStat;

void CallbackStat(void *ptmr, void *callback_arg) {
  8001d4:	defffc04 	addi	sp,sp,-16
  8001d8:	dfc00315 	stw	ra,12(sp)
  8001dc:	df000215 	stw	fp,8(sp)
  8001e0:	df000204 	addi	fp,sp,8
  8001e4:	e13ffe15 	stw	r4,-8(fp)
  8001e8:	e17fff15 	stw	r5,-4(fp)
	OSSemPost(SemStat);
  8001ec:	d1212317 	ldw	r4,-31604(gp)
  8001f0:	0805c380 	call	805c38 <OSSemPost>
}
  8001f4:	e037883a 	mov	sp,fp
  8001f8:	dfc00117 	ldw	ra,4(sp)
  8001fc:	df000017 	ldw	fp,0(sp)
  800200:	dec00204 	addi	sp,sp,8
  800204:	f800283a 	ret

00800208 <printStackSize>:

/* Called by StatisticTask */
void printStackSize(char* name, INT8U prio)
{
  800208:	defff804 	addi	sp,sp,-32
  80020c:	dfc00715 	stw	ra,28(sp)
  800210:	df000615 	stw	fp,24(sp)
  800214:	df000604 	addi	fp,sp,24
  800218:	e13ffe15 	stw	r4,-8(fp)
  80021c:	e17fff05 	stb	r5,-4(fp)
  INT8U err;
  OS_STK_DATA stk_data;

  err = OSTaskStkChk(prio, &stk_data);
  800220:	e13fff03 	ldbu	r4,-4(fp)
  800224:	e17ffc04 	addi	r5,fp,-16
  800228:	08067a80 	call	8067a8 <OSTaskStkChk>
  80022c:	e0bffb05 	stb	r2,-20(fp)
  if (err == OS_NO_ERR) {
  800230:	e0bffb03 	ldbu	r2,-20(fp)
  800234:	1004c03a 	cmpne	r2,r2,zero
  800238:	10000a1e 	bne	r2,zero,800264 <printStackSize+0x5c>
    if (DEBUG == 1)
      printf("%s (priority %d) - Used: %d; Free: %d\n",
  80023c:	e1bfff03 	ldbu	r6,-4(fp)
  800240:	e0bffd17 	ldw	r2,-12(fp)
  800244:	100f883a 	mov	r7,r2
  800248:	e0bffc17 	ldw	r2,-16(fp)
  80024c:	d8800015 	stw	r2,0(sp)
  800250:	01002074 	movhi	r4,129
  800254:	21210f04 	addi	r4,r4,-31684
  800258:	e17ffe17 	ldw	r5,-8(fp)
  80025c:	0802f800 	call	802f80 <printf>
  800260:	00000306 	br	800270 <printStackSize+0x68>
	     name, prio, (int) stk_data.OSUsed, (int) stk_data.OSFree);
  }
  else
    {
      if (DEBUG == 1)
	alt_printf("Stack Check Error!\n");
  800264:	01002074 	movhi	r4,129
  800268:	21211904 	addi	r4,r4,-31644
  80026c:	0803a700 	call	803a70 <alt_printf>
    }
}
  800270:	e037883a 	mov	sp,fp
  800274:	dfc00117 	ldw	ra,4(sp)
  800278:	df000017 	ldw	fp,0(sp)
  80027c:	dec00204 	addi	sp,sp,8
  800280:	f800283a 	ret

00800284 <statisticTask>:

/* Printing Statistics */
void statisticTask(void* pdata) {
  800284:	defffc04 	addi	sp,sp,-16
  800288:	dfc00315 	stw	ra,12(sp)
  80028c:	df000215 	stw	fp,8(sp)
  800290:	df000204 	addi	fp,sp,8
  800294:	e13fff15 	stw	r4,-4(fp)

	INT8U err;
	INT16U timeout = 0;
  800298:	e03ffe0d 	sth	zero,-8(fp)

	while (1) {
		printStackSize("VehicleTask", VEHICLETASK_PRIO);
  80029c:	01002074 	movhi	r4,129
  8002a0:	21211e04 	addi	r4,r4,-31624
  8002a4:	01400204 	movi	r5,8
  8002a8:	08002080 	call	800208 <printStackSize>
		printStackSize("ControlTask", CONTROLTASK_PRIO);
  8002ac:	01002074 	movhi	r4,129
  8002b0:	21212104 	addi	r4,r4,-31612
  8002b4:	01400284 	movi	r5,10
  8002b8:	08002080 	call	800208 <printStackSize>
		printStackSize("ButtonsIOTask", BUTTONSIO_PRIO);
  8002bc:	01002074 	movhi	r4,129
  8002c0:	21212404 	addi	r4,r4,-31600
  8002c4:	01400304 	movi	r5,12
  8002c8:	08002080 	call	800208 <printStackSize>
		printStackSize("SwitchesIOTask", SWITCHIO_PRIO);
  8002cc:	01002074 	movhi	r4,129
  8002d0:	21212804 	addi	r4,r4,-31584
  8002d4:	01400384 	movi	r5,14
  8002d8:	08002080 	call	800208 <printStackSize>
		printStackSize("OverloadDetectionTask", OVERLOADDETECTION_PRIO);
  8002dc:	01002074 	movhi	r4,129
  8002e0:	21212c04 	addi	r4,r4,-31568
  8002e4:	01400484 	movi	r5,18
  8002e8:	08002080 	call	800208 <printStackSize>
		printStackSize("ExtraloadTask", EXTRALOAD_PRIO);
  8002ec:	01002074 	movhi	r4,129
  8002f0:	21213204 	addi	r4,r4,-31544
  8002f4:	01400404 	movi	r5,16
  8002f8:	08002080 	call	800208 <printStackSize>

		OSSemPend(SemStat,timeout,&err);
  8002fc:	d1212317 	ldw	r4,-31604(gp)
  800300:	e17ffe0b 	ldhu	r5,-8(fp)
  800304:	e1bffe84 	addi	r6,fp,-6
  800308:	0805d580 	call	805d58 <OSSemPend>
	}
  80030c:	003fe306 	br	80029c <statisticTask+0x18>

00800310 <alarm_handler>:
#endif

/*
 * ISR for HW Timer
 */
alt_u32 alarm_handler(void* context) {
  800310:	defffd04 	addi	sp,sp,-12
  800314:	dfc00215 	stw	ra,8(sp)
  800318:	df000115 	stw	fp,4(sp)
  80031c:	df000104 	addi	fp,sp,4
  800320:	e13fff15 	stw	r4,-4(fp)
	OSTmrSignal(); /* Signals a 'tick' to the SW timers */
  800324:	08071900 	call	807190 <OSTmrSignal>

	return delay;
  800328:	d0a12517 	ldw	r2,-31596(gp)
}
  80032c:	e037883a 	mov	sp,fp
  800330:	dfc00117 	ldw	ra,4(sp)
  800334:	df000017 	ldw	fp,0(sp)
  800338:	dec00204 	addi	sp,sp,8
  80033c:	f800283a 	ret

00800340 <CallbackVehicle>:

/*
 * Callbacks resumes the suspended task
 */
void CallbackVehicle(void *ptmr,void *callback_arg) {
  800340:	defffc04 	addi	sp,sp,-16
  800344:	dfc00315 	stw	ra,12(sp)
  800348:	df000215 	stw	fp,8(sp)
  80034c:	df000204 	addi	fp,sp,8
  800350:	e13ffe15 	stw	r4,-8(fp)
  800354:	e17fff15 	stw	r5,-4(fp)
	OSSemPost(SemVehicle);
  800358:	d1212017 	ldw	r4,-31616(gp)
  80035c:	0805c380 	call	805c38 <OSSemPost>
}
  800360:	e037883a 	mov	sp,fp
  800364:	dfc00117 	ldw	ra,4(sp)
  800368:	df000017 	ldw	fp,0(sp)
  80036c:	dec00204 	addi	sp,sp,8
  800370:	f800283a 	ret

00800374 <CallbackControl>:
void CallbackControl(void *ptmr,void *callback_arg) {
  800374:	defffc04 	addi	sp,sp,-16
  800378:	dfc00315 	stw	ra,12(sp)
  80037c:	df000215 	stw	fp,8(sp)
  800380:	df000204 	addi	fp,sp,8
  800384:	e13ffe15 	stw	r4,-8(fp)
  800388:	e17fff15 	stw	r5,-4(fp)
	OSSemPost(SemControl);
  80038c:	d1211c17 	ldw	r4,-31632(gp)
  800390:	0805c380 	call	805c38 <OSSemPost>
}
  800394:	e037883a 	mov	sp,fp
  800398:	dfc00117 	ldw	ra,4(sp)
  80039c:	df000017 	ldw	fp,0(sp)
  8003a0:	dec00204 	addi	sp,sp,8
  8003a4:	f800283a 	ret

008003a8 <CallbackButtons>:
void CallbackButtons(void *ptmr,void *callback_arg) {
  8003a8:	defffc04 	addi	sp,sp,-16
  8003ac:	dfc00315 	stw	ra,12(sp)
  8003b0:	df000215 	stw	fp,8(sp)
  8003b4:	df000204 	addi	fp,sp,8
  8003b8:	e13ffe15 	stw	r4,-8(fp)
  8003bc:	e17fff15 	stw	r5,-4(fp)
	OSSemPost(SemButtons);
  8003c0:	d1212217 	ldw	r4,-31608(gp)
  8003c4:	0805c380 	call	805c38 <OSSemPost>
}
  8003c8:	e037883a 	mov	sp,fp
  8003cc:	dfc00117 	ldw	ra,4(sp)
  8003d0:	df000017 	ldw	fp,0(sp)
  8003d4:	dec00204 	addi	sp,sp,8
  8003d8:	f800283a 	ret

008003dc <CallbackSwitches>:
void CallbackSwitches(void *ptmr,void *callback_arg) {
  8003dc:	defffc04 	addi	sp,sp,-16
  8003e0:	dfc00315 	stw	ra,12(sp)
  8003e4:	df000215 	stw	fp,8(sp)
  8003e8:	df000204 	addi	fp,sp,8
  8003ec:	e13ffe15 	stw	r4,-8(fp)
  8003f0:	e17fff15 	stw	r5,-4(fp)
	OSSemPost(SemSwitches);
  8003f4:	d1211717 	ldw	r4,-31652(gp)
  8003f8:	0805c380 	call	805c38 <OSSemPost>
}
  8003fc:	e037883a 	mov	sp,fp
  800400:	dfc00117 	ldw	ra,4(sp)
  800404:	df000017 	ldw	fp,0(sp)
  800408:	dec00204 	addi	sp,sp,8
  80040c:	f800283a 	ret

00800410 <CallbackOverload>:
void CallbackOverload(void *ptmr,void *callback_arg) {
  800410:	defffc04 	addi	sp,sp,-16
  800414:	dfc00315 	stw	ra,12(sp)
  800418:	df000215 	stw	fp,8(sp)
  80041c:	df000204 	addi	fp,sp,8
  800420:	e13ffe15 	stw	r4,-8(fp)
  800424:	e17fff15 	stw	r5,-4(fp)
	OSSemPost(SemOverload);
  800428:	d1212117 	ldw	r4,-31612(gp)
  80042c:	0805c380 	call	805c38 <OSSemPost>
}
  800430:	e037883a 	mov	sp,fp
  800434:	dfc00117 	ldw	ra,4(sp)
  800438:	df000017 	ldw	fp,0(sp)
  80043c:	dec00204 	addi	sp,sp,8
  800440:	f800283a 	ret

00800444 <CallbackExtraloadTask>:

void CallbackExtraloadTask(void *ptmr, void *callback_arg) {
  800444:	defffc04 	addi	sp,sp,-16
  800448:	dfc00315 	stw	ra,12(sp)
  80044c:	df000215 	stw	fp,8(sp)
  800450:	df000204 	addi	fp,sp,8
  800454:	e13ffe15 	stw	r4,-8(fp)
  800458:	e17fff15 	stw	r5,-4(fp)
	OSSemPost(SemExtraload);
  80045c:	d1211917 	ldw	r4,-31644(gp)
  800460:	0805c380 	call	805c38 <OSSemPost>
}
  800464:	e037883a 	mov	sp,fp
  800468:	dfc00117 	ldw	ra,4(sp)
  80046c:	df000017 	ldw	fp,0(sp)
  800470:	dec00204 	addi	sp,sp,8
  800474:	f800283a 	ret

00800478 <CallbackExtraload>:

void CallbackExtraload(void *ptmr, void *callback_arg) {
  800478:	defffd04 	addi	sp,sp,-12
  80047c:	df000215 	stw	fp,8(sp)
  800480:	df000204 	addi	fp,sp,8
  800484:	e13ffe15 	stw	r4,-8(fp)
  800488:	e17fff15 	stw	r5,-4(fp)
	FLAG = 1;
  80048c:	00800044 	movi	r2,1
  800490:	d0a11645 	stb	r2,-31655(gp)
}
  800494:	e037883a 	mov	sp,fp
  800498:	df000017 	ldw	fp,0(sp)
  80049c:	dec00104 	addi	sp,sp,4
  8004a0:	f800283a 	ret

008004a4 <CallbackWatchdog>:

void CallbackWatchdog(void *ptmr, void *callback_arg) {
  8004a4:	defffc04 	addi	sp,sp,-16
  8004a8:	dfc00315 	stw	ra,12(sp)
  8004ac:	df000215 	stw	fp,8(sp)
  8004b0:	df000204 	addi	fp,sp,8
  8004b4:	e13ffe15 	stw	r4,-8(fp)
  8004b8:	e17fff15 	stw	r5,-4(fp)
	alt_printf("CPU is at 100 percent usage!\n");
  8004bc:	01002074 	movhi	r4,129
  8004c0:	21213604 	addi	r4,r4,-31528
  8004c4:	0803a700 	call	803a70 <alt_printf>
}
  8004c8:	e037883a 	mov	sp,fp
  8004cc:	dfc00117 	ldw	ra,4(sp)
  8004d0:	df000017 	ldw	fp,0(sp)
  8004d4:	dec00204 	addi	sp,sp,8
  8004d8:	f800283a 	ret

008004dc <int2seven>:
		};

/*
 * convert int to seven segment display format
 */
int int2seven(int inval) {
  8004dc:	defffe04 	addi	sp,sp,-8
  8004e0:	df000115 	stw	fp,4(sp)
  8004e4:	df000104 	addi	fp,sp,4
  8004e8:	e13fff15 	stw	r4,-4(fp)
	return b2sLUT[inval];
  8004ec:	e0bfff17 	ldw	r2,-4(fp)
  8004f0:	00c02074 	movhi	r3,129
  8004f4:	18e23404 	addi	r3,r3,-30512
  8004f8:	1085883a 	add	r2,r2,r2
  8004fc:	1085883a 	add	r2,r2,r2
  800500:	10c5883a 	add	r2,r2,r3
  800504:	10800017 	ldw	r2,0(r2)
}
  800508:	e037883a 	mov	sp,fp
  80050c:	df000017 	ldw	fp,0(sp)
  800510:	dec00104 	addi	sp,sp,4
  800514:	f800283a 	ret

00800518 <show_velocity_on_sevenseg>:

/*
 * output current velocity on the seven segement display
 */
void show_velocity_on_sevenseg(INT8S velocity) {
  800518:	defffa04 	addi	sp,sp,-24
  80051c:	dfc00515 	stw	ra,20(sp)
  800520:	df000415 	stw	fp,16(sp)
  800524:	df000404 	addi	fp,sp,16
  800528:	e13fff05 	stb	r4,-4(fp)
	int tmp = velocity;
  80052c:	e0bfff07 	ldb	r2,-4(fp)
  800530:	e0bffe15 	stw	r2,-8(fp)
	int out;
	INT8U out_high = 0;
  800534:	e03ffc85 	stb	zero,-14(fp)
	INT8U out_low = 0;
  800538:	e03ffc45 	stb	zero,-15(fp)
	INT8U out_sign = 0;
  80053c:	e03ffc05 	stb	zero,-16(fp)

	if (velocity < 0) {
  800540:	e0bfff07 	ldb	r2,-4(fp)
  800544:	1004403a 	cmpge	r2,r2,zero
  800548:	1000071e 	bne	r2,zero,800568 <show_velocity_on_sevenseg+0x50>
		out_sign = int2seven(10);
  80054c:	01000284 	movi	r4,10
  800550:	08004dc0 	call	8004dc <int2seven>
  800554:	e0bffc05 	stb	r2,-16(fp)
		tmp *= -1;
  800558:	e0bffe17 	ldw	r2,-8(fp)
  80055c:	0085c83a 	sub	r2,zero,r2
  800560:	e0bffe15 	stw	r2,-8(fp)
  800564:	00000306 	br	800574 <show_velocity_on_sevenseg+0x5c>
	} else {
		out_sign = int2seven(0);
  800568:	0009883a 	mov	r4,zero
  80056c:	08004dc0 	call	8004dc <int2seven>
  800570:	e0bffc05 	stb	r2,-16(fp)
	}

	out_high = int2seven(tmp / 10);
  800574:	e13ffe17 	ldw	r4,-8(fp)
  800578:	01400284 	movi	r5,10
  80057c:	08027840 	call	802784 <__divsi3>
  800580:	1009883a 	mov	r4,r2
  800584:	08004dc0 	call	8004dc <int2seven>
  800588:	e0bffc85 	stb	r2,-14(fp)
	out_low = int2seven(tmp - (tmp / 10) * 10);
  80058c:	e13ffe17 	ldw	r4,-8(fp)
  800590:	01400284 	movi	r5,10
  800594:	08027840 	call	802784 <__divsi3>
  800598:	1009883a 	mov	r4,r2
  80059c:	01400284 	movi	r5,10
  8005a0:	08028540 	call	802854 <__mulsi3>
  8005a4:	1007883a 	mov	r3,r2
  8005a8:	e0bffe17 	ldw	r2,-8(fp)
  8005ac:	10c9c83a 	sub	r4,r2,r3
  8005b0:	08004dc0 	call	8004dc <int2seven>
  8005b4:	e0bffc45 	stb	r2,-15(fp)

	out = int2seven(0) << 21 | out_sign << 14 | out_high << 7 | out_low;
  8005b8:	0009883a 	mov	r4,zero
  8005bc:	08004dc0 	call	8004dc <int2seven>
  8005c0:	1006957a 	slli	r3,r2,21
  8005c4:	e0bffc03 	ldbu	r2,-16(fp)
  8005c8:	100493ba 	slli	r2,r2,14
  8005cc:	1886b03a 	or	r3,r3,r2
  8005d0:	e0bffc83 	ldbu	r2,-14(fp)
  8005d4:	100491fa 	slli	r2,r2,7
  8005d8:	1886b03a 	or	r3,r3,r2
  8005dc:	e0bffc43 	ldbu	r2,-15(fp)
  8005e0:	1884b03a 	or	r2,r3,r2
  8005e4:	e0bffd15 	stw	r2,-12(fp)
	IOWR_ALTERA_AVALON_PIO_DATA(DE2_PIO_HEX_LOW28_BASE, out);
  8005e8:	00c04074 	movhi	r3,257
  8005ec:	18c43004 	addi	r3,r3,4288
  8005f0:	e0bffd17 	ldw	r2,-12(fp)
  8005f4:	18800035 	stwio	r2,0(r3)
}
  8005f8:	e037883a 	mov	sp,fp
  8005fc:	dfc00117 	ldw	ra,4(sp)
  800600:	df000017 	ldw	fp,0(sp)
  800604:	dec00204 	addi	sp,sp,8
  800608:	f800283a 	ret

0080060c <show_target_velocity>:

/*
 * shows the target velocity on the seven segment display (HEX5, HEX4)
 * when the cruise control is activated (0 otherwise)
 */
void show_target_velocity(INT8U target_vel) {
  80060c:	defffb04 	addi	sp,sp,-20
  800610:	dfc00415 	stw	ra,16(sp)
  800614:	df000315 	stw	fp,12(sp)
  800618:	dc000215 	stw	r16,8(sp)
  80061c:	df000204 	addi	fp,sp,8
  800620:	e13fff05 	stb	r4,-4(fp)
	INT16U targetVelocityHex;
	INT8U targetDecimalHigh, targetDecimalLow;

	targetDecimalHigh = target_vel / 10;
  800624:	e13fff03 	ldbu	r4,-4(fp)
  800628:	01400284 	movi	r5,10
  80062c:	08028440 	call	802844 <__udivsi3>
  800630:	e0bffe45 	stb	r2,-7(fp)
	targetDecimalLow = target_vel - 10 * targetDecimalHigh;
  800634:	e13ffe43 	ldbu	r4,-7(fp)
  800638:	01400284 	movi	r5,10
  80063c:	08028540 	call	802854 <__mulsi3>
  800640:	1007883a 	mov	r3,r2
  800644:	e0bfff03 	ldbu	r2,-4(fp)
  800648:	10c5c83a 	sub	r2,r2,r3
  80064c:	e0bffe05 	stb	r2,-8(fp)
	targetVelocityHex = (int2seven(targetDecimalHigh) << 7)
  800650:	e13ffe43 	ldbu	r4,-7(fp)
  800654:	08004dc0 	call	8004dc <int2seven>
  800658:	100491fa 	slli	r2,r2,7
  80065c:	1021883a 	mov	r16,r2
  800660:	e13ffe03 	ldbu	r4,-8(fp)
  800664:	08004dc0 	call	8004dc <int2seven>
  800668:	8085883a 	add	r2,r16,r2
  80066c:	e0bffe8d 	sth	r2,-6(fp)
			+ (int2seven(targetDecimalLow));

	IOWR_ALTERA_AVALON_PIO_DATA(DE2_PIO_HEX_HIGH28_BASE, targetVelocityHex);
  800670:	e0fffe8b 	ldhu	r3,-6(fp)
  800674:	00804074 	movhi	r2,257
  800678:	10843404 	addi	r2,r2,4304
  80067c:	10c00035 	stwio	r3,0(r2)
}
  800680:	e037883a 	mov	sp,fp
  800684:	dfc00217 	ldw	ra,8(sp)
  800688:	df000117 	ldw	fp,4(sp)
  80068c:	dc000017 	ldw	r16,0(sp)
  800690:	dec00304 	addi	sp,sp,12
  800694:	f800283a 	ret

00800698 <show_position>:
 * LEDR15: [800m, 1200m)
 * LEDR14: [1200m, 1600m)
 * LEDR13: [1600m, 2000m)
 * LEDR12: [2000m, 2400m]
 */
void show_position(INT16U position) {
  800698:	defffb04 	addi	sp,sp,-20
  80069c:	dfc00415 	stw	ra,16(sp)
  8006a0:	df000315 	stw	fp,12(sp)
  8006a4:	df000304 	addi	fp,sp,12
  8006a8:	e13fff0d 	sth	r4,-4(fp)
	int positionLEDs = 1 << (17 - (position / 4000));
  8006ac:	e13fff0b 	ldhu	r4,-4(fp)
  8006b0:	0143e804 	movi	r5,4000
  8006b4:	08028440 	call	802844 <__udivsi3>
  8006b8:	10ffffcc 	andi	r3,r2,65535
  8006bc:	00800444 	movi	r2,17
  8006c0:	10c7c83a 	sub	r3,r2,r3
  8006c4:	00800044 	movi	r2,1
  8006c8:	10c4983a 	sll	r2,r2,r3
  8006cc:	e0bffe15 	stw	r2,-8(fp)
	int currentLEDs = IORD_ALTERA_AVALON_PIO_DATA(DE2_PIO_REDLED18_BASE);
  8006d0:	00804074 	movhi	r2,257
  8006d4:	10843c04 	addi	r2,r2,4336
  8006d8:	10800037 	ldwio	r2,0(r2)
  8006dc:	e0bffd15 	stw	r2,-12(fp)
	currentLEDs = currentLEDs & ~(0x3F << 12); 					//do not overwrite the other switches' LEDs
  8006e0:	e0fffd17 	ldw	r3,-12(fp)
  8006e4:	00bfff34 	movhi	r2,65532
  8006e8:	1083ffc4 	addi	r2,r2,4095
  8006ec:	1884703a 	and	r2,r3,r2
  8006f0:	e0bffd15 	stw	r2,-12(fp)
	IOWR_ALTERA_AVALON_PIO_DATA( DE2_PIO_REDLED18_BASE,
  8006f4:	e0fffd17 	ldw	r3,-12(fp)
  8006f8:	e0bffe17 	ldw	r2,-8(fp)
  8006fc:	1886b03a 	or	r3,r3,r2
  800700:	00804074 	movhi	r2,257
  800704:	10843c04 	addi	r2,r2,4336
  800708:	10c00035 	stwio	r3,0(r2)
			currentLEDs | positionLEDs);
}
  80070c:	e037883a 	mov	sp,fp
  800710:	dfc00117 	ldw	ra,4(sp)
  800714:	df000017 	ldw	fp,0(sp)
  800718:	dec00204 	addi	sp,sp,8
  80071c:	f800283a 	ret

00800720 <adjust_position>:
/*
 * The function 'adjust_position()' adjusts the position depending on the
 * acceleration and velocity.
 */
INT16U adjust_position(INT16U position, INT16S velocity, INT8S acceleration,
		INT16U time_interval) {
  800720:	defff704 	addi	sp,sp,-36
  800724:	dfc00815 	stw	ra,32(sp)
  800728:	df000715 	stw	fp,28(sp)
  80072c:	dc400615 	stw	r17,24(sp)
  800730:	dc000515 	stw	r16,20(sp)
  800734:	df000504 	addi	fp,sp,20
  800738:	e13ffc0d 	sth	r4,-16(fp)
  80073c:	e17ffd0d 	sth	r5,-12(fp)
  800740:	e1bffe05 	stb	r6,-8(fp)
  800744:	e1ffff0d 	sth	r7,-4(fp)
	INT16S new_position = position + velocity * time_interval / 1000
			+ acceleration / 2 * (time_interval / 1000)
					* (time_interval / 1000);
  800748:	e13ffd0f 	ldh	r4,-12(fp)
  80074c:	e17fff0b 	ldhu	r5,-4(fp)
  800750:	08028540 	call	802854 <__mulsi3>
  800754:	1009883a 	mov	r4,r2
  800758:	0140fa04 	movi	r5,1000
  80075c:	08027840 	call	802784 <__divsi3>
  800760:	1007883a 	mov	r3,r2
  800764:	e0bffc0b 	ldhu	r2,-16(fp)
  800768:	1885883a 	add	r2,r3,r2
  80076c:	1023883a 	mov	r17,r2
  800770:	e0fffe07 	ldb	r3,-8(fp)
  800774:	1804d7fa 	srli	r2,r3,31
  800778:	10c5883a 	add	r2,r2,r3
  80077c:	1005d07a 	srai	r2,r2,1
  800780:	14003fcc 	andi	r16,r2,255
  800784:	8400201c 	xori	r16,r16,128
  800788:	843fe004 	addi	r16,r16,-128
  80078c:	e13fff0b 	ldhu	r4,-4(fp)
  800790:	0140fa04 	movi	r5,1000
  800794:	08028440 	call	802844 <__udivsi3>
  800798:	117fffcc 	andi	r5,r2,65535
  80079c:	8009883a 	mov	r4,r16
  8007a0:	08028540 	call	802854 <__mulsi3>
  8007a4:	1021883a 	mov	r16,r2
  8007a8:	e13fff0b 	ldhu	r4,-4(fp)
  8007ac:	0140fa04 	movi	r5,1000
  8007b0:	08028440 	call	802844 <__udivsi3>
  8007b4:	117fffcc 	andi	r5,r2,65535
  8007b8:	8009883a 	mov	r4,r16
  8007bc:	08028540 	call	802854 <__mulsi3>
  8007c0:	8885883a 	add	r2,r17,r2
  8007c4:	e0bffb0d 	sth	r2,-20(fp)

	if (new_position > 24000) {
  8007c8:	e0bffb0f 	ldh	r2,-20(fp)
  8007cc:	10977050 	cmplti	r2,r2,24001
  8007d0:	1000041e 	bne	r2,zero,8007e4 <adjust_position+0xc4>
		new_position -= 24000;
  8007d4:	e0bffb0b 	ldhu	r2,-20(fp)
  8007d8:	10a89004 	addi	r2,r2,-24000
  8007dc:	e0bffb0d 	sth	r2,-20(fp)
  8007e0:	00000606 	br	8007fc <adjust_position+0xdc>
	} else if (new_position < 0) {
  8007e4:	e0bffb0f 	ldh	r2,-20(fp)
  8007e8:	1004403a 	cmpge	r2,r2,zero
  8007ec:	1000031e 	bne	r2,zero,8007fc <adjust_position+0xdc>
		new_position += 24000;
  8007f0:	e0bffb0b 	ldhu	r2,-20(fp)
  8007f4:	10977004 	addi	r2,r2,24000
  8007f8:	e0bffb0d 	sth	r2,-20(fp)
	}

	show_position(new_position);
  8007fc:	e0bffb0b 	ldhu	r2,-20(fp)
  800800:	113fffcc 	andi	r4,r2,65535
  800804:	08006980 	call	800698 <show_position>
	return new_position;
  800808:	e0bffb0b 	ldhu	r2,-20(fp)
  80080c:	10bfffcc 	andi	r2,r2,65535
}
  800810:	e037883a 	mov	sp,fp
  800814:	dfc00317 	ldw	ra,12(sp)
  800818:	df000217 	ldw	fp,8(sp)
  80081c:	dc400117 	ldw	r17,4(sp)
  800820:	dc000017 	ldw	r16,0(sp)
  800824:	dec00404 	addi	sp,sp,16
  800828:	f800283a 	ret

0080082c <adjust_velocity>:
/*
 * The function 'adjust_velocity()' adjusts the velocity depending on the
 * acceleration.
 */
INT16S adjust_velocity(INT16S velocity, INT8S acceleration,
		enum active brake_pedal, INT16U time_interval) {
  80082c:	defff704 	addi	sp,sp,-36
  800830:	dfc00815 	stw	ra,32(sp)
  800834:	df000715 	stw	fp,28(sp)
  800838:	dc400615 	stw	r17,24(sp)
  80083c:	dc000515 	stw	r16,20(sp)
  800840:	df000504 	addi	fp,sp,20
  800844:	e1bffe15 	stw	r6,-8(fp)
  800848:	e13ffc0d 	sth	r4,-16(fp)
  80084c:	e17ffd05 	stb	r5,-12(fp)
  800850:	e1ffff0d 	sth	r7,-4(fp)
	INT16S new_velocity;
	INT8U brake_retardation = 200;
  800854:	00bff204 	movi	r2,-56
  800858:	e0bffb05 	stb	r2,-20(fp)

	if (brake_pedal == off)
  80085c:	e0bffe17 	ldw	r2,-8(fp)
  800860:	10800058 	cmpnei	r2,r2,1
  800864:	1000251e 	bne	r2,zero,8008fc <adjust_velocity+0xd0>
		new_velocity = velocity
  800868:	e13ffc0f 	ldh	r4,-16(fp)
  80086c:	08025000 	call	802500 <__floatsidf>
  800870:	1021883a 	mov	r16,r2
  800874:	1823883a 	mov	r17,r3
  800878:	e13ffd07 	ldb	r4,-12(fp)
  80087c:	e17fff0b 	ldhu	r5,-4(fp)
  800880:	08028540 	call	802854 <__mulsi3>
  800884:	1009883a 	mov	r4,r2
  800888:	0801cb80 	call	801cb8 <__floatsisf>
  80088c:	1009883a 	mov	r4,r2
  800890:	0801d500 	call	801d50 <__extendsfdf2>
  800894:	100b883a 	mov	r5,r2
  800898:	180d883a 	mov	r6,r3
  80089c:	2809883a 	mov	r4,r5
  8008a0:	300b883a 	mov	r5,r6
  8008a4:	000d883a 	mov	r6,zero
  8008a8:	01d023f4 	movhi	r7,16527
  8008ac:	39d00004 	addi	r7,r7,16384
  8008b0:	08022a80 	call	8022a8 <__divdf3>
  8008b4:	1009883a 	mov	r4,r2
  8008b8:	180b883a 	mov	r5,r3
  8008bc:	2005883a 	mov	r2,r4
  8008c0:	2807883a 	mov	r3,r5
  8008c4:	8009883a 	mov	r4,r16
  8008c8:	880b883a 	mov	r5,r17
  8008cc:	100d883a 	mov	r6,r2
  8008d0:	180f883a 	mov	r7,r3
  8008d4:	08022340 	call	802234 <__adddf3>
  8008d8:	1009883a 	mov	r4,r2
  8008dc:	180b883a 	mov	r5,r3
  8008e0:	2005883a 	mov	r2,r4
  8008e4:	2807883a 	mov	r3,r5
  8008e8:	1009883a 	mov	r4,r2
  8008ec:	180b883a 	mov	r5,r3
  8008f0:	08025f80 	call	8025f8 <__fixdfsi>
  8008f4:	e0bffb8d 	sth	r2,-18(fp)
  8008f8:	00001406 	br	80094c <adjust_velocity+0x120>
				+ (float) (acceleration * time_interval) / 1000.0;
	else {
		if (brake_retardation * time_interval / 1000 > velocity)
  8008fc:	e13ffb03 	ldbu	r4,-20(fp)
  800900:	e17fff0b 	ldhu	r5,-4(fp)
  800904:	08028540 	call	802854 <__mulsi3>
  800908:	1009883a 	mov	r4,r2
  80090c:	0140fa04 	movi	r5,1000
  800910:	08027840 	call	802784 <__divsi3>
  800914:	1007883a 	mov	r3,r2
  800918:	e0bffc0f 	ldh	r2,-16(fp)
  80091c:	10c0020e 	bge	r2,r3,800928 <adjust_velocity+0xfc>
			new_velocity = 0;
  800920:	e03ffb8d 	sth	zero,-18(fp)
  800924:	00000906 	br	80094c <adjust_velocity+0x120>
		else
			new_velocity = velocity - brake_retardation * time_interval / 1000;
  800928:	e43ffc0b 	ldhu	r16,-16(fp)
  80092c:	e13ffb03 	ldbu	r4,-20(fp)
  800930:	e17fff0b 	ldhu	r5,-4(fp)
  800934:	08028540 	call	802854 <__mulsi3>
  800938:	1009883a 	mov	r4,r2
  80093c:	0140fa04 	movi	r5,1000
  800940:	08027840 	call	802784 <__divsi3>
  800944:	8085c83a 	sub	r2,r16,r2
  800948:	e0bffb8d 	sth	r2,-18(fp)
	}

	return new_velocity;
  80094c:	e0bffb8f 	ldh	r2,-18(fp)
}
  800950:	e037883a 	mov	sp,fp
  800954:	dfc00317 	ldw	ra,12(sp)
  800958:	df000217 	ldw	fp,8(sp)
  80095c:	dc400117 	ldw	r17,4(sp)
  800960:	dc000017 	ldw	r16,0(sp)
  800964:	dec00404 	addi	sp,sp,16
  800968:	f800283a 	ret

0080096c <VehicleTask>:

/*
 * The task 'VehicleTask' updates the current velocity of the vehicle
 */
void VehicleTask(void* pdata) {
  80096c:	defff104 	addi	sp,sp,-60
  800970:	dfc00e15 	stw	ra,56(sp)
  800974:	df000d15 	stw	fp,52(sp)
  800978:	df000d04 	addi	fp,sp,52
  80097c:	e13fff15 	stw	r4,-4(fp)
	INT8U err;
	void* msg;
	INT8U* throttle;
	INT8S acceleration; /* Value between 40 and -20 (4.0 m/s^2 and -2.0 m/s^2) */
	INT8S retardation; /* Value between 20 and -10 (2.0 m/s^2 and -1.0 m/s^2) */
	INT16U position = 0; /* Value between 0 and 20000 (0.0 m and 2000.0 m)  */
  800980:	e03ffa8d 	sth	zero,-22(fp)
	INT16S velocity = 0; /* Value between -200 and 700 (-20.0 m/s amd 70.0 m/s) */
  800984:	e03ffe8d 	sth	zero,-6(fp)
	INT16S wind_factor; /* Value between -10 and 20 (2.0 m/s^2 and -1.0 m/s^2) */

	alt_printf("Vehicle task created!\n");
  800988:	01002074 	movhi	r4,129
  80098c:	21213e04 	addi	r4,r4,-31496
  800990:	0803a700 	call	803a70 <alt_printf>

	while (1) {
		err = OSMboxPost(Mbox_Velocity, (void *) &velocity);
  800994:	d1211a17 	ldw	r4,-31640(gp)
  800998:	e17ffe84 	addi	r5,fp,-6
  80099c:	0805bb40 	call	805bb4 <OSMboxPost>
  8009a0:	e0bffe05 	stb	r2,-8(fp)

		OSSemPend(SemVehicle,0,&err);
  8009a4:	d1212017 	ldw	r4,-31616(gp)
  8009a8:	e1bffe04 	addi	r6,fp,-8
  8009ac:	000b883a 	mov	r5,zero
  8009b0:	0805d580 	call	805d58 <OSSemPend>

		/* Non-blocking read of mailbox:
		 - message in mailbox: update throttle
		 - no message:         use old throttle
		 */
		msg = OSMboxPend(Mbox_Throttle, 1, &err);
  8009b4:	d1211817 	ldw	r4,-31648(gp)
  8009b8:	e1bffe04 	addi	r6,fp,-8
  8009bc:	01400044 	movi	r5,1
  8009c0:	08059700 	call	805970 <OSMboxPend>
  8009c4:	e0bffd15 	stw	r2,-12(fp)
		if (err == OS_NO_ERR)
  8009c8:	e0bffe03 	ldbu	r2,-8(fp)
  8009cc:	10803fcc 	andi	r2,r2,255
  8009d0:	1004c03a 	cmpne	r2,r2,zero
  8009d4:	1000021e 	bne	r2,zero,8009e0 <VehicleTask+0x74>
			throttle = (INT8U*) msg;
  8009d8:	e0bffd17 	ldw	r2,-12(fp)
  8009dc:	e0bffc15 	stw	r2,-16(fp)

		/* Retardation : Factor of Terrain and Wind Resistance */
		if (velocity > 0)
  8009e0:	e0bffe8b 	ldhu	r2,-6(fp)
  8009e4:	10bfffcc 	andi	r2,r2,65535
  8009e8:	10a0001c 	xori	r2,r2,32768
  8009ec:	10a00004 	addi	r2,r2,-32768
  8009f0:	10800050 	cmplti	r2,r2,1
  8009f4:	10000f1e 	bne	r2,zero,800a34 <VehicleTask+0xc8>
			wind_factor = velocity * velocity / 10000 + 1;
  8009f8:	e0bffe8b 	ldhu	r2,-6(fp)
  8009fc:	113fffcc 	andi	r4,r2,65535
  800a00:	2120001c 	xori	r4,r4,32768
  800a04:	21200004 	addi	r4,r4,-32768
  800a08:	e0bffe8b 	ldhu	r2,-6(fp)
  800a0c:	117fffcc 	andi	r5,r2,65535
  800a10:	2960001c 	xori	r5,r5,32768
  800a14:	29600004 	addi	r5,r5,-32768
  800a18:	08028540 	call	802854 <__mulsi3>
  800a1c:	1009883a 	mov	r4,r2
  800a20:	0149c404 	movi	r5,10000
  800a24:	08027840 	call	802784 <__divsi3>
  800a28:	10800044 	addi	r2,r2,1
  800a2c:	e0bffa0d 	sth	r2,-24(fp)
  800a30:	00000f06 	br	800a70 <VehicleTask+0x104>
		else
			wind_factor = (-1) * velocity * velocity / 10000 + 1;
  800a34:	e0bffe8b 	ldhu	r2,-6(fp)
  800a38:	10bfffcc 	andi	r2,r2,65535
  800a3c:	10a0001c 	xori	r2,r2,32768
  800a40:	10a00004 	addi	r2,r2,-32768
  800a44:	0089c83a 	sub	r4,zero,r2
  800a48:	e0bffe8b 	ldhu	r2,-6(fp)
  800a4c:	117fffcc 	andi	r5,r2,65535
  800a50:	2960001c 	xori	r5,r5,32768
  800a54:	29600004 	addi	r5,r5,-32768
  800a58:	08028540 	call	802854 <__mulsi3>
  800a5c:	1009883a 	mov	r4,r2
  800a60:	0149c404 	movi	r5,10000
  800a64:	08027840 	call	802784 <__divsi3>
  800a68:	10800044 	addi	r2,r2,1
  800a6c:	e0bffa0d 	sth	r2,-24(fp)

		if (position < 4000)
  800a70:	e0bffa8b 	ldhu	r2,-22(fp)
  800a74:	1083e828 	cmpgeui	r2,r2,4000
  800a78:	1000031e 	bne	r2,zero,800a88 <VehicleTask+0x11c>
			retardation = wind_factor; // even ground
  800a7c:	e0bffa0b 	ldhu	r2,-24(fp)
  800a80:	e0bffb05 	stb	r2,-20(fp)
  800a84:	00001e06 	br	800b00 <VehicleTask+0x194>
		else if (position < 8000)
  800a88:	e0bffa8b 	ldhu	r2,-22(fp)
  800a8c:	1087d028 	cmpgeui	r2,r2,8000
  800a90:	1000041e 	bne	r2,zero,800aa4 <VehicleTask+0x138>
			retardation = wind_factor + 15; // traveling uphill
  800a94:	e0bffa0b 	ldhu	r2,-24(fp)
  800a98:	108003c4 	addi	r2,r2,15
  800a9c:	e0bffb05 	stb	r2,-20(fp)
  800aa0:	00001706 	br	800b00 <VehicleTask+0x194>
		else if (position < 12000)
  800aa4:	e0bffa8b 	ldhu	r2,-22(fp)
  800aa8:	108bb828 	cmpgeui	r2,r2,12000
  800aac:	1000041e 	bne	r2,zero,800ac0 <VehicleTask+0x154>
			retardation = wind_factor + 25; // traveling steep uphill
  800ab0:	e0bffa0b 	ldhu	r2,-24(fp)
  800ab4:	10800644 	addi	r2,r2,25
  800ab8:	e0bffb05 	stb	r2,-20(fp)
  800abc:	00001006 	br	800b00 <VehicleTask+0x194>
		else if (position < 16000)
  800ac0:	e0bffa8b 	ldhu	r2,-22(fp)
  800ac4:	108fa028 	cmpgeui	r2,r2,16000
  800ac8:	1000031e 	bne	r2,zero,800ad8 <VehicleTask+0x16c>
			retardation = wind_factor; // even ground
  800acc:	e0bffa0b 	ldhu	r2,-24(fp)
  800ad0:	e0bffb05 	stb	r2,-20(fp)
  800ad4:	00000a06 	br	800b00 <VehicleTask+0x194>
		else if (position < 20000)
  800ad8:	e0bffa8b 	ldhu	r2,-22(fp)
  800adc:	10938828 	cmpgeui	r2,r2,20000
  800ae0:	1000041e 	bne	r2,zero,800af4 <VehicleTask+0x188>
			retardation = wind_factor - 10; //traveling steep downhill
  800ae4:	e0bffa0b 	ldhu	r2,-24(fp)
  800ae8:	10bffd84 	addi	r2,r2,-10
  800aec:	e0bffb05 	stb	r2,-20(fp)
  800af0:	00000306 	br	800b00 <VehicleTask+0x194>
		else
			retardation = wind_factor - 5; // traveling downhill
  800af4:	e0bffa0b 	ldhu	r2,-24(fp)
  800af8:	10bffec4 	addi	r2,r2,-5
  800afc:	e0bffb05 	stb	r2,-20(fp)

		acceleration = *throttle / 2 - retardation;
  800b00:	e0bffc17 	ldw	r2,-16(fp)
  800b04:	10800003 	ldbu	r2,0(r2)
  800b08:	10803fcc 	andi	r2,r2,255
  800b0c:	1004d07a 	srli	r2,r2,1
  800b10:	1007883a 	mov	r3,r2
  800b14:	e0bffb03 	ldbu	r2,-20(fp)
  800b18:	1885c83a 	sub	r2,r3,r2
  800b1c:	e0bffb45 	stb	r2,-19(fp)
		position = adjust_position(position, velocity, acceleration, 300);
  800b20:	e13ffa8b 	ldhu	r4,-22(fp)
  800b24:	e0bffe8b 	ldhu	r2,-6(fp)
  800b28:	117fffcc 	andi	r5,r2,65535
  800b2c:	2960001c 	xori	r5,r5,32768
  800b30:	29600004 	addi	r5,r5,-32768
  800b34:	e1bffb47 	ldb	r6,-19(fp)
  800b38:	01c04b04 	movi	r7,300
  800b3c:	08007200 	call	800720 <adjust_position>
  800b40:	e0bffa8d 	sth	r2,-22(fp)
		velocity = adjust_velocity(velocity, acceleration, brake_pedal, 300);
  800b44:	e0bffe8b 	ldhu	r2,-6(fp)
  800b48:	113fffcc 	andi	r4,r2,65535
  800b4c:	2120001c 	xori	r4,r4,32768
  800b50:	21200004 	addi	r4,r4,-32768
  800b54:	e17ffb47 	ldb	r5,-19(fp)
  800b58:	d1a00117 	ldw	r6,-32764(gp)
  800b5c:	01c04b04 	movi	r7,300
  800b60:	080082c0 	call	80082c <adjust_velocity>
  800b64:	e0bffe8d 	sth	r2,-6(fp)

		/*decades, units and tenth parts of the hexadecimal number (we want to convert to decimal)*/
		int m, c, d, u, t;

		t =  position         % 10,
  800b68:	e13ffa8b 	ldhu	r4,-22(fp)
  800b6c:	01400284 	movi	r5,10
  800b70:	080284c0 	call	80284c <__umodsi3>
  800b74:	10bfffcc 	andi	r2,r2,65535
  800b78:	e0bff515 	stw	r2,-44(fp)
  800b7c:	e13ffa8b 	ldhu	r4,-22(fp)
  800b80:	01400284 	movi	r5,10
  800b84:	08028440 	call	802844 <__udivsi3>
  800b88:	113fffcc 	andi	r4,r2,65535
  800b8c:	01400284 	movi	r5,10
  800b90:	080284c0 	call	80284c <__umodsi3>
  800b94:	10bfffcc 	andi	r2,r2,65535
  800b98:	e0bff615 	stw	r2,-40(fp)
  800b9c:	e13ffa8b 	ldhu	r4,-22(fp)
  800ba0:	01401904 	movi	r5,100
  800ba4:	08028440 	call	802844 <__udivsi3>
  800ba8:	113fffcc 	andi	r4,r2,65535
  800bac:	01400284 	movi	r5,10
  800bb0:	080284c0 	call	80284c <__umodsi3>
  800bb4:	10bfffcc 	andi	r2,r2,65535
  800bb8:	e0bff715 	stw	r2,-36(fp)
  800bbc:	e13ffa8b 	ldhu	r4,-22(fp)
  800bc0:	0140fa04 	movi	r5,1000
  800bc4:	08028440 	call	802844 <__udivsi3>
  800bc8:	113fffcc 	andi	r4,r2,65535
  800bcc:	01400284 	movi	r5,10
  800bd0:	080284c0 	call	80284c <__umodsi3>
  800bd4:	10bfffcc 	andi	r2,r2,65535
  800bd8:	e0bff815 	stw	r2,-32(fp)
  800bdc:	e13ffa8b 	ldhu	r4,-22(fp)
  800be0:	0149c404 	movi	r5,10000
  800be4:	08028440 	call	802844 <__udivsi3>
  800be8:	113fffcc 	andi	r4,r2,65535
  800bec:	01400284 	movi	r5,10
  800bf0:	080284c0 	call	80284c <__umodsi3>
  800bf4:	10bfffcc 	andi	r2,r2,65535
  800bf8:	e0bff915 	stw	r2,-28(fp)
		u = (position / 10)   % 10,
		d = (position / 100)  % 10,
		c = (position / 1000) % 10,
		m = (position / 10000)% 10;
		alt_printf("Position: %x%x%x%x.%x m\n", m, c, d, u, t);
  800bfc:	e0bff617 	ldw	r2,-40(fp)
  800c00:	d8800015 	stw	r2,0(sp)
  800c04:	e0bff517 	ldw	r2,-44(fp)
  800c08:	d8800115 	stw	r2,4(sp)
  800c0c:	01002074 	movhi	r4,129
  800c10:	21214404 	addi	r4,r4,-31472
  800c14:	e17ff917 	ldw	r5,-28(fp)
  800c18:	e1bff817 	ldw	r6,-32(fp)
  800c1c:	e1fff717 	ldw	r7,-36(fp)
  800c20:	0803a700 	call	803a70 <alt_printf>

		if(velocity < 0) {
  800c24:	e0bffe8b 	ldhu	r2,-6(fp)
  800c28:	10bfffcc 	andi	r2,r2,65535
  800c2c:	10a0001c 	xori	r2,r2,32768
  800c30:	10a00004 	addi	r2,r2,-32768
  800c34:	1004403a 	cmpge	r2,r2,zero
  800c38:	10005c1e 	bne	r2,zero,800dac <VehicleTask+0x440>
			velocity *= -1;
  800c3c:	e0bffe8b 	ldhu	r2,-6(fp)
  800c40:	0085c83a 	sub	r2,zero,r2
  800c44:	e0bffe8d 	sth	r2,-6(fp)
			t = (int) velocity           %10,
  800c48:	e0bffe8b 	ldhu	r2,-6(fp)
  800c4c:	113fffcc 	andi	r4,r2,65535
  800c50:	2120001c 	xori	r4,r4,32768
  800c54:	21200004 	addi	r4,r4,-32768
  800c58:	01400284 	movi	r5,10
  800c5c:	08027e40 	call	8027e4 <__modsi3>
  800c60:	10bfffcc 	andi	r2,r2,65535
  800c64:	10a0001c 	xori	r2,r2,32768
  800c68:	10a00004 	addi	r2,r2,-32768
  800c6c:	e0bff515 	stw	r2,-44(fp)
  800c70:	e0bffe8b 	ldhu	r2,-6(fp)
  800c74:	113fffcc 	andi	r4,r2,65535
  800c78:	2120001c 	xori	r4,r4,32768
  800c7c:	21200004 	addi	r4,r4,-32768
  800c80:	08025000 	call	802500 <__floatsidf>
  800c84:	100b883a 	mov	r5,r2
  800c88:	180d883a 	mov	r6,r3
  800c8c:	2809883a 	mov	r4,r5
  800c90:	300b883a 	mov	r5,r6
  800c94:	000d883a 	mov	r6,zero
  800c98:	01d00934 	movhi	r7,16420
  800c9c:	08022a80 	call	8022a8 <__divdf3>
  800ca0:	1009883a 	mov	r4,r2
  800ca4:	180b883a 	mov	r5,r3
  800ca8:	2005883a 	mov	r2,r4
  800cac:	2807883a 	mov	r3,r5
  800cb0:	1009883a 	mov	r4,r2
  800cb4:	180b883a 	mov	r5,r3
  800cb8:	08025f80 	call	8025f8 <__fixdfsi>
  800cbc:	1009883a 	mov	r4,r2
  800cc0:	01400284 	movi	r5,10
  800cc4:	08027e40 	call	8027e4 <__modsi3>
  800cc8:	e0bff615 	stw	r2,-40(fp)
  800ccc:	e0bffe8b 	ldhu	r2,-6(fp)
  800cd0:	113fffcc 	andi	r4,r2,65535
  800cd4:	2120001c 	xori	r4,r4,32768
  800cd8:	21200004 	addi	r4,r4,-32768
  800cdc:	08025000 	call	802500 <__floatsidf>
  800ce0:	100b883a 	mov	r5,r2
  800ce4:	180d883a 	mov	r6,r3
  800ce8:	2809883a 	mov	r4,r5
  800cec:	300b883a 	mov	r5,r6
  800cf0:	000d883a 	mov	r6,zero
  800cf4:	01d01674 	movhi	r7,16473
  800cf8:	08022a80 	call	8022a8 <__divdf3>
  800cfc:	1009883a 	mov	r4,r2
  800d00:	180b883a 	mov	r5,r3
  800d04:	2005883a 	mov	r2,r4
  800d08:	2807883a 	mov	r3,r5
  800d0c:	1009883a 	mov	r4,r2
  800d10:	180b883a 	mov	r5,r3
  800d14:	08025f80 	call	8025f8 <__fixdfsi>
  800d18:	1009883a 	mov	r4,r2
  800d1c:	01400284 	movi	r5,10
  800d20:	08027e40 	call	8027e4 <__modsi3>
  800d24:	e0bff715 	stw	r2,-36(fp)
  800d28:	e0bffe8b 	ldhu	r2,-6(fp)
  800d2c:	113fffcc 	andi	r4,r2,65535
  800d30:	2120001c 	xori	r4,r4,32768
  800d34:	21200004 	addi	r4,r4,-32768
  800d38:	08025000 	call	802500 <__floatsidf>
  800d3c:	100b883a 	mov	r5,r2
  800d40:	180d883a 	mov	r6,r3
  800d44:	2809883a 	mov	r4,r5
  800d48:	300b883a 	mov	r5,r6
  800d4c:	000d883a 	mov	r6,zero
  800d50:	01d023f4 	movhi	r7,16527
  800d54:	39d00004 	addi	r7,r7,16384
  800d58:	08022a80 	call	8022a8 <__divdf3>
  800d5c:	1009883a 	mov	r4,r2
  800d60:	180b883a 	mov	r5,r3
  800d64:	2005883a 	mov	r2,r4
  800d68:	2807883a 	mov	r3,r5
  800d6c:	1009883a 	mov	r4,r2
  800d70:	180b883a 	mov	r5,r3
  800d74:	08025f80 	call	8025f8 <__fixdfsi>
  800d78:	1009883a 	mov	r4,r2
  800d7c:	01400284 	movi	r5,10
  800d80:	08027e40 	call	8027e4 <__modsi3>
  800d84:	e0bff815 	stw	r2,-32(fp)
			u = (int)(velocity / 10.0)   %10,
			d = (int)(velocity / 100.0)  %10,
			c = (int)(velocity / 1000.0) %10;
			alt_printf("Velocity: -%x%x%x.%x m/s\n", c, d, u, t);
  800d88:	e0bff517 	ldw	r2,-44(fp)
  800d8c:	d8800015 	stw	r2,0(sp)
  800d90:	01002074 	movhi	r4,129
  800d94:	21214b04 	addi	r4,r4,-31444
  800d98:	e17ff817 	ldw	r5,-32(fp)
  800d9c:	e1bff717 	ldw	r6,-36(fp)
  800da0:	e1fff617 	ldw	r7,-40(fp)
  800da4:	0803a700 	call	803a70 <alt_printf>
  800da8:	00005806 	br	800f0c <VehicleTask+0x5a0>
		}
		else {
			t = (int) velocity           %10,
  800dac:	e0bffe8b 	ldhu	r2,-6(fp)
  800db0:	113fffcc 	andi	r4,r2,65535
  800db4:	2120001c 	xori	r4,r4,32768
  800db8:	21200004 	addi	r4,r4,-32768
  800dbc:	01400284 	movi	r5,10
  800dc0:	08027e40 	call	8027e4 <__modsi3>
  800dc4:	10bfffcc 	andi	r2,r2,65535
  800dc8:	10a0001c 	xori	r2,r2,32768
  800dcc:	10a00004 	addi	r2,r2,-32768
  800dd0:	e0bff515 	stw	r2,-44(fp)
  800dd4:	e0bffe8b 	ldhu	r2,-6(fp)
  800dd8:	113fffcc 	andi	r4,r2,65535
  800ddc:	2120001c 	xori	r4,r4,32768
  800de0:	21200004 	addi	r4,r4,-32768
  800de4:	08025000 	call	802500 <__floatsidf>
  800de8:	100b883a 	mov	r5,r2
  800dec:	180d883a 	mov	r6,r3
  800df0:	2809883a 	mov	r4,r5
  800df4:	300b883a 	mov	r5,r6
  800df8:	000d883a 	mov	r6,zero
  800dfc:	01d00934 	movhi	r7,16420
  800e00:	08022a80 	call	8022a8 <__divdf3>
  800e04:	1009883a 	mov	r4,r2
  800e08:	180b883a 	mov	r5,r3
  800e0c:	2005883a 	mov	r2,r4
  800e10:	2807883a 	mov	r3,r5
  800e14:	1009883a 	mov	r4,r2
  800e18:	180b883a 	mov	r5,r3
  800e1c:	08025f80 	call	8025f8 <__fixdfsi>
  800e20:	1009883a 	mov	r4,r2
  800e24:	01400284 	movi	r5,10
  800e28:	08027e40 	call	8027e4 <__modsi3>
  800e2c:	e0bff615 	stw	r2,-40(fp)
  800e30:	e0bffe8b 	ldhu	r2,-6(fp)
  800e34:	113fffcc 	andi	r4,r2,65535
  800e38:	2120001c 	xori	r4,r4,32768
  800e3c:	21200004 	addi	r4,r4,-32768
  800e40:	08025000 	call	802500 <__floatsidf>
  800e44:	100b883a 	mov	r5,r2
  800e48:	180d883a 	mov	r6,r3
  800e4c:	2809883a 	mov	r4,r5
  800e50:	300b883a 	mov	r5,r6
  800e54:	000d883a 	mov	r6,zero
  800e58:	01d01674 	movhi	r7,16473
  800e5c:	08022a80 	call	8022a8 <__divdf3>
  800e60:	1009883a 	mov	r4,r2
  800e64:	180b883a 	mov	r5,r3
  800e68:	2005883a 	mov	r2,r4
  800e6c:	2807883a 	mov	r3,r5
  800e70:	1009883a 	mov	r4,r2
  800e74:	180b883a 	mov	r5,r3
  800e78:	08025f80 	call	8025f8 <__fixdfsi>
  800e7c:	1009883a 	mov	r4,r2
  800e80:	01400284 	movi	r5,10
  800e84:	08027e40 	call	8027e4 <__modsi3>
  800e88:	e0bff715 	stw	r2,-36(fp)
  800e8c:	e0bffe8b 	ldhu	r2,-6(fp)
  800e90:	113fffcc 	andi	r4,r2,65535
  800e94:	2120001c 	xori	r4,r4,32768
  800e98:	21200004 	addi	r4,r4,-32768
  800e9c:	08025000 	call	802500 <__floatsidf>
  800ea0:	100b883a 	mov	r5,r2
  800ea4:	180d883a 	mov	r6,r3
  800ea8:	2809883a 	mov	r4,r5
  800eac:	300b883a 	mov	r5,r6
  800eb0:	000d883a 	mov	r6,zero
  800eb4:	01d023f4 	movhi	r7,16527
  800eb8:	39d00004 	addi	r7,r7,16384
  800ebc:	08022a80 	call	8022a8 <__divdf3>
  800ec0:	1009883a 	mov	r4,r2
  800ec4:	180b883a 	mov	r5,r3
  800ec8:	2005883a 	mov	r2,r4
  800ecc:	2807883a 	mov	r3,r5
  800ed0:	1009883a 	mov	r4,r2
  800ed4:	180b883a 	mov	r5,r3
  800ed8:	08025f80 	call	8025f8 <__fixdfsi>
  800edc:	1009883a 	mov	r4,r2
  800ee0:	01400284 	movi	r5,10
  800ee4:	08027e40 	call	8027e4 <__modsi3>
  800ee8:	e0bff815 	stw	r2,-32(fp)
			u = (int)(velocity / 10.0)   %10,
			d = (int)(velocity / 100.0)  %10,
			c = (int)(velocity / 1000.0) %10;
			alt_printf("Velocity: %x%x%x.%x m/s\n", c, d, u, t);
  800eec:	e0bff517 	ldw	r2,-44(fp)
  800ef0:	d8800015 	stw	r2,0(sp)
  800ef4:	01002074 	movhi	r4,129
  800ef8:	21215204 	addi	r4,r4,-31416
  800efc:	e17ff817 	ldw	r5,-32(fp)
  800f00:	e1bff717 	ldw	r6,-36(fp)
  800f04:	e1fff617 	ldw	r7,-40(fp)
  800f08:	0803a700 	call	803a70 <alt_printf>
		}

		alt_printf("Throttle: %x V\n", *throttle / 10);
  800f0c:	e0bffc17 	ldw	r2,-16(fp)
  800f10:	10800003 	ldbu	r2,0(r2)
  800f14:	11003fcc 	andi	r4,r2,255
  800f18:	01400284 	movi	r5,10
  800f1c:	08028440 	call	802844 <__udivsi3>
  800f20:	11403fcc 	andi	r5,r2,255
  800f24:	01002074 	movhi	r4,129
  800f28:	21215904 	addi	r4,r4,-31388
  800f2c:	0803a700 	call	803a70 <alt_printf>
		show_velocity_on_sevenseg((INT8S) (velocity / 10));
  800f30:	e0bffe8b 	ldhu	r2,-6(fp)
  800f34:	113fffcc 	andi	r4,r2,65535
  800f38:	2120001c 	xori	r4,r4,32768
  800f3c:	21200004 	addi	r4,r4,-32768
  800f40:	01400284 	movi	r5,10
  800f44:	08027840 	call	802784 <__divsi3>
  800f48:	11003fcc 	andi	r4,r2,255
  800f4c:	2100201c 	xori	r4,r4,128
  800f50:	213fe004 	addi	r4,r4,-128
  800f54:	08005180 	call	800518 <show_velocity_on_sevenseg>
	}
  800f58:	003e8e06 	br	800994 <VehicleTask+0x28>

00800f5c <ControlTask>:
/*
 * The task 'ControlTask' is the main task of the application. It reacts
 * on sensors and generates responses.
 */

void ControlTask(void* pdata) {
  800f5c:	defff704 	addi	sp,sp,-36
  800f60:	dfc00815 	stw	ra,32(sp)
  800f64:	df000715 	stw	fp,28(sp)
  800f68:	dc000615 	stw	r16,24(sp)
  800f6c:	df000604 	addi	fp,sp,24
  800f70:	e13fff15 	stw	r4,-4(fp)
	INT8U err;
	INT8U throttle = 0; /* Value between 0 and 80, which is interpreted as between 0.0V and 8.0V */
  800f74:	e03ffe45 	stb	zero,-7(fp)
	void* msg;
	INT16S* current_velocity;
	INT8U target_velocity;
	INT16U tempo;

	alt_printf("Control Task created!\n");
  800f78:	01002074 	movhi	r4,129
  800f7c:	21215d04 	addi	r4,r4,-31372
  800f80:	0803a700 	call	803a70 <alt_printf>

	while (1) {
		msg = OSMboxPend(Mbox_Velocity, 0, &err);
  800f84:	d1211a17 	ldw	r4,-31640(gp)
  800f88:	e1bffe04 	addi	r6,fp,-8
  800f8c:	000b883a 	mov	r5,zero
  800f90:	08059700 	call	805970 <OSMboxPend>
  800f94:	e0bffd15 	stw	r2,-12(fp)
		current_velocity = (INT16S*) msg;
  800f98:	e0bffd17 	ldw	r2,-12(fp)
  800f9c:	e0bffc15 	stw	r2,-16(fp)

		if(!ENGINE && !(*current_velocity)) engine = off;
  800fa0:	d0a11503 	ldbu	r2,-31660(gp)
  800fa4:	10803fcc 	andi	r2,r2,255
  800fa8:	1004c03a 	cmpne	r2,r2,zero
  800fac:	10000a1e 	bne	r2,zero,800fd8 <ControlTask+0x7c>
  800fb0:	e0bffc17 	ldw	r2,-16(fp)
  800fb4:	1080000b 	ldhu	r2,0(r2)
  800fb8:	10bfffcc 	andi	r2,r2,65535
  800fbc:	10a0001c 	xori	r2,r2,32768
  800fc0:	10a00004 	addi	r2,r2,-32768
  800fc4:	1004c03a 	cmpne	r2,r2,zero
  800fc8:	1000031e 	bne	r2,zero,800fd8 <ControlTask+0x7c>
  800fcc:	00800044 	movi	r2,1
  800fd0:	d0a00315 	stw	r2,-32756(gp)
  800fd4:	00000106 	br	800fdc <ControlTask+0x80>
		else engine = on;
  800fd8:	d0200315 	stw	zero,-32756(gp)
		if(engine == on) {
  800fdc:	d0a00317 	ldw	r2,-32756(gp)
  800fe0:	1004c03a 	cmpne	r2,r2,zero
  800fe4:	1000d11e 	bne	r2,zero,80132c <ControlTask+0x3d0>
			if(TOP_GEAR) top_gear = on;
  800fe8:	d0a11543 	ldbu	r2,-31659(gp)
  800fec:	10803fcc 	andi	r2,r2,255
  800ff0:	1005003a 	cmpeq	r2,r2,zero
  800ff4:	1000021e 	bne	r2,zero,801000 <ControlTask+0xa4>
  800ff8:	d0200215 	stw	zero,-32760(gp)
  800ffc:	00000206 	br	801008 <ControlTask+0xac>
			else top_gear = off;
  801000:	00800044 	movi	r2,1
  801004:	d0a00215 	stw	r2,-32760(gp)

			if(BRAKE_PEDAL) brake_pedal = on;
  801008:	d0a115c3 	ldbu	r2,-31657(gp)
  80100c:	10803fcc 	andi	r2,r2,255
  801010:	1005003a 	cmpeq	r2,r2,zero
  801014:	1000021e 	bne	r2,zero,801020 <ControlTask+0xc4>
  801018:	d0200115 	stw	zero,-32764(gp)
  80101c:	00000206 	br	801028 <ControlTask+0xcc>
			else brake_pedal = off;
  801020:	00800044 	movi	r2,1
  801024:	d0a00115 	stw	r2,-32764(gp)

			if(GAS_PEDAL) gas_pedal = on;
  801028:	d0a11583 	ldbu	r2,-31658(gp)
  80102c:	10803fcc 	andi	r2,r2,255
  801030:	1005003a 	cmpeq	r2,r2,zero
  801034:	1000021e 	bne	r2,zero,801040 <ControlTask+0xe4>
  801038:	d0200015 	stw	zero,-32768(gp)
  80103c:	00000206 	br	801048 <ControlTask+0xec>
			else gas_pedal = off;
  801040:	00800044 	movi	r2,1
  801044:	d0a00015 	stw	r2,-32768(gp)

			if(gas_pedal == on) {
  801048:	d0a00017 	ldw	r2,-32768(gp)
  80104c:	1004c03a 	cmpne	r2,r2,zero
  801050:	10000a1e 	bne	r2,zero,80107c <ControlTask+0x120>
				if(throttle >= 75) throttle = 80;
  801054:	e0bffe43 	ldbu	r2,-7(fp)
  801058:	10803fcc 	andi	r2,r2,255
  80105c:	108012f0 	cmpltui	r2,r2,75
  801060:	1000031e 	bne	r2,zero,801070 <ControlTask+0x114>
  801064:	00801404 	movi	r2,80
  801068:	e0bffe45 	stb	r2,-7(fp)
  80106c:	00000306 	br	80107c <ControlTask+0x120>
				else throttle += 5;
  801070:	e0bffe43 	ldbu	r2,-7(fp)
  801074:	10800144 	addi	r2,r2,5
  801078:	e0bffe45 	stb	r2,-7(fp)
			}
			if(brake_pedal == on) {
  80107c:	d0a00117 	ldw	r2,-32764(gp)
  801080:	1004c03a 	cmpne	r2,r2,zero
  801084:	10000e1e 	bne	r2,zero,8010c0 <ControlTask+0x164>
				if(throttle <= 5 || ((INT8U) *current_velocity) == 0) throttle = 0;
  801088:	e0bffe43 	ldbu	r2,-7(fp)
  80108c:	10803fcc 	andi	r2,r2,255
  801090:	108001b0 	cmpltui	r2,r2,6
  801094:	1000051e 	bne	r2,zero,8010ac <ControlTask+0x150>
  801098:	e0bffc17 	ldw	r2,-16(fp)
  80109c:	1080000b 	ldhu	r2,0(r2)
  8010a0:	10803fcc 	andi	r2,r2,255
  8010a4:	1004c03a 	cmpne	r2,r2,zero
  8010a8:	1000021e 	bne	r2,zero,8010b4 <ControlTask+0x158>
  8010ac:	e03ffe45 	stb	zero,-7(fp)
  8010b0:	00000306 	br	8010c0 <ControlTask+0x164>
				else throttle -= 5;
  8010b4:	e0bffe43 	ldbu	r2,-7(fp)
  8010b8:	10bffec4 	addi	r2,r2,-5
  8010bc:	e0bffe45 	stb	r2,-7(fp)
			}

			if((*current_velocity) >= 200 && CRUISE_CONTROL) {
  8010c0:	e0bffc17 	ldw	r2,-16(fp)
  8010c4:	1080000b 	ldhu	r2,0(r2)
  8010c8:	10bfffcc 	andi	r2,r2,65535
  8010cc:	10a0001c 	xori	r2,r2,32768
  8010d0:	10a00004 	addi	r2,r2,-32768
  8010d4:	10803210 	cmplti	r2,r2,200
  8010d8:	1000121e 	bne	r2,zero,801124 <ControlTask+0x1c8>
  8010dc:	d0a11603 	ldbu	r2,-31656(gp)
  8010e0:	10803fcc 	andi	r2,r2,255
  8010e4:	1005003a 	cmpeq	r2,r2,zero
  8010e8:	10000e1e 	bne	r2,zero,801124 <ControlTask+0x1c8>
				if(cruise_control == off) target_velocity = (INT8U) (*current_velocity / 10);
  8010ec:	d0a00417 	ldw	r2,-32752(gp)
  8010f0:	10800058 	cmpnei	r2,r2,1
  8010f4:	1000081e 	bne	r2,zero,801118 <ControlTask+0x1bc>
  8010f8:	e0bffc17 	ldw	r2,-16(fp)
  8010fc:	1080000b 	ldhu	r2,0(r2)
  801100:	113fffcc 	andi	r4,r2,65535
  801104:	2120001c 	xori	r4,r4,32768
  801108:	21200004 	addi	r4,r4,-32768
  80110c:	01400284 	movi	r5,10
  801110:	08027840 	call	802784 <__divsi3>
  801114:	e0bffb85 	stb	r2,-18(fp)
				cruise_control = on;
  801118:	d0200415 	stw	zero,-32752(gp)
				show_target_velocity(target_velocity);
  80111c:	e13ffb83 	ldbu	r4,-18(fp)
  801120:	080060c0 	call	80060c <show_target_velocity>
			}

			if(gas_pedal == on || brake_pedal == on || top_gear == off) {
  801124:	d0a00017 	ldw	r2,-32768(gp)
  801128:	1005003a 	cmpeq	r2,r2,zero
  80112c:	1000061e 	bne	r2,zero,801148 <ControlTask+0x1ec>
  801130:	d0a00117 	ldw	r2,-32764(gp)
  801134:	1005003a 	cmpeq	r2,r2,zero
  801138:	1000031e 	bne	r2,zero,801148 <ControlTask+0x1ec>
  80113c:	d0a00217 	ldw	r2,-32760(gp)
  801140:	10800058 	cmpnei	r2,r2,1
  801144:	10000f1e 	bne	r2,zero,801184 <ControlTask+0x228>
				cruise_control = off;
  801148:	00800044 	movi	r2,1
  80114c:	d0a00415 	stw	r2,-32752(gp)
				tempo = IORD_ALTERA_AVALON_PIO_DATA(DE2_PIO_GREENLED9_BASE);
  801150:	00804074 	movhi	r2,257
  801154:	10843804 	addi	r2,r2,4320
  801158:	10800037 	ldwio	r2,0(r2)
  80115c:	e0bffb0d 	sth	r2,-20(fp)
				IOWR_ALTERA_AVALON_PIO_DATA(DE2_PIO_GREENLED9_BASE,tempo & ~1);
  801160:	e0fffb0b 	ldhu	r3,-20(fp)
  801164:	00bfff84 	movi	r2,-2
  801168:	1886703a 	and	r3,r3,r2
  80116c:	00804074 	movhi	r2,257
  801170:	10843804 	addi	r2,r2,4320
  801174:	10c00035 	stwio	r3,0(r2)
				target_velocity = 0;
  801178:	e03ffb85 	stb	zero,-18(fp)
				show_target_velocity(target_velocity);
  80117c:	e13ffb83 	ldbu	r4,-18(fp)
  801180:	080060c0 	call	80060c <show_target_velocity>
			}

			if(cruise_control == on) {
  801184:	d0a00417 	ldw	r2,-32752(gp)
  801188:	1004c03a 	cmpne	r2,r2,zero
  80118c:	1000671e 	bne	r2,zero,80132c <ControlTask+0x3d0>

				alt_printf("Target Velocity: %x\n",(int) (target_velocity));
  801190:	e17ffb83 	ldbu	r5,-18(fp)
  801194:	01002074 	movhi	r4,129
  801198:	21216304 	addi	r4,r4,-31348
  80119c:	0803a700 	call	803a70 <alt_printf>
				tempo = IORD_ALTERA_AVALON_PIO_DATA(DE2_PIO_GREENLED9_BASE);
  8011a0:	00804074 	movhi	r2,257
  8011a4:	10843804 	addi	r2,r2,4320
  8011a8:	10800037 	ldwio	r2,0(r2)
  8011ac:	e0bffb0d 	sth	r2,-20(fp)
				tempo = tempo & ~1;
  8011b0:	e0fffb0b 	ldhu	r3,-20(fp)
  8011b4:	00bfff84 	movi	r2,-2
  8011b8:	1884703a 	and	r2,r3,r2
  8011bc:	e0bffb0d 	sth	r2,-20(fp)
				IOWR_ALTERA_AVALON_PIO_DATA(DE2_PIO_GREENLED9_BASE,tempo | 1);	// writes 1 to the "cruise control" led w/o overwriting the others
  8011c0:	e0bffb0b 	ldhu	r2,-20(fp)
  8011c4:	10800054 	ori	r2,r2,1
  8011c8:	10ffffcc 	andi	r3,r2,65535
  8011cc:	00804074 	movhi	r2,257
  8011d0:	10843804 	addi	r2,r2,4320
  8011d4:	10c00035 	stwio	r3,0(r2)

				int delta = (*current_velocity)-10* ((int)target_velocity);
  8011d8:	e0bffc17 	ldw	r2,-16(fp)
  8011dc:	1080000b 	ldhu	r2,0(r2)
  8011e0:	143fffcc 	andi	r16,r2,65535
  8011e4:	8420001c 	xori	r16,r16,32768
  8011e8:	84200004 	addi	r16,r16,-32768
  8011ec:	e13ffb83 	ldbu	r4,-18(fp)
  8011f0:	01400284 	movi	r5,10
  8011f4:	08028540 	call	802854 <__mulsi3>
  8011f8:	8085c83a 	sub	r2,r16,r2
  8011fc:	e0bffa15 	stw	r2,-24(fp)
				if(delta >= 20){
  801200:	e0bffa17 	ldw	r2,-24(fp)
  801204:	10800510 	cmplti	r2,r2,20
  801208:	10000a1e 	bne	r2,zero,801234 <ControlTask+0x2d8>
					if(throttle <= 10) throttle = 0;
  80120c:	e0bffe43 	ldbu	r2,-7(fp)
  801210:	10803fcc 	andi	r2,r2,255
  801214:	108002e8 	cmpgeui	r2,r2,11
  801218:	1000021e 	bne	r2,zero,801224 <ControlTask+0x2c8>
  80121c:	e03ffe45 	stb	zero,-7(fp)
  801220:	00004206 	br	80132c <ControlTask+0x3d0>
					else throttle -= 10;
  801224:	e0bffe43 	ldbu	r2,-7(fp)
  801228:	10bffd84 	addi	r2,r2,-10
  80122c:	e0bffe45 	stb	r2,-7(fp)
  801230:	00003e06 	br	80132c <ControlTask+0x3d0>
				}
				else if(delta >= 10){
  801234:	e0bffa17 	ldw	r2,-24(fp)
  801238:	10800290 	cmplti	r2,r2,10
  80123c:	10000a1e 	bne	r2,zero,801268 <ControlTask+0x30c>
					if(throttle <= 5) throttle = 0;
  801240:	e0bffe43 	ldbu	r2,-7(fp)
  801244:	10803fcc 	andi	r2,r2,255
  801248:	108001a8 	cmpgeui	r2,r2,6
  80124c:	1000021e 	bne	r2,zero,801258 <ControlTask+0x2fc>
  801250:	e03ffe45 	stb	zero,-7(fp)
  801254:	00003506 	br	80132c <ControlTask+0x3d0>
					else throttle -= 5;
  801258:	e0bffe43 	ldbu	r2,-7(fp)
  80125c:	10bffec4 	addi	r2,r2,-5
  801260:	e0bffe45 	stb	r2,-7(fp)
  801264:	00003106 	br	80132c <ControlTask+0x3d0>
				}
				else if(delta >= 4){
  801268:	e0bffa17 	ldw	r2,-24(fp)
  80126c:	10800110 	cmplti	r2,r2,4
  801270:	1000081e 	bne	r2,zero,801294 <ControlTask+0x338>
					if(throttle != 0) throttle--;
  801274:	e0bffe43 	ldbu	r2,-7(fp)
  801278:	10803fcc 	andi	r2,r2,255
  80127c:	1005003a 	cmpeq	r2,r2,zero
  801280:	10002a1e 	bne	r2,zero,80132c <ControlTask+0x3d0>
  801284:	e0bffe43 	ldbu	r2,-7(fp)
  801288:	10bfffc4 	addi	r2,r2,-1
  80128c:	e0bffe45 	stb	r2,-7(fp)
  801290:	00002606 	br	80132c <ControlTask+0x3d0>
				}
				else if(delta <= -20){
  801294:	e0bffa17 	ldw	r2,-24(fp)
  801298:	10bffb48 	cmpgei	r2,r2,-19
  80129c:	10000b1e 	bne	r2,zero,8012cc <ControlTask+0x370>
					if(throttle >= 70) throttle = 80;
  8012a0:	e0bffe43 	ldbu	r2,-7(fp)
  8012a4:	10803fcc 	andi	r2,r2,255
  8012a8:	108011b0 	cmpltui	r2,r2,70
  8012ac:	1000031e 	bne	r2,zero,8012bc <ControlTask+0x360>
  8012b0:	00801404 	movi	r2,80
  8012b4:	e0bffe45 	stb	r2,-7(fp)
  8012b8:	00001c06 	br	80132c <ControlTask+0x3d0>
					else throttle += 10;
  8012bc:	e0bffe43 	ldbu	r2,-7(fp)
  8012c0:	10800284 	addi	r2,r2,10
  8012c4:	e0bffe45 	stb	r2,-7(fp)
  8012c8:	00001806 	br	80132c <ControlTask+0x3d0>
				}
				else if(delta <= -10){
  8012cc:	e0bffa17 	ldw	r2,-24(fp)
  8012d0:	10bffdc8 	cmpgei	r2,r2,-9
  8012d4:	10000b1e 	bne	r2,zero,801304 <ControlTask+0x3a8>
					if(throttle >= 75) throttle = 80;
  8012d8:	e0bffe43 	ldbu	r2,-7(fp)
  8012dc:	10803fcc 	andi	r2,r2,255
  8012e0:	108012f0 	cmpltui	r2,r2,75
  8012e4:	1000031e 	bne	r2,zero,8012f4 <ControlTask+0x398>
  8012e8:	00801404 	movi	r2,80
  8012ec:	e0bffe45 	stb	r2,-7(fp)
  8012f0:	00000e06 	br	80132c <ControlTask+0x3d0>
					else throttle += 5;
  8012f4:	e0bffe43 	ldbu	r2,-7(fp)
  8012f8:	10800144 	addi	r2,r2,5
  8012fc:	e0bffe45 	stb	r2,-7(fp)
  801300:	00000a06 	br	80132c <ControlTask+0x3d0>
				}
				else if(delta <= -4){
  801304:	e0bffa17 	ldw	r2,-24(fp)
  801308:	10bfff48 	cmpgei	r2,r2,-3
  80130c:	1000071e 	bne	r2,zero,80132c <ControlTask+0x3d0>
					if(throttle != 80) throttle ++;
  801310:	e0bffe43 	ldbu	r2,-7(fp)
  801314:	10803fcc 	andi	r2,r2,255
  801318:	10801420 	cmpeqi	r2,r2,80
  80131c:	1000031e 	bne	r2,zero,80132c <ControlTask+0x3d0>
  801320:	e0bffe43 	ldbu	r2,-7(fp)
  801324:	10800044 	addi	r2,r2,1
  801328:	e0bffe45 	stb	r2,-7(fp)
				}
			}
		}

		err = OSMboxPost(Mbox_Throttle, (void *) &throttle);
  80132c:	d1211817 	ldw	r4,-31648(gp)
  801330:	e17ffe44 	addi	r5,fp,-7
  801334:	0805bb40 	call	805bb4 <OSMboxPost>
  801338:	e0bffe05 	stb	r2,-8(fp)

		OSSemPend(SemControl,0,&err);
  80133c:	d1211c17 	ldw	r4,-31632(gp)
  801340:	e1bffe04 	addi	r6,fp,-8
  801344:	000b883a 	mov	r5,zero
  801348:	0805d580 	call	805d58 <OSSemPend>
	}
  80134c:	003f0d06 	br	800f84 <ControlTask+0x28>

00801350 <SwitchIO>:

/*
 * The task 'SwitchIO' read the switches periodically and lights up the red leds
 */

void SwitchIO(void* pdata) {
  801350:	defffb04 	addi	sp,sp,-20
  801354:	dfc00415 	stw	ra,16(sp)
  801358:	df000315 	stw	fp,12(sp)
  80135c:	df000304 	addi	fp,sp,12
  801360:	e13fff15 	stw	r4,-4(fp)
	INT8U err;
	INT32U current_led;
	while(1) {
		led_red = 0;
  801364:	d0211415 	stw	zero,-31664(gp)
		if(switches_pressed() & TOP_GEAR_FLAG) {
  801368:	08001ac0 	call	8001ac <switches_pressed>
  80136c:	1080008c 	andi	r2,r2,2
  801370:	1005003a 	cmpeq	r2,r2,zero
  801374:	1000061e 	bne	r2,zero,801390 <SwitchIO+0x40>
			TOP_GEAR = 1;
  801378:	00800044 	movi	r2,1
  80137c:	d0a11545 	stb	r2,-31659(gp)
			led_red += LED_RED_1;
  801380:	d0a11417 	ldw	r2,-31664(gp)
  801384:	10800084 	addi	r2,r2,2
  801388:	d0a11415 	stw	r2,-31664(gp)
  80138c:	00000106 	br	801394 <SwitchIO+0x44>
		}
		else {
			TOP_GEAR = 0;
  801390:	d0211545 	stb	zero,-31659(gp)
		}
		if(switches_pressed() & ENGINE_FLAG) {
  801394:	08001ac0 	call	8001ac <switches_pressed>
  801398:	1080004c 	andi	r2,r2,1
  80139c:	10803fcc 	andi	r2,r2,255
  8013a0:	1005003a 	cmpeq	r2,r2,zero
  8013a4:	1000061e 	bne	r2,zero,8013c0 <SwitchIO+0x70>
			ENGINE = 1;
  8013a8:	00800044 	movi	r2,1
  8013ac:	d0a11505 	stb	r2,-31660(gp)
			led_red += LED_RED_0;
  8013b0:	d0a11417 	ldw	r2,-31664(gp)
  8013b4:	10800044 	addi	r2,r2,1
  8013b8:	d0a11415 	stw	r2,-31664(gp)
  8013bc:	00000106 	br	8013c4 <SwitchIO+0x74>
		}
		else {
			ENGINE = 0;
  8013c0:	d0211505 	stb	zero,-31660(gp)
		}
		current_led = IORD_ALTERA_AVALON_PIO_DATA(DE2_PIO_REDLED18_BASE);
  8013c4:	00804074 	movhi	r2,257
  8013c8:	10843c04 	addi	r2,r2,4336
  8013cc:	10800037 	ldwio	r2,0(r2)
  8013d0:	e0bffd15 	stw	r2,-12(fp)
		current_led = current_led & ~(0xfff);
  8013d4:	e0fffd17 	ldw	r3,-12(fp)
  8013d8:	00bc0004 	movi	r2,-4096
  8013dc:	1884703a 	and	r2,r3,r2
  8013e0:	e0bffd15 	stw	r2,-12(fp)
		IOWR_ALTERA_AVALON_PIO_DATA(DE2_PIO_REDLED18_BASE,led_red | current_led);
  8013e4:	d0e11417 	ldw	r3,-31664(gp)
  8013e8:	e0bffd17 	ldw	r2,-12(fp)
  8013ec:	1884b03a 	or	r2,r3,r2
  8013f0:	1007883a 	mov	r3,r2
  8013f4:	00804074 	movhi	r2,257
  8013f8:	10843c04 	addi	r2,r2,4336
  8013fc:	10c00035 	stwio	r3,0(r2)

		OSSemPend(SemSwitches,0,&err);
  801400:	d1211717 	ldw	r4,-31652(gp)
  801404:	e1bffe04 	addi	r6,fp,-8
  801408:	000b883a 	mov	r5,zero
  80140c:	0805d580 	call	805d58 <OSSemPend>
	}
  801410:	003fd406 	br	801364 <SwitchIO+0x14>

00801414 <ButtonsIO>:

/*
 * The task 'ButtonsIO' read the buttons periodically and lights up the green leds
 */

void ButtonsIO(void* pdata) {
  801414:	defffc04 	addi	sp,sp,-16
  801418:	dfc00315 	stw	ra,12(sp)
  80141c:	df000215 	stw	fp,8(sp)
  801420:	df000204 	addi	fp,sp,8
  801424:	e13fff15 	stw	r4,-4(fp)
	INT8U err;
	INT16U current_led;
	while(1) {
		led_green = 0;
  801428:	d021130d 	sth	zero,-31668(gp)
		if(buttons_pressed() & GAS_PEDAL_FLAG) {
  80142c:	08001800 	call	800180 <buttons_pressed>
  801430:	1080020c 	andi	r2,r2,8
  801434:	1005003a 	cmpeq	r2,r2,zero
  801438:	1000061e 	bne	r2,zero,801454 <ButtonsIO+0x40>
			GAS_PEDAL = 1;
  80143c:	00800044 	movi	r2,1
  801440:	d0a11585 	stb	r2,-31658(gp)
			led_green += LED_GREEN_6;
  801444:	d0a1130b 	ldhu	r2,-31668(gp)
  801448:	10801004 	addi	r2,r2,64
  80144c:	d0a1130d 	sth	r2,-31668(gp)
  801450:	00000106 	br	801458 <ButtonsIO+0x44>
		}
		else {
			GAS_PEDAL = 0;
  801454:	d0211585 	stb	zero,-31658(gp)
		}
		if(buttons_pressed() & BRAKE_PEDAL_FLAG) {
  801458:	08001800 	call	800180 <buttons_pressed>
  80145c:	1080010c 	andi	r2,r2,4
  801460:	1005003a 	cmpeq	r2,r2,zero
  801464:	1000061e 	bne	r2,zero,801480 <ButtonsIO+0x6c>
			BRAKE_PEDAL = 1;
  801468:	00800044 	movi	r2,1
  80146c:	d0a115c5 	stb	r2,-31657(gp)
			led_green += LED_GREEN_4;
  801470:	d0a1130b 	ldhu	r2,-31668(gp)
  801474:	10800404 	addi	r2,r2,16
  801478:	d0a1130d 	sth	r2,-31668(gp)
  80147c:	00000106 	br	801484 <ButtonsIO+0x70>
		}
		else {
			BRAKE_PEDAL = 0;
  801480:	d02115c5 	stb	zero,-31657(gp)
		}
		if(buttons_pressed() & CRUISE_CONTROL_FLAG) {
  801484:	08001800 	call	800180 <buttons_pressed>
  801488:	1080008c 	andi	r2,r2,2
  80148c:	1005003a 	cmpeq	r2,r2,zero
  801490:	1000061e 	bne	r2,zero,8014ac <ButtonsIO+0x98>
			CRUISE_CONTROL = 1;
  801494:	00800044 	movi	r2,1
  801498:	d0a11605 	stb	r2,-31656(gp)
			led_green += LED_GREEN_2;
  80149c:	d0a1130b 	ldhu	r2,-31668(gp)
  8014a0:	10800104 	addi	r2,r2,4
  8014a4:	d0a1130d 	sth	r2,-31668(gp)
  8014a8:	00000106 	br	8014b0 <ButtonsIO+0x9c>
		}
		else {
			CRUISE_CONTROL = 0;
  8014ac:	d0211605 	stb	zero,-31656(gp)
		}
		current_led = IORD_ALTERA_AVALON_PIO_DATA(DE2_PIO_GREENLED9_BASE);
  8014b0:	00804074 	movhi	r2,257
  8014b4:	10843804 	addi	r2,r2,4320
  8014b8:	10800037 	ldwio	r2,0(r2)
  8014bc:	e0bffe0d 	sth	r2,-8(fp)
		current_led = current_led & 0x01;
  8014c0:	e0bffe0b 	ldhu	r2,-8(fp)
  8014c4:	1080004c 	andi	r2,r2,1
  8014c8:	e0bffe0d 	sth	r2,-8(fp)
		IOWR_ALTERA_AVALON_PIO_DATA(DE2_PIO_GREENLED9_BASE,led_green | current_led);
  8014cc:	d0e1130b 	ldhu	r3,-31668(gp)
  8014d0:	e0bffe0b 	ldhu	r2,-8(fp)
  8014d4:	1884b03a 	or	r2,r3,r2
  8014d8:	10ffffcc 	andi	r3,r2,65535
  8014dc:	00804074 	movhi	r2,257
  8014e0:	10843804 	addi	r2,r2,4320
  8014e4:	10c00035 	stwio	r3,0(r2)

		OSSemPend(SemButtons,0,&err);
  8014e8:	d1212217 	ldw	r4,-31608(gp)
  8014ec:	e1bffe84 	addi	r6,fp,-6
  8014f0:	000b883a 	mov	r5,zero
  8014f4:	0805d580 	call	805d58 <OSSemPend>
	}
  8014f8:	003fcb06 	br	801428 <ButtonsIO+0x14>

008014fc <OverloadDetection>:
}

void OverloadDetection(void* pdata) {
  8014fc:	defffc04 	addi	sp,sp,-16
  801500:	dfc00315 	stw	ra,12(sp)
  801504:	df000215 	stw	fp,8(sp)
  801508:	df000204 	addi	fp,sp,8
  80150c:	e13fff15 	stw	r4,-4(fp)
	INT8U err;
	while(1) {
		OSSemPend(SemOverload,0,&err);
  801510:	d1212117 	ldw	r4,-31612(gp)
  801514:	000b883a 	mov	r5,zero
  801518:	e1bffe04 	addi	r6,fp,-8
  80151c:	0805d580 	call	805d58 <OSSemPend>
		OSTmrStart(TimerWatchdog,&err);
  801520:	d1211d17 	ldw	r4,-31628(gp)
  801524:	e17ffe04 	addi	r5,fp,-8
  801528:	0806e180 	call	806e18 <OSTmrStart>
	}
  80152c:	003ff806 	br	801510 <OverloadDetection+0x14>

00801530 <Extraload>:
}

void Extraload(void* pdata) {
  801530:	defff704 	addi	sp,sp,-36
  801534:	dfc00815 	stw	ra,32(sp)
  801538:	df000715 	stw	fp,28(sp)
  80153c:	df000704 	addi	fp,sp,28
  801540:	e13fff15 	stw	r4,-4(fp)
	INT32U current_led;
	INT8U err;
	INT8U next_load = 0;
  801544:	e03ffc85 	stb	zero,-14(fp)
	INT8U load = 0;
  801548:	e03ffc45 	stb	zero,-15(fp)
	INT8U t = 0;
  80154c:	e03ffc05 	stb	zero,-16(fp)
	while(1) {
		next_load = ((switches_pressed()>>4) & 0x3f);
  801550:	08001ac0 	call	8001ac <switches_pressed>
  801554:	1005d13a 	srai	r2,r2,4
  801558:	10800fcc 	andi	r2,r2,63
  80155c:	e0bffc85 	stb	r2,-14(fp)
		if (next_load > 50) next_load = 50;
  801560:	e0bffc83 	ldbu	r2,-14(fp)
  801564:	10800cf0 	cmpltui	r2,r2,51
  801568:	1000021e 	bne	r2,zero,801574 <Extraload+0x44>
  80156c:	00800c84 	movi	r2,50
  801570:	e0bffc85 	stb	r2,-14(fp)
		if(load != next_load){
  801574:	e0fffc43 	ldbu	r3,-15(fp)
  801578:	e0bffc83 	ldbu	r2,-14(fp)
  80157c:	18803326 	beq	r3,r2,80164c <Extraload+0x11c>
			load = next_load;
  801580:	e0bffc83 	ldbu	r2,-14(fp)
  801584:	e0bffc45 	stb	r2,-15(fp)
			current_led = IORD_ALTERA_AVALON_PIO_DATA(DE2_PIO_REDLED18_BASE);
  801588:	00804074 	movhi	r2,257
  80158c:	10843c04 	addi	r2,r2,4336
  801590:	10800037 	ldwio	r2,0(r2)
  801594:	e0bffd15 	stw	r2,-12(fp)
			current_led = current_led & 0x3fc0f;
  801598:	e0fffd17 	ldw	r3,-12(fp)
  80159c:	00800134 	movhi	r2,4
  8015a0:	10bf03c4 	addi	r2,r2,-1009
  8015a4:	1884703a 	and	r2,r3,r2
  8015a8:	e0bffd15 	stw	r2,-12(fp)
			IOWR_ALTERA_AVALON_PIO_DATA(DE2_PIO_REDLED18_BASE, (load<<4) | current_led);
  8015ac:	e0bffc43 	ldbu	r2,-15(fp)
  8015b0:	1004913a 	slli	r2,r2,4
  8015b4:	1007883a 	mov	r3,r2
  8015b8:	e0bffd17 	ldw	r2,-12(fp)
  8015bc:	1884b03a 	or	r2,r3,r2
  8015c0:	1007883a 	mov	r3,r2
  8015c4:	00804074 	movhi	r2,257
  8015c8:	10843c04 	addi	r2,r2,4336
  8015cc:	10c00035 	stwio	r3,0(r2)
			if(t){
  8015d0:	e0bffc03 	ldbu	r2,-16(fp)
  8015d4:	1005003a 	cmpeq	r2,r2,zero
  8015d8:	1000041e 	bne	r2,zero,8015ec <Extraload+0xbc>
				OSTmrDel(TimerExtraload,&err);
  8015dc:	d1211217 	ldw	r4,-31672(gp)
  8015e0:	e17ffe04 	addi	r5,fp,-8
  8015e4:	08070a80 	call	8070a8 <OSTmrDel>
				t = 0;
  8015e8:	e03ffc05 	stb	zero,-16(fp)
			}
			if(load){
  8015ec:	e0bffc43 	ldbu	r2,-15(fp)
  8015f0:	1005003a 	cmpeq	r2,r2,zero
  8015f4:	1000151e 	bne	r2,zero,80164c <Extraload+0x11c>
				TimerExtraload = OSTmrCreate((2*load*HYPER_PERIOD) / (100*HW_TIMER_PERIOD), 0,
  8015f8:	e0fffc43 	ldbu	r3,-15(fp)
  8015fc:	1805883a 	mov	r2,r3
  801600:	1085883a 	add	r2,r2,r2
  801604:	10c5883a 	add	r2,r2,r3
  801608:	1009883a 	mov	r4,r2
  80160c:	d8000015 	stw	zero,0(sp)
  801610:	d8000115 	stw	zero,4(sp)
  801614:	e0bffe04 	addi	r2,fp,-8
  801618:	d8800215 	stw	r2,8(sp)
  80161c:	000b883a 	mov	r5,zero
  801620:	01800044 	movi	r6,1
  801624:	01c02034 	movhi	r7,128
  801628:	39c11e04 	addi	r7,r7,1144
  80162c:	08072800 	call	807280 <OSTmrCreate>
  801630:	d0a11215 	stw	r2,-31672(gp)
						OS_TMR_OPT_ONE_SHOT, CallbackExtraload, NULL, NULL, &err);
				if(!err) t = 1;
  801634:	e0bffe03 	ldbu	r2,-8(fp)
  801638:	10803fcc 	andi	r2,r2,255
  80163c:	1004c03a 	cmpne	r2,r2,zero
  801640:	1000021e 	bne	r2,zero,80164c <Extraload+0x11c>
  801644:	00800044 	movi	r2,1
  801648:	e0bffc05 	stb	r2,-16(fp)
			}
		}

		if(load && t) {
  80164c:	e0bffc43 	ldbu	r2,-15(fp)
  801650:	1005003a 	cmpeq	r2,r2,zero
  801654:	10000b1e 	bne	r2,zero,801684 <Extraload+0x154>
  801658:	e0bffc03 	ldbu	r2,-16(fp)
  80165c:	1005003a 	cmpeq	r2,r2,zero
  801660:	1000081e 	bne	r2,zero,801684 <Extraload+0x154>
			OSTmrStart(TimerExtraload, &err);
  801664:	d1211217 	ldw	r4,-31672(gp)
  801668:	e17ffe04 	addi	r5,fp,-8
  80166c:	0806e180 	call	806e18 <OSTmrStart>
			FLAG = 0;
  801670:	d0211645 	stb	zero,-31655(gp)
			while(FLAG == 0) {
  801674:	d0a11643 	ldbu	r2,-31655(gp)
  801678:	10803fcc 	andi	r2,r2,255
  80167c:	1005003a 	cmpeq	r2,r2,zero
  801680:	103ffc1e 	bne	r2,zero,801674 <Extraload+0x144>
				;
			}
		}

		OSSemPend(SemExtraload,0,&err);
  801684:	d1211917 	ldw	r4,-31644(gp)
  801688:	e1bffe04 	addi	r6,fp,-8
  80168c:	000b883a 	mov	r5,zero
  801690:	0805d580 	call	805d58 <OSSemPend>
	}
  801694:	003fae06 	br	801550 <Extraload+0x20>

00801698 <StartTask>:

/*
 * The task 'StartTask' creates all other tasks kernel objects and
 * deletes itself afterwards.
 */
void StartTask(void* pdata) {
  801698:	defff604 	addi	sp,sp,-40
  80169c:	dfc00915 	stw	ra,36(sp)
  8016a0:	df000815 	stw	fp,32(sp)
  8016a4:	df000804 	addi	fp,sp,32
  8016a8:	e13fff15 	stw	r4,-4(fp)
 * Obtain the system clock rate in ticks/s. 
 */

static ALT_INLINE alt_u32 ALT_ALWAYS_INLINE alt_ticks_per_second (void)
{
  return _alt_tick_rate;
  8016ac:	00802074 	movhi	r2,129
  8016b0:	10a41904 	addi	r2,r2,-28572
  8016b4:	10800017 	ldw	r2,0(r2)
	void* context;

	static alt_alarm alarm; /* Is needed for timer ISR function */

	/* Base resolution for SW timer : HW_TIMER_PERIOD ms */
	delay = alt_ticks_per_second() * HW_TIMER_PERIOD / 1000;
  8016b8:	1085883a 	add	r2,r2,r2
  8016bc:	1009883a 	mov	r4,r2
  8016c0:	0140fa04 	movi	r5,1000
  8016c4:	08028440 	call	802844 <__udivsi3>
  8016c8:	d0a12515 	stw	r2,-31596(gp)
	alt_printf("delay in ticks %x\n", delay);
  8016cc:	d1612517 	ldw	r5,-31596(gp)
  8016d0:	01002074 	movhi	r4,129
  8016d4:	21216904 	addi	r4,r4,-31324
  8016d8:	0803a700 	call	803a70 <alt_printf>

	/*
	 * Create Hardware Timer with a period of 'delay'
	 */
	if (alt_alarm_start(&alarm, delay, alarm_handler, context) < 0) {
  8016dc:	d0a12517 	ldw	r2,-31596(gp)
  8016e0:	100b883a 	mov	r5,r2
  8016e4:	01002074 	movhi	r4,129
  8016e8:	21243704 	addi	r4,r4,-28452
  8016ec:	01802034 	movhi	r6,128
  8016f0:	3180c404 	addi	r6,r6,784
  8016f4:	e1fffd17 	ldw	r7,-12(fp)
  8016f8:	08038ac0 	call	8038ac <alt_alarm_start>
  8016fc:	1004403a 	cmpge	r2,r2,zero
  801700:	1000031e 	bne	r2,zero,801710 <StartTask+0x78>
		alt_printf("No system clock available!n");
  801704:	01002074 	movhi	r4,129
  801708:	21216e04 	addi	r4,r4,-31304
  80170c:	0803a700 	call	803a70 <alt_printf>
	}

	/*
	 * Create and start Software Timer
	 */
	TimerVehicle = OSTmrCreate(0, VEHICLE_PERIOD / HW_TIMER_PERIOD,
  801710:	d8000015 	stw	zero,0(sp)
  801714:	d8000115 	stw	zero,4(sp)
  801718:	e0bffe04 	addi	r2,fp,-8
  80171c:	d8800215 	stw	r2,8(sp)
  801720:	0009883a 	mov	r4,zero
  801724:	01402584 	movi	r5,150
  801728:	01800084 	movi	r6,2
  80172c:	01c02034 	movhi	r7,128
  801730:	39c0d004 	addi	r7,r7,832
  801734:	08072800 	call	807280 <OSTmrCreate>
  801738:	d0a11b15 	stw	r2,-31636(gp)
			OS_TMR_OPT_PERIODIC, CallbackVehicle, NULL, NULL, &err);
	if (err) {
  80173c:	e0bffe03 	ldbu	r2,-8(fp)
  801740:	10803fcc 	andi	r2,r2,255
  801744:	1005003a 	cmpeq	r2,r2,zero
  801748:	1000031e 	bne	r2,zero,801758 <StartTask+0xc0>
		alt_printf("Error occurred while creating soft timer!\n");
  80174c:	01002074 	movhi	r4,129
  801750:	21217504 	addi	r4,r4,-31276
  801754:	0803a700 	call	803a70 <alt_printf>
	}
	OSTmrStart(TimerVehicle, &err);
  801758:	d1211b17 	ldw	r4,-31636(gp)
  80175c:	e17ffe04 	addi	r5,fp,-8
  801760:	0806e180 	call	806e18 <OSTmrStart>

	TimerControl = OSTmrCreate(0, CONTROL_PERIOD / HW_TIMER_PERIOD,
  801764:	d8000015 	stw	zero,0(sp)
  801768:	d8000115 	stw	zero,4(sp)
  80176c:	e0bffe04 	addi	r2,fp,-8
  801770:	d8800215 	stw	r2,8(sp)
  801774:	0009883a 	mov	r4,zero
  801778:	01402584 	movi	r5,150
  80177c:	01800084 	movi	r6,2
  801780:	01c02034 	movhi	r7,128
  801784:	39c0dd04 	addi	r7,r7,884
  801788:	08072800 	call	807280 <OSTmrCreate>
  80178c:	d0a12715 	stw	r2,-31588(gp)
			OS_TMR_OPT_PERIODIC, CallbackControl, NULL, NULL, &err);
	if (err) {
  801790:	e0bffe03 	ldbu	r2,-8(fp)
  801794:	10803fcc 	andi	r2,r2,255
  801798:	1005003a 	cmpeq	r2,r2,zero
  80179c:	1000031e 	bne	r2,zero,8017ac <StartTask+0x114>
		alt_printf("Error occurred while creating soft timer!\n");
  8017a0:	01002074 	movhi	r4,129
  8017a4:	21217504 	addi	r4,r4,-31276
  8017a8:	0803a700 	call	803a70 <alt_printf>
	}
	OSTmrStart(TimerControl, &err);
  8017ac:	d1212717 	ldw	r4,-31588(gp)
  8017b0:	e17ffe04 	addi	r5,fp,-8
  8017b4:	0806e180 	call	806e18 <OSTmrStart>

	TimerButtons = OSTmrCreate(0, BS_PERIOD / HW_TIMER_PERIOD,
  8017b8:	d8000015 	stw	zero,0(sp)
  8017bc:	d8000115 	stw	zero,4(sp)
  8017c0:	e0bffe04 	addi	r2,fp,-8
  8017c4:	d8800215 	stw	r2,8(sp)
  8017c8:	0009883a 	mov	r4,zero
  8017cc:	01400c84 	movi	r5,50
  8017d0:	01800084 	movi	r6,2
  8017d4:	01c02034 	movhi	r7,128
  8017d8:	39c0ea04 	addi	r7,r7,936
  8017dc:	08072800 	call	807280 <OSTmrCreate>
  8017e0:	d0a12615 	stw	r2,-31592(gp)
			OS_TMR_OPT_PERIODIC, CallbackButtons, NULL, NULL, &err);
	if (err) {
  8017e4:	e0bffe03 	ldbu	r2,-8(fp)
  8017e8:	10803fcc 	andi	r2,r2,255
  8017ec:	1005003a 	cmpeq	r2,r2,zero
  8017f0:	1000031e 	bne	r2,zero,801800 <StartTask+0x168>
		alt_printf("Error occurred while creating soft timer!\n");
  8017f4:	01002074 	movhi	r4,129
  8017f8:	21217504 	addi	r4,r4,-31276
  8017fc:	0803a700 	call	803a70 <alt_printf>
	}
	OSTmrStart(TimerButtons, &err);
  801800:	d1212617 	ldw	r4,-31592(gp)
  801804:	e17ffe04 	addi	r5,fp,-8
  801808:	0806e180 	call	806e18 <OSTmrStart>

	TimerSwitches = OSTmrCreate(0, BS_PERIOD / HW_TIMER_PERIOD,
  80180c:	d8000015 	stw	zero,0(sp)
  801810:	d8000115 	stw	zero,4(sp)
  801814:	e0bffe04 	addi	r2,fp,-8
  801818:	d8800215 	stw	r2,8(sp)
  80181c:	0009883a 	mov	r4,zero
  801820:	01400c84 	movi	r5,50
  801824:	01800084 	movi	r6,2
  801828:	01c02034 	movhi	r7,128
  80182c:	39c0f704 	addi	r7,r7,988
  801830:	08072800 	call	807280 <OSTmrCreate>
  801834:	d0a12815 	stw	r2,-31584(gp)
			OS_TMR_OPT_PERIODIC, CallbackSwitches, NULL, NULL, &err);
	if (err) {
  801838:	e0bffe03 	ldbu	r2,-8(fp)
  80183c:	10803fcc 	andi	r2,r2,255
  801840:	1005003a 	cmpeq	r2,r2,zero
  801844:	1000031e 	bne	r2,zero,801854 <StartTask+0x1bc>
		alt_printf("Error occurred while creating soft timer!\n");
  801848:	01002074 	movhi	r4,129
  80184c:	21217504 	addi	r4,r4,-31276
  801850:	0803a700 	call	803a70 <alt_printf>
	}
	OSTmrStart(TimerSwitches, &err);
  801854:	d1212817 	ldw	r4,-31584(gp)
  801858:	e17ffe04 	addi	r5,fp,-8
  80185c:	0806e180 	call	806e18 <OSTmrStart>

	TimerExtraloadTask = OSTmrCreate(0, HYPER_PERIOD / HW_TIMER_PERIOD,
  801860:	d8000015 	stw	zero,0(sp)
  801864:	d8000115 	stw	zero,4(sp)
  801868:	e0bffe04 	addi	r2,fp,-8
  80186c:	d8800215 	stw	r2,8(sp)
  801870:	0009883a 	mov	r4,zero
  801874:	01402584 	movi	r5,150
  801878:	01800084 	movi	r6,2
  80187c:	01c02034 	movhi	r7,128
  801880:	39c11104 	addi	r7,r7,1092
  801884:	08072800 	call	807280 <OSTmrCreate>
  801888:	d0a12415 	stw	r2,-31600(gp)
			OS_TMR_OPT_PERIODIC, CallbackExtraloadTask, NULL, NULL, &err);
	if (err) {
  80188c:	e0bffe03 	ldbu	r2,-8(fp)
  801890:	10803fcc 	andi	r2,r2,255
  801894:	1005003a 	cmpeq	r2,r2,zero
  801898:	1000031e 	bne	r2,zero,8018a8 <StartTask+0x210>
		alt_printf("Error occurred while creating soft timer!\n");
  80189c:	01002074 	movhi	r4,129
  8018a0:	21217504 	addi	r4,r4,-31276
  8018a4:	0803a700 	call	803a70 <alt_printf>
	}
	OSTmrStart(TimerExtraloadTask, &err);
  8018a8:	d1212417 	ldw	r4,-31600(gp)
  8018ac:	e17ffe04 	addi	r5,fp,-8
  8018b0:	0806e180 	call	806e18 <OSTmrStart>

	TimerOverload = OSTmrCreate(0, OVERLOAD_PERIOD / HW_TIMER_PERIOD,
  8018b4:	d8000015 	stw	zero,0(sp)
  8018b8:	d8000115 	stw	zero,4(sp)
  8018bc:	e0bffe04 	addi	r2,fp,-8
  8018c0:	d8800215 	stw	r2,8(sp)
  8018c4:	0009883a 	mov	r4,zero
  8018c8:	01400c84 	movi	r5,50
  8018cc:	01800084 	movi	r6,2
  8018d0:	01c02034 	movhi	r7,128
  8018d4:	39c10404 	addi	r7,r7,1040
  8018d8:	08072800 	call	807280 <OSTmrCreate>
  8018dc:	d0a11f15 	stw	r2,-31620(gp)
			OS_TMR_OPT_PERIODIC, CallbackOverload, NULL, NULL, &err);
	if (err) {
  8018e0:	e0bffe03 	ldbu	r2,-8(fp)
  8018e4:	10803fcc 	andi	r2,r2,255
  8018e8:	1005003a 	cmpeq	r2,r2,zero
  8018ec:	1000031e 	bne	r2,zero,8018fc <StartTask+0x264>
		alt_printf("Error occurred while creating soft timer!\n");
  8018f0:	01002074 	movhi	r4,129
  8018f4:	21217504 	addi	r4,r4,-31276
  8018f8:	0803a700 	call	803a70 <alt_printf>
	}
	OSTmrStart(TimerOverload, &err);
  8018fc:	d1211f17 	ldw	r4,-31620(gp)
  801900:	e17ffe04 	addi	r5,fp,-8
  801904:	0806e180 	call	806e18 <OSTmrStart>

	TimerWatchdog = OSTmrCreate(0, HYPER_PERIOD / HW_TIMER_PERIOD,
  801908:	d8000015 	stw	zero,0(sp)
  80190c:	d8000115 	stw	zero,4(sp)
  801910:	e0bffe04 	addi	r2,fp,-8
  801914:	d8800215 	stw	r2,8(sp)
  801918:	0009883a 	mov	r4,zero
  80191c:	01402584 	movi	r5,150
  801920:	01800084 	movi	r6,2
  801924:	01c02034 	movhi	r7,128
  801928:	39c12904 	addi	r7,r7,1188
  80192c:	08072800 	call	807280 <OSTmrCreate>
  801930:	d0a11d15 	stw	r2,-31628(gp)
			OS_TMR_OPT_PERIODIC, CallbackWatchdog, NULL, NULL, &err);
	if (err) {
  801934:	e0bffe03 	ldbu	r2,-8(fp)
  801938:	10803fcc 	andi	r2,r2,255
  80193c:	1005003a 	cmpeq	r2,r2,zero
  801940:	1000031e 	bne	r2,zero,801950 <StartTask+0x2b8>
		alt_printf("Error occurred while creating soft timer!\n");
  801944:	01002074 	movhi	r4,129
  801948:	21217504 	addi	r4,r4,-31276
  80194c:	0803a700 	call	803a70 <alt_printf>
	}
	OSTmrStart(TimerWatchdog, &err);
  801950:	d1211d17 	ldw	r4,-31628(gp)
  801954:	e17ffe04 	addi	r5,fp,-8
  801958:	0806e180 	call	806e18 <OSTmrStart>

	#ifdef DEBUG

	TimerStat = OSTmrCreate(0, HYPER_PERIOD / HW_TIMER_PERIOD,
  80195c:	d8000015 	stw	zero,0(sp)
  801960:	d8000115 	stw	zero,4(sp)
  801964:	e0bffe04 	addi	r2,fp,-8
  801968:	d8800215 	stw	r2,8(sp)
  80196c:	0009883a 	mov	r4,zero
  801970:	01402584 	movi	r5,150
  801974:	01800084 	movi	r6,2
  801978:	01c02034 	movhi	r7,128
  80197c:	39c07504 	addi	r7,r7,468
  801980:	08072800 	call	807280 <OSTmrCreate>
  801984:	d0a11e15 	stw	r2,-31624(gp)
			OS_TMR_OPT_PERIODIC, CallbackStat, NULL, NULL, &err);
	if (err) {
  801988:	e0bffe03 	ldbu	r2,-8(fp)
  80198c:	10803fcc 	andi	r2,r2,255
  801990:	1005003a 	cmpeq	r2,r2,zero
  801994:	1000031e 	bne	r2,zero,8019a4 <StartTask+0x30c>
		alt_printf("Error occurred while creating soft timer!\n");
  801998:	01002074 	movhi	r4,129
  80199c:	21217504 	addi	r4,r4,-31276
  8019a0:	0803a700 	call	803a70 <alt_printf>
	}
	OSTmrStart(TimerStat, &err);
  8019a4:	d1211e17 	ldw	r4,-31624(gp)
  8019a8:	e17ffe04 	addi	r5,fp,-8
  8019ac:	0806e180 	call	806e18 <OSTmrStart>
	/*
	 * Creation of Kernel Objects
	 */

	// Mailboxes
	Mbox_Throttle = OSMboxCreate((void*) 0); /* Empty Mailbox - Throttle */
  8019b0:	0009883a 	mov	r4,zero
  8019b4:	08058e40 	call	8058e4 <OSMboxCreate>
  8019b8:	d0a11815 	stw	r2,-31648(gp)
	Mbox_Velocity = OSMboxCreate((void*) 0); /* Empty Mailbox - Velocity */
  8019bc:	0009883a 	mov	r4,zero
  8019c0:	08058e40 	call	8058e4 <OSMboxCreate>
  8019c4:	d0a11a15 	stw	r2,-31640(gp)

	// Semaphores
	SemVehicle = OSSemCreate(0);
  8019c8:	0009883a 	mov	r4,zero
  8019cc:	0805ccc0 	call	805ccc <OSSemCreate>
  8019d0:	d0a12015 	stw	r2,-31616(gp)
	SemControl = OSSemCreate(0);
  8019d4:	0009883a 	mov	r4,zero
  8019d8:	0805ccc0 	call	805ccc <OSSemCreate>
  8019dc:	d0a11c15 	stw	r2,-31632(gp)
	SemButtons = OSSemCreate(0);
  8019e0:	0009883a 	mov	r4,zero
  8019e4:	0805ccc0 	call	805ccc <OSSemCreate>
  8019e8:	d0a12215 	stw	r2,-31608(gp)
	SemSwitches = OSSemCreate(0);
  8019ec:	0009883a 	mov	r4,zero
  8019f0:	0805ccc0 	call	805ccc <OSSemCreate>
  8019f4:	d0a11715 	stw	r2,-31652(gp)
	SemOverload = OSSemCreate(0);
  8019f8:	0009883a 	mov	r4,zero
  8019fc:	0805ccc0 	call	805ccc <OSSemCreate>
  801a00:	d0a12115 	stw	r2,-31612(gp)
	SemExtraload = OSSemCreate(1);
  801a04:	01000044 	movi	r4,1
  801a08:	0805ccc0 	call	805ccc <OSSemCreate>
  801a0c:	d0a11915 	stw	r2,-31644(gp)

	#ifdef DEBUG

	SemStat = OSSemCreate(1);
  801a10:	01000044 	movi	r4,1
  801a14:	0805ccc0 	call	805ccc <OSSemCreate>
  801a18:	d0a12315 	stw	r2,-31604(gp)

	/*
	 * Create statistics task
	 */

	OSStatInit();
  801a1c:	08047c00 	call	8047c0 <OSStatInit>

	/*
	 * Creating Tasks in the system
	 */

	err = OSTaskCreateExt(
  801a20:	01802074 	movhi	r6,129
  801a24:	31a63c04 	addi	r6,r6,-26384
  801a28:	00800284 	movi	r2,10
  801a2c:	d8800015 	stw	r2,0(sp)
  801a30:	00802074 	movhi	r2,129
  801a34:	10a53d04 	addi	r2,r2,-27404
  801a38:	d8800115 	stw	r2,4(sp)
  801a3c:	00804004 	movi	r2,256
  801a40:	d8800215 	stw	r2,8(sp)
  801a44:	d8000315 	stw	zero,12(sp)
  801a48:	00800044 	movi	r2,1
  801a4c:	d8800415 	stw	r2,16(sp)
  801a50:	01002034 	movhi	r4,128
  801a54:	2103d704 	addi	r4,r4,3932
  801a58:	000b883a 	mov	r5,zero
  801a5c:	01c00284 	movi	r7,10
  801a60:	08060c00 	call	8060c0 <OSTaskCreateExt>
  801a64:	e0bffe05 	stb	r2,-8(fp)
			// of task stack
			CONTROLTASK_PRIO, CONTROLTASK_PRIO, (void *) &ControlTask_Stack[0],
			TASK_STACKSIZE, (void *) 0, OS_TASK_OPT_STK_CHK);
//	if(err != 0) alt_printf("Problem creating task : Control\n");

	err = OSTaskCreateExt(
  801a68:	01802074 	movhi	r6,129
  801a6c:	31a83c04 	addi	r6,r6,-24336
  801a70:	00800204 	movi	r2,8
  801a74:	d8800015 	stw	r2,0(sp)
  801a78:	00802074 	movhi	r2,129
  801a7c:	10a73d04 	addi	r2,r2,-25356
  801a80:	d8800115 	stw	r2,4(sp)
  801a84:	00804004 	movi	r2,256
  801a88:	d8800215 	stw	r2,8(sp)
  801a8c:	d8000315 	stw	zero,12(sp)
  801a90:	00800044 	movi	r2,1
  801a94:	d8800415 	stw	r2,16(sp)
  801a98:	01002034 	movhi	r4,128
  801a9c:	21025b04 	addi	r4,r4,2412
  801aa0:	000b883a 	mov	r5,zero
  801aa4:	01c00204 	movi	r7,8
  801aa8:	08060c00 	call	8060c0 <OSTaskCreateExt>
  801aac:	e0bffe05 	stb	r2,-8(fp)
			// of task stack
			VEHICLETASK_PRIO, VEHICLETASK_PRIO, (void *) &VehicleTask_Stack[0],
			TASK_STACKSIZE, (void *) 0, OS_TASK_OPT_STK_CHK);
//	if(err != 0) alt_printf("Problem creating task : Vehicle\n");

	err = OSTaskCreateExt(
  801ab0:	01802074 	movhi	r6,129
  801ab4:	31a93c04 	addi	r6,r6,-23312
  801ab8:	00800304 	movi	r2,12
  801abc:	d8800015 	stw	r2,0(sp)
  801ac0:	00802074 	movhi	r2,129
  801ac4:	10a83d04 	addi	r2,r2,-24332
  801ac8:	d8800115 	stw	r2,4(sp)
  801acc:	00804004 	movi	r2,256
  801ad0:	d8800215 	stw	r2,8(sp)
  801ad4:	d8000315 	stw	zero,12(sp)
  801ad8:	00800044 	movi	r2,1
  801adc:	d8800415 	stw	r2,16(sp)
  801ae0:	01002034 	movhi	r4,128
  801ae4:	21050504 	addi	r4,r4,5140
  801ae8:	000b883a 	mov	r5,zero
  801aec:	01c00304 	movi	r7,12
  801af0:	08060c00 	call	8060c0 <OSTaskCreateExt>
  801af4:	e0bffe05 	stb	r2,-8(fp)
				// of task stack
				BUTTONSIO_PRIO, BUTTONSIO_PRIO, (void *) &ButtonsIO_Stack[0],
				TASK_STACKSIZE, (void *) 0, OS_TASK_OPT_STK_CHK);
//	if(err != 0) alt_printf("Problem creating task : ButtonsIO\n");

	err = OSTaskCreateExt(
  801af8:	01802074 	movhi	r6,129
  801afc:	31a53c04 	addi	r6,r6,-27408
  801b00:	00800384 	movi	r2,14
  801b04:	d8800015 	stw	r2,0(sp)
  801b08:	00802074 	movhi	r2,129
  801b0c:	10a43d04 	addi	r2,r2,-28428
  801b10:	d8800115 	stw	r2,4(sp)
  801b14:	00804004 	movi	r2,256
  801b18:	d8800215 	stw	r2,8(sp)
  801b1c:	d8000315 	stw	zero,12(sp)
  801b20:	00800044 	movi	r2,1
  801b24:	d8800415 	stw	r2,16(sp)
  801b28:	01002034 	movhi	r4,128
  801b2c:	2104d404 	addi	r4,r4,4944
  801b30:	000b883a 	mov	r5,zero
  801b34:	01c00384 	movi	r7,14
  801b38:	08060c00 	call	8060c0 <OSTaskCreateExt>
  801b3c:	e0bffe05 	stb	r2,-8(fp)
				SWITCHIO_PRIO, SWITCHIO_PRIO, (void *) &SwitchIO_Stack[0],
				TASK_STACKSIZE, (void *) 0, OS_TASK_OPT_STK_CHK);
//	if(err != 0) alt_printf("Problem creating task : SwitchIO\n");


	err = OSTaskCreateExt(
  801b40:	01802074 	movhi	r6,129
  801b44:	31ac3c04 	addi	r6,r6,-20240
  801b48:	00800404 	movi	r2,16
  801b4c:	d8800015 	stw	r2,0(sp)
  801b50:	00802074 	movhi	r2,129
  801b54:	10ab3d04 	addi	r2,r2,-21260
  801b58:	d8800115 	stw	r2,4(sp)
  801b5c:	00804004 	movi	r2,256
  801b60:	d8800215 	stw	r2,8(sp)
  801b64:	d8000315 	stw	zero,12(sp)
  801b68:	00800044 	movi	r2,1
  801b6c:	d8800415 	stw	r2,16(sp)
  801b70:	01002034 	movhi	r4,128
  801b74:	21054c04 	addi	r4,r4,5424
  801b78:	000b883a 	mov	r5,zero
  801b7c:	01c00404 	movi	r7,16
  801b80:	08060c00 	call	8060c0 <OSTaskCreateExt>
  801b84:	e0bffe05 	stb	r2,-8(fp)
				// of task stack
				EXTRALOAD_PRIO, EXTRALOAD_PRIO, (void *) &Extraload_Stack[0],
				TASK_STACKSIZE, (void *) 0, OS_TASK_OPT_STK_CHK);
//	if(err != 0) alt_printf("Problem creating task : Extraload\n");

	err = OSTaskCreateExt(
  801b88:	01802074 	movhi	r6,129
  801b8c:	31a73c04 	addi	r6,r6,-25360
  801b90:	00800484 	movi	r2,18
  801b94:	d8800015 	stw	r2,0(sp)
  801b98:	00802074 	movhi	r2,129
  801b9c:	10a63d04 	addi	r2,r2,-26380
  801ba0:	d8800115 	stw	r2,4(sp)
  801ba4:	00804004 	movi	r2,256
  801ba8:	d8800215 	stw	r2,8(sp)
  801bac:	d8000315 	stw	zero,12(sp)
  801bb0:	00800044 	movi	r2,1
  801bb4:	d8800415 	stw	r2,16(sp)
  801bb8:	01002034 	movhi	r4,128
  801bbc:	21053f04 	addi	r4,r4,5372
  801bc0:	000b883a 	mov	r5,zero
  801bc4:	01c00484 	movi	r7,18
  801bc8:	08060c00 	call	8060c0 <OSTaskCreateExt>
  801bcc:	e0bffe05 	stb	r2,-8(fp)
//	if(err != 0) alt_printf("Problem creating task : Overload\n");

#ifdef DEBUG

	if (DEBUG == 1) {
		OSTaskCreateExt(statisticTask, 				// Pointer to task code
  801bd0:	01802074 	movhi	r6,129
  801bd4:	31ab3c04 	addi	r6,r6,-21264
  801bd8:	00800084 	movi	r2,2
  801bdc:	d8800015 	stw	r2,0(sp)
  801be0:	00802074 	movhi	r2,129
  801be4:	10aa3d04 	addi	r2,r2,-22284
  801be8:	d8800115 	stw	r2,4(sp)
  801bec:	00804004 	movi	r2,256
  801bf0:	d8800215 	stw	r2,8(sp)
  801bf4:	d8000315 	stw	zero,12(sp)
  801bf8:	008000c4 	movi	r2,3
  801bfc:	d8800415 	stw	r2,16(sp)
  801c00:	01002034 	movhi	r4,128
  801c04:	2100a104 	addi	r4,r4,644
  801c08:	000b883a 	mov	r5,zero
  801c0c:	01c00084 	movi	r7,2
  801c10:	08060c00 	call	8060c0 <OSTaskCreateExt>

#endif



	alt_printf("All Tasks and Kernel Objects generated!\n");
  801c14:	01002074 	movhi	r4,129
  801c18:	21218004 	addi	r4,r4,-31232
  801c1c:	0803a700 	call	803a70 <alt_printf>

	/* Task deletes itself */

	OSTaskDel(OS_PRIO_SELF);
  801c20:	01003fc4 	movi	r4,255
  801c24:	08062280 	call	806228 <OSTaskDel>
}
  801c28:	e037883a 	mov	sp,fp
  801c2c:	dfc00117 	ldw	ra,4(sp)
  801c30:	df000017 	ldw	fp,0(sp)
  801c34:	dec00204 	addi	sp,sp,8
  801c38:	f800283a 	ret

00801c3c <main>:
 * The function 'main' creates only a single task 'StartTask' and starts
 * the OS. All other tasks are started from the task 'StartTask'.
 *
 */

int main(void) {
  801c3c:	defff904 	addi	sp,sp,-28
  801c40:	dfc00615 	stw	ra,24(sp)
  801c44:	df000515 	stw	fp,20(sp)
  801c48:	df000504 	addi	fp,sp,20

	alt_printf("Lab2: Cruise Control\n");
  801c4c:	01002074 	movhi	r4,129
  801c50:	21218b04 	addi	r4,r4,-31188
  801c54:	0803a700 	call	803a70 <alt_printf>

	OSTaskCreateExt(
  801c58:	01802074 	movhi	r6,129
  801c5c:	31aa3c04 	addi	r6,r6,-22288
  801c60:	00800144 	movi	r2,5
  801c64:	d8800015 	stw	r2,0(sp)
  801c68:	00802074 	movhi	r2,129
  801c6c:	10a93d04 	addi	r2,r2,-23308
  801c70:	d8800115 	stw	r2,4(sp)
  801c74:	00804004 	movi	r2,256
  801c78:	d8800215 	stw	r2,8(sp)
  801c7c:	d8000315 	stw	zero,12(sp)
  801c80:	008000c4 	movi	r2,3
  801c84:	d8800415 	stw	r2,16(sp)
  801c88:	01002034 	movhi	r4,128
  801c8c:	2105a604 	addi	r4,r4,5784
  801c90:	000b883a 	mov	r5,zero
  801c94:	01c00144 	movi	r7,5
  801c98:	08060c00 	call	8060c0 <OSTaskCreateExt>
			// of task stack
			STARTTASK_PRIO, STARTTASK_PRIO, (void *) &StartTask_Stack[0],
			TASK_STACKSIZE, (void *) 0,
			OS_TASK_OPT_STK_CHK | OS_TASK_OPT_STK_CLR);

	OSStart();
  801c9c:	08041e40 	call	8041e4 <OSStart>

	return 0;
  801ca0:	0005883a 	mov	r2,zero
}
  801ca4:	e037883a 	mov	sp,fp
  801ca8:	dfc00117 	ldw	ra,4(sp)
  801cac:	df000017 	ldw	fp,0(sp)
  801cb0:	dec00204 	addi	sp,sp,8
  801cb4:	f800283a 	ret

00801cb8 <__floatsisf>:
  801cb8:	2006d7fa 	srli	r3,r4,31
  801cbc:	defffa04 	addi	sp,sp,-24
  801cc0:	008000c4 	movi	r2,3
  801cc4:	dfc00515 	stw	ra,20(sp)
  801cc8:	dc000415 	stw	r16,16(sp)
  801ccc:	d8800015 	stw	r2,0(sp)
  801cd0:	d8c00115 	stw	r3,4(sp)
  801cd4:	2000081e 	bne	r4,zero,801cf8 <__floatsisf+0x40>
  801cd8:	00800084 	movi	r2,2
  801cdc:	d8800015 	stw	r2,0(sp)
  801ce0:	d809883a 	mov	r4,sp
  801ce4:	080290c0 	call	80290c <__pack_f>
  801ce8:	dfc00517 	ldw	ra,20(sp)
  801cec:	dc000417 	ldw	r16,16(sp)
  801cf0:	dec00604 	addi	sp,sp,24
  801cf4:	f800283a 	ret
  801cf8:	00800784 	movi	r2,30
  801cfc:	1807003a 	cmpeq	r3,r3,zero
  801d00:	d8800215 	stw	r2,8(sp)
  801d04:	18000e1e 	bne	r3,zero,801d40 <__floatsisf+0x88>
  801d08:	00a00034 	movhi	r2,32768
  801d0c:	20800e26 	beq	r4,r2,801d48 <__floatsisf+0x90>
  801d10:	0121c83a 	sub	r16,zero,r4
  801d14:	8009883a 	mov	r4,r16
  801d18:	dc000315 	stw	r16,12(sp)
  801d1c:	080288c0 	call	80288c <__clzsi2>
  801d20:	117fffc4 	addi	r5,r2,-1
  801d24:	017fee0e 	bge	zero,r5,801ce0 <__floatsisf+0x28>
  801d28:	d8800217 	ldw	r2,8(sp)
  801d2c:	8146983a 	sll	r3,r16,r5
  801d30:	1145c83a 	sub	r2,r2,r5
  801d34:	d8c00315 	stw	r3,12(sp)
  801d38:	d8800215 	stw	r2,8(sp)
  801d3c:	003fe806 	br	801ce0 <__floatsisf+0x28>
  801d40:	2021883a 	mov	r16,r4
  801d44:	003ff306 	br	801d14 <__floatsisf+0x5c>
  801d48:	00b3c034 	movhi	r2,52992
  801d4c:	003fe606 	br	801ce8 <__floatsisf+0x30>

00801d50 <__extendsfdf2>:
  801d50:	defff904 	addi	sp,sp,-28
  801d54:	d9000115 	stw	r4,4(sp)
  801d58:	d9400204 	addi	r5,sp,8
  801d5c:	d9000104 	addi	r4,sp,4
  801d60:	dfc00615 	stw	ra,24(sp)
  801d64:	0802a6c0 	call	802a6c <__unpack_f>
  801d68:	d9c00517 	ldw	r7,20(sp)
  801d6c:	0011883a 	mov	r8,zero
  801d70:	400697ba 	slli	r3,r8,30
  801d74:	3812d0ba 	srli	r9,r7,2
  801d78:	380497ba 	slli	r2,r7,30
  801d7c:	d9000217 	ldw	r4,8(sp)
  801d80:	d9400317 	ldw	r5,12(sp)
  801d84:	d9800417 	ldw	r6,16(sp)
  801d88:	48c6b03a 	or	r3,r9,r3
  801d8c:	100f883a 	mov	r7,r2
  801d90:	d8c00015 	stw	r3,0(sp)
  801d94:	08026d00 	call	8026d0 <__make_dp>
  801d98:	dfc00617 	ldw	ra,24(sp)
  801d9c:	dec00704 	addi	sp,sp,28
  801da0:	f800283a 	ret

00801da4 <_fpadd_parts>:
  801da4:	defff804 	addi	sp,sp,-32
  801da8:	dcc00315 	stw	r19,12(sp)
  801dac:	2027883a 	mov	r19,r4
  801db0:	21000017 	ldw	r4,0(r4)
  801db4:	00c00044 	movi	r3,1
  801db8:	dd400515 	stw	r21,20(sp)
  801dbc:	dd000415 	stw	r20,16(sp)
  801dc0:	ddc00715 	stw	r23,28(sp)
  801dc4:	dd800615 	stw	r22,24(sp)
  801dc8:	dc800215 	stw	r18,8(sp)
  801dcc:	dc400115 	stw	r17,4(sp)
  801dd0:	dc000015 	stw	r16,0(sp)
  801dd4:	282b883a 	mov	r21,r5
  801dd8:	3029883a 	mov	r20,r6
  801ddc:	1900632e 	bgeu	r3,r4,801f6c <_fpadd_parts+0x1c8>
  801de0:	28800017 	ldw	r2,0(r5)
  801de4:	1880812e 	bgeu	r3,r2,801fec <_fpadd_parts+0x248>
  801de8:	00c00104 	movi	r3,4
  801dec:	20c0dc26 	beq	r4,r3,802160 <_fpadd_parts+0x3bc>
  801df0:	10c07e26 	beq	r2,r3,801fec <_fpadd_parts+0x248>
  801df4:	00c00084 	movi	r3,2
  801df8:	10c06726 	beq	r2,r3,801f98 <_fpadd_parts+0x1f4>
  801dfc:	20c07b26 	beq	r4,r3,801fec <_fpadd_parts+0x248>
  801e00:	9dc00217 	ldw	r23,8(r19)
  801e04:	28c00217 	ldw	r3,8(r5)
  801e08:	9c400317 	ldw	r17,12(r19)
  801e0c:	2bc00317 	ldw	r15,12(r5)
  801e10:	b8cdc83a 	sub	r6,r23,r3
  801e14:	9c800417 	ldw	r18,16(r19)
  801e18:	2c000417 	ldw	r16,16(r5)
  801e1c:	3009883a 	mov	r4,r6
  801e20:	30009716 	blt	r6,zero,802080 <_fpadd_parts+0x2dc>
  801e24:	00800fc4 	movi	r2,63
  801e28:	11806b16 	blt	r2,r6,801fd8 <_fpadd_parts+0x234>
  801e2c:	0100a40e 	bge	zero,r4,8020c0 <_fpadd_parts+0x31c>
  801e30:	35bff804 	addi	r22,r6,-32
  801e34:	b000bc16 	blt	r22,zero,802128 <_fpadd_parts+0x384>
  801e38:	8596d83a 	srl	r11,r16,r22
  801e3c:	0019883a 	mov	r12,zero
  801e40:	0013883a 	mov	r9,zero
  801e44:	01000044 	movi	r4,1
  801e48:	0015883a 	mov	r10,zero
  801e4c:	b000be16 	blt	r22,zero,802148 <_fpadd_parts+0x3a4>
  801e50:	2590983a 	sll	r8,r4,r22
  801e54:	000f883a 	mov	r7,zero
  801e58:	00bfffc4 	movi	r2,-1
  801e5c:	3889883a 	add	r4,r7,r2
  801e60:	408b883a 	add	r5,r8,r2
  801e64:	21cd803a 	cmpltu	r6,r4,r7
  801e68:	314b883a 	add	r5,r6,r5
  801e6c:	7904703a 	and	r2,r15,r4
  801e70:	8146703a 	and	r3,r16,r5
  801e74:	10c4b03a 	or	r2,r2,r3
  801e78:	10000226 	beq	r2,zero,801e84 <_fpadd_parts+0xe0>
  801e7c:	02400044 	movi	r9,1
  801e80:	0015883a 	mov	r10,zero
  801e84:	5a5eb03a 	or	r15,r11,r9
  801e88:	62a0b03a 	or	r16,r12,r10
  801e8c:	99400117 	ldw	r5,4(r19)
  801e90:	a8800117 	ldw	r2,4(r21)
  801e94:	28806e26 	beq	r5,r2,802050 <_fpadd_parts+0x2ac>
  801e98:	28006626 	beq	r5,zero,802034 <_fpadd_parts+0x290>
  801e9c:	7c45c83a 	sub	r2,r15,r17
  801ea0:	7889803a 	cmpltu	r4,r15,r2
  801ea4:	8487c83a 	sub	r3,r16,r18
  801ea8:	1909c83a 	sub	r4,r3,r4
  801eac:	100d883a 	mov	r6,r2
  801eb0:	200f883a 	mov	r7,r4
  801eb4:	38007716 	blt	r7,zero,802094 <_fpadd_parts+0x2f0>
  801eb8:	a5c00215 	stw	r23,8(r20)
  801ebc:	a1c00415 	stw	r7,16(r20)
  801ec0:	a0000115 	stw	zero,4(r20)
  801ec4:	a1800315 	stw	r6,12(r20)
  801ec8:	a2000317 	ldw	r8,12(r20)
  801ecc:	a2400417 	ldw	r9,16(r20)
  801ed0:	00bfffc4 	movi	r2,-1
  801ed4:	408b883a 	add	r5,r8,r2
  801ed8:	2a09803a 	cmpltu	r4,r5,r8
  801edc:	488d883a 	add	r6,r9,r2
  801ee0:	01c40034 	movhi	r7,4096
  801ee4:	39ffffc4 	addi	r7,r7,-1
  801ee8:	218d883a 	add	r6,r4,r6
  801eec:	39801736 	bltu	r7,r6,801f4c <_fpadd_parts+0x1a8>
  801ef0:	31c06526 	beq	r6,r7,802088 <_fpadd_parts+0x2e4>
  801ef4:	a3000217 	ldw	r12,8(r20)
  801ef8:	4209883a 	add	r4,r8,r8
  801efc:	00bfffc4 	movi	r2,-1
  801f00:	220f803a 	cmpltu	r7,r4,r8
  801f04:	4a4b883a 	add	r5,r9,r9
  801f08:	394f883a 	add	r7,r7,r5
  801f0c:	2095883a 	add	r10,r4,r2
  801f10:	3897883a 	add	r11,r7,r2
  801f14:	510d803a 	cmpltu	r6,r10,r4
  801f18:	6099883a 	add	r12,r12,r2
  801f1c:	32d7883a 	add	r11,r6,r11
  801f20:	00840034 	movhi	r2,4096
  801f24:	10bfffc4 	addi	r2,r2,-1
  801f28:	2011883a 	mov	r8,r4
  801f2c:	3813883a 	mov	r9,r7
  801f30:	a1000315 	stw	r4,12(r20)
  801f34:	a1c00415 	stw	r7,16(r20)
  801f38:	a3000215 	stw	r12,8(r20)
  801f3c:	12c00336 	bltu	r2,r11,801f4c <_fpadd_parts+0x1a8>
  801f40:	58bfed1e 	bne	r11,r2,801ef8 <_fpadd_parts+0x154>
  801f44:	00bfff84 	movi	r2,-2
  801f48:	12bfeb2e 	bgeu	r2,r10,801ef8 <_fpadd_parts+0x154>
  801f4c:	a2800417 	ldw	r10,16(r20)
  801f50:	008000c4 	movi	r2,3
  801f54:	00c80034 	movhi	r3,8192
  801f58:	18ffffc4 	addi	r3,r3,-1
  801f5c:	a2400317 	ldw	r9,12(r20)
  801f60:	a0800015 	stw	r2,0(r20)
  801f64:	1a802336 	bltu	r3,r10,801ff4 <_fpadd_parts+0x250>
  801f68:	a027883a 	mov	r19,r20
  801f6c:	9805883a 	mov	r2,r19
  801f70:	ddc00717 	ldw	r23,28(sp)
  801f74:	dd800617 	ldw	r22,24(sp)
  801f78:	dd400517 	ldw	r21,20(sp)
  801f7c:	dd000417 	ldw	r20,16(sp)
  801f80:	dcc00317 	ldw	r19,12(sp)
  801f84:	dc800217 	ldw	r18,8(sp)
  801f88:	dc400117 	ldw	r17,4(sp)
  801f8c:	dc000017 	ldw	r16,0(sp)
  801f90:	dec00804 	addi	sp,sp,32
  801f94:	f800283a 	ret
  801f98:	20fff41e 	bne	r4,r3,801f6c <_fpadd_parts+0x1c8>
  801f9c:	31000015 	stw	r4,0(r6)
  801fa0:	98800117 	ldw	r2,4(r19)
  801fa4:	30800115 	stw	r2,4(r6)
  801fa8:	98c00217 	ldw	r3,8(r19)
  801fac:	30c00215 	stw	r3,8(r6)
  801fb0:	98800317 	ldw	r2,12(r19)
  801fb4:	30800315 	stw	r2,12(r6)
  801fb8:	98c00417 	ldw	r3,16(r19)
  801fbc:	30c00415 	stw	r3,16(r6)
  801fc0:	98800117 	ldw	r2,4(r19)
  801fc4:	28c00117 	ldw	r3,4(r5)
  801fc8:	3027883a 	mov	r19,r6
  801fcc:	10c4703a 	and	r2,r2,r3
  801fd0:	30800115 	stw	r2,4(r6)
  801fd4:	003fe506 	br	801f6c <_fpadd_parts+0x1c8>
  801fd8:	1dc02616 	blt	r3,r23,802074 <_fpadd_parts+0x2d0>
  801fdc:	0023883a 	mov	r17,zero
  801fe0:	182f883a 	mov	r23,r3
  801fe4:	0025883a 	mov	r18,zero
  801fe8:	003fa806 	br	801e8c <_fpadd_parts+0xe8>
  801fec:	a827883a 	mov	r19,r21
  801ff0:	003fde06 	br	801f6c <_fpadd_parts+0x1c8>
  801ff4:	01800044 	movi	r6,1
  801ff8:	500497fa 	slli	r2,r10,31
  801ffc:	4808d07a 	srli	r4,r9,1
  802000:	518ad83a 	srl	r5,r10,r6
  802004:	a2000217 	ldw	r8,8(r20)
  802008:	1108b03a 	or	r4,r2,r4
  80200c:	0007883a 	mov	r3,zero
  802010:	4984703a 	and	r2,r9,r6
  802014:	208cb03a 	or	r6,r4,r2
  802018:	28ceb03a 	or	r7,r5,r3
  80201c:	42000044 	addi	r8,r8,1
  802020:	a027883a 	mov	r19,r20
  802024:	a1c00415 	stw	r7,16(r20)
  802028:	a2000215 	stw	r8,8(r20)
  80202c:	a1800315 	stw	r6,12(r20)
  802030:	003fce06 	br	801f6c <_fpadd_parts+0x1c8>
  802034:	8bc5c83a 	sub	r2,r17,r15
  802038:	8889803a 	cmpltu	r4,r17,r2
  80203c:	9407c83a 	sub	r3,r18,r16
  802040:	1909c83a 	sub	r4,r3,r4
  802044:	100d883a 	mov	r6,r2
  802048:	200f883a 	mov	r7,r4
  80204c:	003f9906 	br	801eb4 <_fpadd_parts+0x110>
  802050:	7c45883a 	add	r2,r15,r17
  802054:	13c9803a 	cmpltu	r4,r2,r15
  802058:	8487883a 	add	r3,r16,r18
  80205c:	20c9883a 	add	r4,r4,r3
  802060:	a1400115 	stw	r5,4(r20)
  802064:	a5c00215 	stw	r23,8(r20)
  802068:	a0800315 	stw	r2,12(r20)
  80206c:	a1000415 	stw	r4,16(r20)
  802070:	003fb606 	br	801f4c <_fpadd_parts+0x1a8>
  802074:	001f883a 	mov	r15,zero
  802078:	0021883a 	mov	r16,zero
  80207c:	003f8306 	br	801e8c <_fpadd_parts+0xe8>
  802080:	018dc83a 	sub	r6,zero,r6
  802084:	003f6706 	br	801e24 <_fpadd_parts+0x80>
  802088:	00bfff84 	movi	r2,-2
  80208c:	117faf36 	bltu	r2,r5,801f4c <_fpadd_parts+0x1a8>
  802090:	003f9806 	br	801ef4 <_fpadd_parts+0x150>
  802094:	0005883a 	mov	r2,zero
  802098:	1189c83a 	sub	r4,r2,r6
  80209c:	1105803a 	cmpltu	r2,r2,r4
  8020a0:	01cbc83a 	sub	r5,zero,r7
  8020a4:	2885c83a 	sub	r2,r5,r2
  8020a8:	01800044 	movi	r6,1
  8020ac:	a1800115 	stw	r6,4(r20)
  8020b0:	a5c00215 	stw	r23,8(r20)
  8020b4:	a1000315 	stw	r4,12(r20)
  8020b8:	a0800415 	stw	r2,16(r20)
  8020bc:	003f8206 	br	801ec8 <_fpadd_parts+0x124>
  8020c0:	203f7226 	beq	r4,zero,801e8c <_fpadd_parts+0xe8>
  8020c4:	35bff804 	addi	r22,r6,-32
  8020c8:	b9af883a 	add	r23,r23,r6
  8020cc:	b0003116 	blt	r22,zero,802194 <_fpadd_parts+0x3f0>
  8020d0:	959ad83a 	srl	r13,r18,r22
  8020d4:	001d883a 	mov	r14,zero
  8020d8:	000f883a 	mov	r7,zero
  8020dc:	01000044 	movi	r4,1
  8020e0:	0011883a 	mov	r8,zero
  8020e4:	b0002516 	blt	r22,zero,80217c <_fpadd_parts+0x3d8>
  8020e8:	2594983a 	sll	r10,r4,r22
  8020ec:	0013883a 	mov	r9,zero
  8020f0:	00bfffc4 	movi	r2,-1
  8020f4:	4889883a 	add	r4,r9,r2
  8020f8:	508b883a 	add	r5,r10,r2
  8020fc:	224d803a 	cmpltu	r6,r4,r9
  802100:	314b883a 	add	r5,r6,r5
  802104:	8904703a 	and	r2,r17,r4
  802108:	9146703a 	and	r3,r18,r5
  80210c:	10c4b03a 	or	r2,r2,r3
  802110:	10000226 	beq	r2,zero,80211c <_fpadd_parts+0x378>
  802114:	01c00044 	movi	r7,1
  802118:	0011883a 	mov	r8,zero
  80211c:	69e2b03a 	or	r17,r13,r7
  802120:	7224b03a 	or	r18,r14,r8
  802124:	003f5906 	br	801e8c <_fpadd_parts+0xe8>
  802128:	8407883a 	add	r3,r16,r16
  80212c:	008007c4 	movi	r2,31
  802130:	1185c83a 	sub	r2,r2,r6
  802134:	1886983a 	sll	r3,r3,r2
  802138:	7996d83a 	srl	r11,r15,r6
  80213c:	8198d83a 	srl	r12,r16,r6
  802140:	1ad6b03a 	or	r11,r3,r11
  802144:	003f3e06 	br	801e40 <_fpadd_parts+0x9c>
  802148:	2006d07a 	srli	r3,r4,1
  80214c:	008007c4 	movi	r2,31
  802150:	1185c83a 	sub	r2,r2,r6
  802154:	1890d83a 	srl	r8,r3,r2
  802158:	218e983a 	sll	r7,r4,r6
  80215c:	003f3e06 	br	801e58 <_fpadd_parts+0xb4>
  802160:	113f821e 	bne	r2,r4,801f6c <_fpadd_parts+0x1c8>
  802164:	28c00117 	ldw	r3,4(r5)
  802168:	98800117 	ldw	r2,4(r19)
  80216c:	10ff7f26 	beq	r2,r3,801f6c <_fpadd_parts+0x1c8>
  802170:	04c02074 	movhi	r19,129
  802174:	9ce19104 	addi	r19,r19,-31164
  802178:	003f7c06 	br	801f6c <_fpadd_parts+0x1c8>
  80217c:	2006d07a 	srli	r3,r4,1
  802180:	008007c4 	movi	r2,31
  802184:	1185c83a 	sub	r2,r2,r6
  802188:	1894d83a 	srl	r10,r3,r2
  80218c:	2192983a 	sll	r9,r4,r6
  802190:	003fd706 	br	8020f0 <_fpadd_parts+0x34c>
  802194:	9487883a 	add	r3,r18,r18
  802198:	008007c4 	movi	r2,31
  80219c:	1185c83a 	sub	r2,r2,r6
  8021a0:	1886983a 	sll	r3,r3,r2
  8021a4:	899ad83a 	srl	r13,r17,r6
  8021a8:	919cd83a 	srl	r14,r18,r6
  8021ac:	1b5ab03a 	or	r13,r3,r13
  8021b0:	003fc906 	br	8020d8 <_fpadd_parts+0x334>

008021b4 <__subdf3>:
  8021b4:	deffea04 	addi	sp,sp,-88
  8021b8:	dcc01415 	stw	r19,80(sp)
  8021bc:	dcc00404 	addi	r19,sp,16
  8021c0:	2011883a 	mov	r8,r4
  8021c4:	2813883a 	mov	r9,r5
  8021c8:	dc401315 	stw	r17,76(sp)
  8021cc:	d809883a 	mov	r4,sp
  8021d0:	980b883a 	mov	r5,r19
  8021d4:	dc400904 	addi	r17,sp,36
  8021d8:	dfc01515 	stw	ra,84(sp)
  8021dc:	da400115 	stw	r9,4(sp)
  8021e0:	d9c00315 	stw	r7,12(sp)
  8021e4:	da000015 	stw	r8,0(sp)
  8021e8:	d9800215 	stw	r6,8(sp)
  8021ec:	0802e480 	call	802e48 <__unpack_d>
  8021f0:	d9000204 	addi	r4,sp,8
  8021f4:	880b883a 	mov	r5,r17
  8021f8:	0802e480 	call	802e48 <__unpack_d>
  8021fc:	d8800a17 	ldw	r2,40(sp)
  802200:	880b883a 	mov	r5,r17
  802204:	9809883a 	mov	r4,r19
  802208:	d9800e04 	addi	r6,sp,56
  80220c:	1080005c 	xori	r2,r2,1
  802210:	d8800a15 	stw	r2,40(sp)
  802214:	0801da40 	call	801da4 <_fpadd_parts>
  802218:	1009883a 	mov	r4,r2
  80221c:	0802b340 	call	802b34 <__pack_d>
  802220:	dfc01517 	ldw	ra,84(sp)
  802224:	dcc01417 	ldw	r19,80(sp)
  802228:	dc401317 	ldw	r17,76(sp)
  80222c:	dec01604 	addi	sp,sp,88
  802230:	f800283a 	ret

00802234 <__adddf3>:
  802234:	deffea04 	addi	sp,sp,-88
  802238:	dcc01415 	stw	r19,80(sp)
  80223c:	dcc00404 	addi	r19,sp,16
  802240:	2011883a 	mov	r8,r4
  802244:	2813883a 	mov	r9,r5
  802248:	dc401315 	stw	r17,76(sp)
  80224c:	d809883a 	mov	r4,sp
  802250:	980b883a 	mov	r5,r19
  802254:	dc400904 	addi	r17,sp,36
  802258:	dfc01515 	stw	ra,84(sp)
  80225c:	da400115 	stw	r9,4(sp)
  802260:	d9c00315 	stw	r7,12(sp)
  802264:	da000015 	stw	r8,0(sp)
  802268:	d9800215 	stw	r6,8(sp)
  80226c:	0802e480 	call	802e48 <__unpack_d>
  802270:	d9000204 	addi	r4,sp,8
  802274:	880b883a 	mov	r5,r17
  802278:	0802e480 	call	802e48 <__unpack_d>
  80227c:	d9800e04 	addi	r6,sp,56
  802280:	9809883a 	mov	r4,r19
  802284:	880b883a 	mov	r5,r17
  802288:	0801da40 	call	801da4 <_fpadd_parts>
  80228c:	1009883a 	mov	r4,r2
  802290:	0802b340 	call	802b34 <__pack_d>
  802294:	dfc01517 	ldw	ra,84(sp)
  802298:	dcc01417 	ldw	r19,80(sp)
  80229c:	dc401317 	ldw	r17,76(sp)
  8022a0:	dec01604 	addi	sp,sp,88
  8022a4:	f800283a 	ret

008022a8 <__divdf3>:
  8022a8:	deffed04 	addi	sp,sp,-76
  8022ac:	dcc01115 	stw	r19,68(sp)
  8022b0:	dcc00404 	addi	r19,sp,16
  8022b4:	2011883a 	mov	r8,r4
  8022b8:	2813883a 	mov	r9,r5
  8022bc:	dc000e15 	stw	r16,56(sp)
  8022c0:	d809883a 	mov	r4,sp
  8022c4:	980b883a 	mov	r5,r19
  8022c8:	dc000904 	addi	r16,sp,36
  8022cc:	dfc01215 	stw	ra,72(sp)
  8022d0:	da400115 	stw	r9,4(sp)
  8022d4:	d9c00315 	stw	r7,12(sp)
  8022d8:	da000015 	stw	r8,0(sp)
  8022dc:	d9800215 	stw	r6,8(sp)
  8022e0:	dc801015 	stw	r18,64(sp)
  8022e4:	dc400f15 	stw	r17,60(sp)
  8022e8:	0802e480 	call	802e48 <__unpack_d>
  8022ec:	d9000204 	addi	r4,sp,8
  8022f0:	800b883a 	mov	r5,r16
  8022f4:	0802e480 	call	802e48 <__unpack_d>
  8022f8:	d9000417 	ldw	r4,16(sp)
  8022fc:	00800044 	movi	r2,1
  802300:	11000b2e 	bgeu	r2,r4,802330 <__divdf3+0x88>
  802304:	d9400917 	ldw	r5,36(sp)
  802308:	1140762e 	bgeu	r2,r5,8024e4 <__divdf3+0x23c>
  80230c:	d8800517 	ldw	r2,20(sp)
  802310:	d8c00a17 	ldw	r3,40(sp)
  802314:	01800104 	movi	r6,4
  802318:	10c4f03a 	xor	r2,r2,r3
  80231c:	d8800515 	stw	r2,20(sp)
  802320:	21800226 	beq	r4,r6,80232c <__divdf3+0x84>
  802324:	00800084 	movi	r2,2
  802328:	2080141e 	bne	r4,r2,80237c <__divdf3+0xd4>
  80232c:	29000926 	beq	r5,r4,802354 <__divdf3+0xac>
  802330:	9809883a 	mov	r4,r19
  802334:	0802b340 	call	802b34 <__pack_d>
  802338:	dfc01217 	ldw	ra,72(sp)
  80233c:	dcc01117 	ldw	r19,68(sp)
  802340:	dc801017 	ldw	r18,64(sp)
  802344:	dc400f17 	ldw	r17,60(sp)
  802348:	dc000e17 	ldw	r16,56(sp)
  80234c:	dec01304 	addi	sp,sp,76
  802350:	f800283a 	ret
  802354:	01002074 	movhi	r4,129
  802358:	21219104 	addi	r4,r4,-31164
  80235c:	0802b340 	call	802b34 <__pack_d>
  802360:	dfc01217 	ldw	ra,72(sp)
  802364:	dcc01117 	ldw	r19,68(sp)
  802368:	dc801017 	ldw	r18,64(sp)
  80236c:	dc400f17 	ldw	r17,60(sp)
  802370:	dc000e17 	ldw	r16,56(sp)
  802374:	dec01304 	addi	sp,sp,76
  802378:	f800283a 	ret
  80237c:	29805b26 	beq	r5,r6,8024ec <__divdf3+0x244>
  802380:	28802d26 	beq	r5,r2,802438 <__divdf3+0x190>
  802384:	d8c00617 	ldw	r3,24(sp)
  802388:	d8800b17 	ldw	r2,44(sp)
  80238c:	d9c00817 	ldw	r7,32(sp)
  802390:	dc400d17 	ldw	r17,52(sp)
  802394:	188bc83a 	sub	r5,r3,r2
  802398:	d9800717 	ldw	r6,28(sp)
  80239c:	dc000c17 	ldw	r16,48(sp)
  8023a0:	d9400615 	stw	r5,24(sp)
  8023a4:	3c403836 	bltu	r7,r17,802488 <__divdf3+0x1e0>
  8023a8:	89c03626 	beq	r17,r7,802484 <__divdf3+0x1dc>
  8023ac:	0015883a 	mov	r10,zero
  8023b0:	001d883a 	mov	r14,zero
  8023b4:	02c40034 	movhi	r11,4096
  8023b8:	001f883a 	mov	r15,zero
  8023bc:	003f883a 	mov	ra,zero
  8023c0:	04800f44 	movi	r18,61
  8023c4:	00000f06 	br	802404 <__divdf3+0x15c>
  8023c8:	601d883a 	mov	r14,r12
  8023cc:	681f883a 	mov	r15,r13
  8023d0:	400d883a 	mov	r6,r8
  8023d4:	100f883a 	mov	r7,r2
  8023d8:	3191883a 	add	r8,r6,r6
  8023dc:	5808d07a 	srli	r4,r11,1
  8023e0:	4185803a 	cmpltu	r2,r8,r6
  8023e4:	39d3883a 	add	r9,r7,r7
  8023e8:	28c6b03a 	or	r3,r5,r3
  8023ec:	1245883a 	add	r2,r2,r9
  8023f0:	1815883a 	mov	r10,r3
  8023f4:	2017883a 	mov	r11,r4
  8023f8:	400d883a 	mov	r6,r8
  8023fc:	100f883a 	mov	r7,r2
  802400:	fc801726 	beq	ra,r18,802460 <__divdf3+0x1b8>
  802404:	580a97fa 	slli	r5,r11,31
  802408:	5006d07a 	srli	r3,r10,1
  80240c:	ffc00044 	addi	ra,ra,1
  802410:	3c7ff136 	bltu	r7,r17,8023d8 <__divdf3+0x130>
  802414:	3411c83a 	sub	r8,r6,r16
  802418:	3205803a 	cmpltu	r2,r6,r8
  80241c:	3c53c83a 	sub	r9,r7,r17
  802420:	7298b03a 	or	r12,r14,r10
  802424:	7adab03a 	or	r13,r15,r11
  802428:	4885c83a 	sub	r2,r9,r2
  80242c:	89ffe61e 	bne	r17,r7,8023c8 <__divdf3+0x120>
  802430:	343fe936 	bltu	r6,r16,8023d8 <__divdf3+0x130>
  802434:	003fe406 	br	8023c8 <__divdf3+0x120>
  802438:	9809883a 	mov	r4,r19
  80243c:	d9800415 	stw	r6,16(sp)
  802440:	0802b340 	call	802b34 <__pack_d>
  802444:	dfc01217 	ldw	ra,72(sp)
  802448:	dcc01117 	ldw	r19,68(sp)
  80244c:	dc801017 	ldw	r18,64(sp)
  802450:	dc400f17 	ldw	r17,60(sp)
  802454:	dc000e17 	ldw	r16,56(sp)
  802458:	dec01304 	addi	sp,sp,76
  80245c:	f800283a 	ret
  802460:	00803fc4 	movi	r2,255
  802464:	7090703a 	and	r8,r14,r2
  802468:	00802004 	movi	r2,128
  80246c:	0007883a 	mov	r3,zero
  802470:	0013883a 	mov	r9,zero
  802474:	40800d26 	beq	r8,r2,8024ac <__divdf3+0x204>
  802478:	dbc00815 	stw	r15,32(sp)
  80247c:	db800715 	stw	r14,28(sp)
  802480:	003fab06 	br	802330 <__divdf3+0x88>
  802484:	343fc92e 	bgeu	r6,r16,8023ac <__divdf3+0x104>
  802488:	3185883a 	add	r2,r6,r6
  80248c:	1189803a 	cmpltu	r4,r2,r6
  802490:	39c7883a 	add	r3,r7,r7
  802494:	20c9883a 	add	r4,r4,r3
  802498:	297fffc4 	addi	r5,r5,-1
  80249c:	100d883a 	mov	r6,r2
  8024a0:	200f883a 	mov	r7,r4
  8024a4:	d9400615 	stw	r5,24(sp)
  8024a8:	003fc006 	br	8023ac <__divdf3+0x104>
  8024ac:	483ff21e 	bne	r9,zero,802478 <__divdf3+0x1d0>
  8024b0:	01004004 	movi	r4,256
  8024b4:	7104703a 	and	r2,r14,r4
  8024b8:	10c4b03a 	or	r2,r2,r3
  8024bc:	103fee1e 	bne	r2,zero,802478 <__divdf3+0x1d0>
  8024c0:	31c4b03a 	or	r2,r6,r7
  8024c4:	103fec26 	beq	r2,zero,802478 <__divdf3+0x1d0>
  8024c8:	7205883a 	add	r2,r14,r8
  8024cc:	1391803a 	cmpltu	r8,r2,r14
  8024d0:	43d1883a 	add	r8,r8,r15
  8024d4:	013fc004 	movi	r4,-256
  8024d8:	111c703a 	and	r14,r2,r4
  8024dc:	401f883a 	mov	r15,r8
  8024e0:	003fe506 	br	802478 <__divdf3+0x1d0>
  8024e4:	8009883a 	mov	r4,r16
  8024e8:	003f9206 	br	802334 <__divdf3+0x8c>
  8024ec:	9809883a 	mov	r4,r19
  8024f0:	d8000715 	stw	zero,28(sp)
  8024f4:	d8000815 	stw	zero,32(sp)
  8024f8:	d8000615 	stw	zero,24(sp)
  8024fc:	003f8d06 	br	802334 <__divdf3+0x8c>

00802500 <__floatsidf>:
  802500:	2006d7fa 	srli	r3,r4,31
  802504:	defff604 	addi	sp,sp,-40
  802508:	008000c4 	movi	r2,3
  80250c:	dfc00915 	stw	ra,36(sp)
  802510:	dcc00815 	stw	r19,32(sp)
  802514:	dc800715 	stw	r18,28(sp)
  802518:	dc400615 	stw	r17,24(sp)
  80251c:	dc000515 	stw	r16,20(sp)
  802520:	d8800015 	stw	r2,0(sp)
  802524:	d8c00115 	stw	r3,4(sp)
  802528:	20000f1e 	bne	r4,zero,802568 <__floatsidf+0x68>
  80252c:	00800084 	movi	r2,2
  802530:	d8800015 	stw	r2,0(sp)
  802534:	d809883a 	mov	r4,sp
  802538:	0802b340 	call	802b34 <__pack_d>
  80253c:	1009883a 	mov	r4,r2
  802540:	180b883a 	mov	r5,r3
  802544:	2005883a 	mov	r2,r4
  802548:	2807883a 	mov	r3,r5
  80254c:	dfc00917 	ldw	ra,36(sp)
  802550:	dcc00817 	ldw	r19,32(sp)
  802554:	dc800717 	ldw	r18,28(sp)
  802558:	dc400617 	ldw	r17,24(sp)
  80255c:	dc000517 	ldw	r16,20(sp)
  802560:	dec00a04 	addi	sp,sp,40
  802564:	f800283a 	ret
  802568:	00800f04 	movi	r2,60
  80256c:	1807003a 	cmpeq	r3,r3,zero
  802570:	d8800215 	stw	r2,8(sp)
  802574:	18001126 	beq	r3,zero,8025bc <__floatsidf+0xbc>
  802578:	0027883a 	mov	r19,zero
  80257c:	2025883a 	mov	r18,r4
  802580:	d9000315 	stw	r4,12(sp)
  802584:	dcc00415 	stw	r19,16(sp)
  802588:	080288c0 	call	80288c <__clzsi2>
  80258c:	11000744 	addi	r4,r2,29
  802590:	013fe80e 	bge	zero,r4,802534 <__floatsidf+0x34>
  802594:	10bfff44 	addi	r2,r2,-3
  802598:	10000c16 	blt	r2,zero,8025cc <__floatsidf+0xcc>
  80259c:	90a2983a 	sll	r17,r18,r2
  8025a0:	0021883a 	mov	r16,zero
  8025a4:	d8800217 	ldw	r2,8(sp)
  8025a8:	dc400415 	stw	r17,16(sp)
  8025ac:	dc000315 	stw	r16,12(sp)
  8025b0:	1105c83a 	sub	r2,r2,r4
  8025b4:	d8800215 	stw	r2,8(sp)
  8025b8:	003fde06 	br	802534 <__floatsidf+0x34>
  8025bc:	00a00034 	movhi	r2,32768
  8025c0:	20800a26 	beq	r4,r2,8025ec <__floatsidf+0xec>
  8025c4:	0109c83a 	sub	r4,zero,r4
  8025c8:	003feb06 	br	802578 <__floatsidf+0x78>
  8025cc:	9006d07a 	srli	r3,r18,1
  8025d0:	008007c4 	movi	r2,31
  8025d4:	1105c83a 	sub	r2,r2,r4
  8025d8:	1886d83a 	srl	r3,r3,r2
  8025dc:	9922983a 	sll	r17,r19,r4
  8025e0:	9120983a 	sll	r16,r18,r4
  8025e4:	1c62b03a 	or	r17,r3,r17
  8025e8:	003fee06 	br	8025a4 <__floatsidf+0xa4>
  8025ec:	0009883a 	mov	r4,zero
  8025f0:	01707834 	movhi	r5,49632
  8025f4:	003fd306 	br	802544 <__floatsidf+0x44>

008025f8 <__fixdfsi>:
  8025f8:	defff804 	addi	sp,sp,-32
  8025fc:	2005883a 	mov	r2,r4
  802600:	2807883a 	mov	r3,r5
  802604:	d809883a 	mov	r4,sp
  802608:	d9400204 	addi	r5,sp,8
  80260c:	d8c00115 	stw	r3,4(sp)
  802610:	d8800015 	stw	r2,0(sp)
  802614:	dfc00715 	stw	ra,28(sp)
  802618:	0802e480 	call	802e48 <__unpack_d>
  80261c:	d8c00217 	ldw	r3,8(sp)
  802620:	00800084 	movi	r2,2
  802624:	1880051e 	bne	r3,r2,80263c <__fixdfsi+0x44>
  802628:	0007883a 	mov	r3,zero
  80262c:	1805883a 	mov	r2,r3
  802630:	dfc00717 	ldw	ra,28(sp)
  802634:	dec00804 	addi	sp,sp,32
  802638:	f800283a 	ret
  80263c:	00800044 	movi	r2,1
  802640:	10fff92e 	bgeu	r2,r3,802628 <__fixdfsi+0x30>
  802644:	00800104 	movi	r2,4
  802648:	18800426 	beq	r3,r2,80265c <__fixdfsi+0x64>
  80264c:	d8c00417 	ldw	r3,16(sp)
  802650:	183ff516 	blt	r3,zero,802628 <__fixdfsi+0x30>
  802654:	00800784 	movi	r2,30
  802658:	10c0080e 	bge	r2,r3,80267c <__fixdfsi+0x84>
  80265c:	d8800317 	ldw	r2,12(sp)
  802660:	1000121e 	bne	r2,zero,8026ac <__fixdfsi+0xb4>
  802664:	00e00034 	movhi	r3,32768
  802668:	18ffffc4 	addi	r3,r3,-1
  80266c:	1805883a 	mov	r2,r3
  802670:	dfc00717 	ldw	ra,28(sp)
  802674:	dec00804 	addi	sp,sp,32
  802678:	f800283a 	ret
  80267c:	00800f04 	movi	r2,60
  802680:	10d1c83a 	sub	r8,r2,r3
  802684:	40bff804 	addi	r2,r8,-32
  802688:	d9800517 	ldw	r6,20(sp)
  80268c:	d9c00617 	ldw	r7,24(sp)
  802690:	10000816 	blt	r2,zero,8026b4 <__fixdfsi+0xbc>
  802694:	3888d83a 	srl	r4,r7,r2
  802698:	d8800317 	ldw	r2,12(sp)
  80269c:	2007883a 	mov	r3,r4
  8026a0:	103fe226 	beq	r2,zero,80262c <__fixdfsi+0x34>
  8026a4:	0107c83a 	sub	r3,zero,r4
  8026a8:	003fe006 	br	80262c <__fixdfsi+0x34>
  8026ac:	00e00034 	movhi	r3,32768
  8026b0:	003fde06 	br	80262c <__fixdfsi+0x34>
  8026b4:	39c7883a 	add	r3,r7,r7
  8026b8:	008007c4 	movi	r2,31
  8026bc:	1205c83a 	sub	r2,r2,r8
  8026c0:	1886983a 	sll	r3,r3,r2
  8026c4:	3208d83a 	srl	r4,r6,r8
  8026c8:	1908b03a 	or	r4,r3,r4
  8026cc:	003ff206 	br	802698 <__fixdfsi+0xa0>

008026d0 <__make_dp>:
  8026d0:	defff904 	addi	sp,sp,-28
  8026d4:	d8c00717 	ldw	r3,28(sp)
  8026d8:	d9000015 	stw	r4,0(sp)
  8026dc:	d809883a 	mov	r4,sp
  8026e0:	dfc00515 	stw	ra,20(sp)
  8026e4:	d9c00615 	stw	r7,24(sp)
  8026e8:	d9400115 	stw	r5,4(sp)
  8026ec:	d9800215 	stw	r6,8(sp)
  8026f0:	d8c00415 	stw	r3,16(sp)
  8026f4:	d9c00315 	stw	r7,12(sp)
  8026f8:	0802b340 	call	802b34 <__pack_d>
  8026fc:	dfc00517 	ldw	ra,20(sp)
  802700:	dec00704 	addi	sp,sp,28
  802704:	f800283a 	ret

00802708 <udivmodsi4>:
  802708:	29001b2e 	bgeu	r5,r4,802778 <udivmodsi4+0x70>
  80270c:	28001a16 	blt	r5,zero,802778 <udivmodsi4+0x70>
  802710:	00800044 	movi	r2,1
  802714:	0007883a 	mov	r3,zero
  802718:	01c007c4 	movi	r7,31
  80271c:	00000306 	br	80272c <udivmodsi4+0x24>
  802720:	19c01326 	beq	r3,r7,802770 <udivmodsi4+0x68>
  802724:	18c00044 	addi	r3,r3,1
  802728:	28000416 	blt	r5,zero,80273c <udivmodsi4+0x34>
  80272c:	294b883a 	add	r5,r5,r5
  802730:	1085883a 	add	r2,r2,r2
  802734:	293ffa36 	bltu	r5,r4,802720 <udivmodsi4+0x18>
  802738:	10000d26 	beq	r2,zero,802770 <udivmodsi4+0x68>
  80273c:	0007883a 	mov	r3,zero
  802740:	21400236 	bltu	r4,r5,80274c <udivmodsi4+0x44>
  802744:	2149c83a 	sub	r4,r4,r5
  802748:	1886b03a 	or	r3,r3,r2
  80274c:	1004d07a 	srli	r2,r2,1
  802750:	280ad07a 	srli	r5,r5,1
  802754:	103ffa1e 	bne	r2,zero,802740 <udivmodsi4+0x38>
  802758:	30000226 	beq	r6,zero,802764 <udivmodsi4+0x5c>
  80275c:	2005883a 	mov	r2,r4
  802760:	f800283a 	ret
  802764:	1809883a 	mov	r4,r3
  802768:	2005883a 	mov	r2,r4
  80276c:	f800283a 	ret
  802770:	0007883a 	mov	r3,zero
  802774:	003ff806 	br	802758 <udivmodsi4+0x50>
  802778:	00800044 	movi	r2,1
  80277c:	0007883a 	mov	r3,zero
  802780:	003fef06 	br	802740 <udivmodsi4+0x38>

00802784 <__divsi3>:
  802784:	defffe04 	addi	sp,sp,-8
  802788:	dc000015 	stw	r16,0(sp)
  80278c:	dfc00115 	stw	ra,4(sp)
  802790:	0021883a 	mov	r16,zero
  802794:	20000c16 	blt	r4,zero,8027c8 <__divsi3+0x44>
  802798:	000d883a 	mov	r6,zero
  80279c:	28000e16 	blt	r5,zero,8027d8 <__divsi3+0x54>
  8027a0:	08027080 	call	802708 <udivmodsi4>
  8027a4:	1007883a 	mov	r3,r2
  8027a8:	8005003a 	cmpeq	r2,r16,zero
  8027ac:	1000011e 	bne	r2,zero,8027b4 <__divsi3+0x30>
  8027b0:	00c7c83a 	sub	r3,zero,r3
  8027b4:	1805883a 	mov	r2,r3
  8027b8:	dfc00117 	ldw	ra,4(sp)
  8027bc:	dc000017 	ldw	r16,0(sp)
  8027c0:	dec00204 	addi	sp,sp,8
  8027c4:	f800283a 	ret
  8027c8:	0109c83a 	sub	r4,zero,r4
  8027cc:	04000044 	movi	r16,1
  8027d0:	000d883a 	mov	r6,zero
  8027d4:	283ff20e 	bge	r5,zero,8027a0 <__divsi3+0x1c>
  8027d8:	014bc83a 	sub	r5,zero,r5
  8027dc:	8021003a 	cmpeq	r16,r16,zero
  8027e0:	003fef06 	br	8027a0 <__divsi3+0x1c>

008027e4 <__modsi3>:
  8027e4:	deffff04 	addi	sp,sp,-4
  8027e8:	dfc00015 	stw	ra,0(sp)
  8027ec:	01800044 	movi	r6,1
  8027f0:	2807883a 	mov	r3,r5
  8027f4:	20000416 	blt	r4,zero,802808 <__modsi3+0x24>
  8027f8:	28000c16 	blt	r5,zero,80282c <__modsi3+0x48>
  8027fc:	dfc00017 	ldw	ra,0(sp)
  802800:	dec00104 	addi	sp,sp,4
  802804:	08027081 	jmpi	802708 <udivmodsi4>
  802808:	0109c83a 	sub	r4,zero,r4
  80280c:	28000b16 	blt	r5,zero,80283c <__modsi3+0x58>
  802810:	180b883a 	mov	r5,r3
  802814:	01800044 	movi	r6,1
  802818:	08027080 	call	802708 <udivmodsi4>
  80281c:	0085c83a 	sub	r2,zero,r2
  802820:	dfc00017 	ldw	ra,0(sp)
  802824:	dec00104 	addi	sp,sp,4
  802828:	f800283a 	ret
  80282c:	014bc83a 	sub	r5,zero,r5
  802830:	dfc00017 	ldw	ra,0(sp)
  802834:	dec00104 	addi	sp,sp,4
  802838:	08027081 	jmpi	802708 <udivmodsi4>
  80283c:	0147c83a 	sub	r3,zero,r5
  802840:	003ff306 	br	802810 <__modsi3+0x2c>

00802844 <__udivsi3>:
  802844:	000d883a 	mov	r6,zero
  802848:	08027081 	jmpi	802708 <udivmodsi4>

0080284c <__umodsi3>:
  80284c:	01800044 	movi	r6,1
  802850:	08027081 	jmpi	802708 <udivmodsi4>

00802854 <__mulsi3>:
  802854:	20000a26 	beq	r4,zero,802880 <__mulsi3+0x2c>
  802858:	0007883a 	mov	r3,zero
  80285c:	2080004c 	andi	r2,r4,1
  802860:	1005003a 	cmpeq	r2,r2,zero
  802864:	2008d07a 	srli	r4,r4,1
  802868:	1000011e 	bne	r2,zero,802870 <__mulsi3+0x1c>
  80286c:	1947883a 	add	r3,r3,r5
  802870:	294b883a 	add	r5,r5,r5
  802874:	203ff91e 	bne	r4,zero,80285c <__mulsi3+0x8>
  802878:	1805883a 	mov	r2,r3
  80287c:	f800283a 	ret
  802880:	0007883a 	mov	r3,zero
  802884:	1805883a 	mov	r2,r3
  802888:	f800283a 	ret

0080288c <__clzsi2>:
  80288c:	00bfffd4 	movui	r2,65535
  802890:	11000e36 	bltu	r2,r4,8028cc <__clzsi2+0x40>
  802894:	00803fc4 	movi	r2,255
  802898:	01400204 	movi	r5,8
  80289c:	0007883a 	mov	r3,zero
  8028a0:	11001036 	bltu	r2,r4,8028e4 <__clzsi2+0x58>
  8028a4:	000b883a 	mov	r5,zero
  8028a8:	20c6d83a 	srl	r3,r4,r3
  8028ac:	00802074 	movhi	r2,129
  8028b0:	10a19604 	addi	r2,r2,-31144
  8028b4:	1887883a 	add	r3,r3,r2
  8028b8:	18800003 	ldbu	r2,0(r3)
  8028bc:	00c00804 	movi	r3,32
  8028c0:	2885883a 	add	r2,r5,r2
  8028c4:	1885c83a 	sub	r2,r3,r2
  8028c8:	f800283a 	ret
  8028cc:	01400404 	movi	r5,16
  8028d0:	00804034 	movhi	r2,256
  8028d4:	10bfffc4 	addi	r2,r2,-1
  8028d8:	2807883a 	mov	r3,r5
  8028dc:	113ff22e 	bgeu	r2,r4,8028a8 <__clzsi2+0x1c>
  8028e0:	01400604 	movi	r5,24
  8028e4:	2807883a 	mov	r3,r5
  8028e8:	20c6d83a 	srl	r3,r4,r3
  8028ec:	00802074 	movhi	r2,129
  8028f0:	10a19604 	addi	r2,r2,-31144
  8028f4:	1887883a 	add	r3,r3,r2
  8028f8:	18800003 	ldbu	r2,0(r3)
  8028fc:	00c00804 	movi	r3,32
  802900:	2885883a 	add	r2,r5,r2
  802904:	1885c83a 	sub	r2,r3,r2
  802908:	f800283a 	ret

0080290c <__pack_f>:
  80290c:	20c00017 	ldw	r3,0(r4)
  802910:	01c00044 	movi	r7,1
  802914:	21800317 	ldw	r6,12(r4)
  802918:	21400117 	ldw	r5,4(r4)
  80291c:	38c02d2e 	bgeu	r7,r3,8029d4 <__pack_f+0xc8>
  802920:	00800104 	movi	r2,4
  802924:	18802826 	beq	r3,r2,8029c8 <__pack_f+0xbc>
  802928:	00800084 	movi	r2,2
  80292c:	18800126 	beq	r3,r2,802934 <__pack_f+0x28>
  802930:	3000101e 	bne	r6,zero,802974 <__pack_f+0x68>
  802934:	000d883a 	mov	r6,zero
  802938:	0007883a 	mov	r3,zero
  80293c:	19003fcc 	andi	r4,r3,255
  802940:	200895fa 	slli	r4,r4,23
  802944:	00c02034 	movhi	r3,128
  802948:	18ffffc4 	addi	r3,r3,-1
  80294c:	30c6703a 	and	r3,r6,r3
  802950:	10a0002c 	andhi	r2,r2,32768
  802954:	10c4b03a 	or	r2,r2,r3
  802958:	280a97fa 	slli	r5,r5,31
  80295c:	1104b03a 	or	r2,r2,r4
  802960:	00e00034 	movhi	r3,32768
  802964:	18ffffc4 	addi	r3,r3,-1
  802968:	10c4703a 	and	r2,r2,r3
  80296c:	1144b03a 	or	r2,r2,r5
  802970:	f800283a 	ret
  802974:	21000217 	ldw	r4,8(r4)
  802978:	00bfe084 	movi	r2,-126
  80297c:	20801b16 	blt	r4,r2,8029ec <__pack_f+0xe0>
  802980:	00801fc4 	movi	r2,127
  802984:	11001016 	blt	r2,r4,8029c8 <__pack_f+0xbc>
  802988:	308e703a 	and	r7,r6,r2
  80298c:	2087883a 	add	r3,r4,r2
  802990:	00801004 	movi	r2,64
  802994:	38800526 	beq	r7,r2,8029ac <__pack_f+0xa0>
  802998:	31800fc4 	addi	r6,r6,63
  80299c:	30000716 	blt	r6,zero,8029bc <__pack_f+0xb0>
  8029a0:	300490ba 	slli	r2,r6,2
  8029a4:	100cd27a 	srli	r6,r2,9
  8029a8:	003fe406 	br	80293c <__pack_f+0x30>
  8029ac:	3080200c 	andi	r2,r6,128
  8029b0:	103ffa26 	beq	r2,zero,80299c <__pack_f+0x90>
  8029b4:	31cd883a 	add	r6,r6,r7
  8029b8:	003ff806 	br	80299c <__pack_f+0x90>
  8029bc:	300cd07a 	srli	r6,r6,1
  8029c0:	18c00044 	addi	r3,r3,1
  8029c4:	003ff606 	br	8029a0 <__pack_f+0x94>
  8029c8:	000d883a 	mov	r6,zero
  8029cc:	00ffffc4 	movi	r3,-1
  8029d0:	003fda06 	br	80293c <__pack_f+0x30>
  8029d4:	31800434 	orhi	r6,r6,16
  8029d8:	00802034 	movhi	r2,128
  8029dc:	10bfffc4 	addi	r2,r2,-1
  8029e0:	308c703a 	and	r6,r6,r2
  8029e4:	00ffffc4 	movi	r3,-1
  8029e8:	003fd406 	br	80293c <__pack_f+0x30>
  8029ec:	1109c83a 	sub	r4,r2,r4
  8029f0:	00800644 	movi	r2,25
  8029f4:	11001216 	blt	r2,r4,802a40 <__pack_f+0x134>
  8029f8:	3904983a 	sll	r2,r7,r4
  8029fc:	3106d83a 	srl	r3,r6,r4
  802a00:	10bfffc4 	addi	r2,r2,-1
  802a04:	3084703a 	and	r2,r6,r2
  802a08:	1004c03a 	cmpne	r2,r2,zero
  802a0c:	1886b03a 	or	r3,r3,r2
  802a10:	19001fcc 	andi	r4,r3,127
  802a14:	00801004 	movi	r2,64
  802a18:	20800c26 	beq	r4,r2,802a4c <__pack_f+0x140>
  802a1c:	18c00fc4 	addi	r3,r3,63
  802a20:	00900034 	movhi	r2,16384
  802a24:	10bfffc4 	addi	r2,r2,-1
  802a28:	180cd1fa 	srli	r6,r3,7
  802a2c:	10c7803a 	cmpltu	r3,r2,r3
  802a30:	00802034 	movhi	r2,128
  802a34:	10bfffc4 	addi	r2,r2,-1
  802a38:	308c703a 	and	r6,r6,r2
  802a3c:	003fbf06 	br	80293c <__pack_f+0x30>
  802a40:	0007883a 	mov	r3,zero
  802a44:	000d883a 	mov	r6,zero
  802a48:	003ff906 	br	802a30 <__pack_f+0x124>
  802a4c:	1880200c 	andi	r2,r3,128
  802a50:	10000126 	beq	r2,zero,802a58 <__pack_f+0x14c>
  802a54:	1907883a 	add	r3,r3,r4
  802a58:	180cd1fa 	srli	r6,r3,7
  802a5c:	00900034 	movhi	r2,16384
  802a60:	10bfffc4 	addi	r2,r2,-1
  802a64:	10c7803a 	cmpltu	r3,r2,r3
  802a68:	003ff106 	br	802a30 <__pack_f+0x124>

00802a6c <__unpack_f>:
  802a6c:	21800017 	ldw	r6,0(r4)
  802a70:	00c02034 	movhi	r3,128
  802a74:	18ffffc4 	addi	r3,r3,-1
  802a78:	3004d5fa 	srli	r2,r6,23
  802a7c:	3008d7fa 	srli	r4,r6,31
  802a80:	30ce703a 	and	r7,r6,r3
  802a84:	10c03fcc 	andi	r3,r2,255
  802a88:	29000115 	stw	r4,4(r5)
  802a8c:	1800131e 	bne	r3,zero,802adc <__unpack_f+0x70>
  802a90:	38000f26 	beq	r7,zero,802ad0 <__unpack_f+0x64>
  802a94:	380691fa 	slli	r3,r7,7
  802a98:	01bfe084 	movi	r6,-126
  802a9c:	008000c4 	movi	r2,3
  802aa0:	01100034 	movhi	r4,16384
  802aa4:	213fffc4 	addi	r4,r4,-1
  802aa8:	28800015 	stw	r2,0(r5)
  802aac:	29800215 	stw	r6,8(r5)
  802ab0:	20c00536 	bltu	r4,r3,802ac8 <__unpack_f+0x5c>
  802ab4:	3005883a 	mov	r2,r6
  802ab8:	18c7883a 	add	r3,r3,r3
  802abc:	10bfffc4 	addi	r2,r2,-1
  802ac0:	20fffd2e 	bgeu	r4,r3,802ab8 <__unpack_f+0x4c>
  802ac4:	28800215 	stw	r2,8(r5)
  802ac8:	28c00315 	stw	r3,12(r5)
  802acc:	f800283a 	ret
  802ad0:	00800084 	movi	r2,2
  802ad4:	28800015 	stw	r2,0(r5)
  802ad8:	f800283a 	ret
  802adc:	00803fc4 	movi	r2,255
  802ae0:	18800826 	beq	r3,r2,802b04 <__unpack_f+0x98>
  802ae4:	380491fa 	slli	r2,r7,7
  802ae8:	18ffe044 	addi	r3,r3,-127
  802aec:	28c00215 	stw	r3,8(r5)
  802af0:	10900034 	orhi	r2,r2,16384
  802af4:	28800315 	stw	r2,12(r5)
  802af8:	008000c4 	movi	r2,3
  802afc:	28800015 	stw	r2,0(r5)
  802b00:	f800283a 	ret
  802b04:	3800031e 	bne	r7,zero,802b14 <__unpack_f+0xa8>
  802b08:	00800104 	movi	r2,4
  802b0c:	28800015 	stw	r2,0(r5)
  802b10:	f800283a 	ret
  802b14:	3080042c 	andhi	r2,r6,16
  802b18:	10000426 	beq	r2,zero,802b2c <__unpack_f+0xc0>
  802b1c:	00800044 	movi	r2,1
  802b20:	28800015 	stw	r2,0(r5)
  802b24:	29c00315 	stw	r7,12(r5)
  802b28:	f800283a 	ret
  802b2c:	28000015 	stw	zero,0(r5)
  802b30:	003ffc06 	br	802b24 <__unpack_f+0xb8>

00802b34 <__pack_d>:
  802b34:	20c00017 	ldw	r3,0(r4)
  802b38:	defffd04 	addi	sp,sp,-12
  802b3c:	dc000015 	stw	r16,0(sp)
  802b40:	dc800215 	stw	r18,8(sp)
  802b44:	dc400115 	stw	r17,4(sp)
  802b48:	00800044 	movi	r2,1
  802b4c:	22000317 	ldw	r8,12(r4)
  802b50:	001f883a 	mov	r15,zero
  802b54:	22400417 	ldw	r9,16(r4)
  802b58:	24000117 	ldw	r16,4(r4)
  802b5c:	10c0552e 	bgeu	r2,r3,802cb4 <__pack_d+0x180>
  802b60:	00800104 	movi	r2,4
  802b64:	18804f26 	beq	r3,r2,802ca4 <__pack_d+0x170>
  802b68:	00800084 	movi	r2,2
  802b6c:	18800226 	beq	r3,r2,802b78 <__pack_d+0x44>
  802b70:	4244b03a 	or	r2,r8,r9
  802b74:	10001a1e 	bne	r2,zero,802be0 <__pack_d+0xac>
  802b78:	000d883a 	mov	r6,zero
  802b7c:	000f883a 	mov	r7,zero
  802b80:	0011883a 	mov	r8,zero
  802b84:	00800434 	movhi	r2,16
  802b88:	10bfffc4 	addi	r2,r2,-1
  802b8c:	301d883a 	mov	r14,r6
  802b90:	3884703a 	and	r2,r7,r2
  802b94:	400a953a 	slli	r5,r8,20
  802b98:	79bffc2c 	andhi	r6,r15,65520
  802b9c:	308cb03a 	or	r6,r6,r2
  802ba0:	00e00434 	movhi	r3,32784
  802ba4:	18ffffc4 	addi	r3,r3,-1
  802ba8:	800497fa 	slli	r2,r16,31
  802bac:	30c6703a 	and	r3,r6,r3
  802bb0:	1946b03a 	or	r3,r3,r5
  802bb4:	01600034 	movhi	r5,32768
  802bb8:	297fffc4 	addi	r5,r5,-1
  802bbc:	194a703a 	and	r5,r3,r5
  802bc0:	288ab03a 	or	r5,r5,r2
  802bc4:	2807883a 	mov	r3,r5
  802bc8:	7005883a 	mov	r2,r14
  802bcc:	dc800217 	ldw	r18,8(sp)
  802bd0:	dc400117 	ldw	r17,4(sp)
  802bd4:	dc000017 	ldw	r16,0(sp)
  802bd8:	dec00304 	addi	sp,sp,12
  802bdc:	f800283a 	ret
  802be0:	21000217 	ldw	r4,8(r4)
  802be4:	00bf0084 	movi	r2,-1022
  802be8:	20803f16 	blt	r4,r2,802ce8 <__pack_d+0x1b4>
  802bec:	0080ffc4 	movi	r2,1023
  802bf0:	11002c16 	blt	r2,r4,802ca4 <__pack_d+0x170>
  802bf4:	00803fc4 	movi	r2,255
  802bf8:	408c703a 	and	r6,r8,r2
  802bfc:	00802004 	movi	r2,128
  802c00:	0007883a 	mov	r3,zero
  802c04:	000f883a 	mov	r7,zero
  802c08:	2280ffc4 	addi	r10,r4,1023
  802c0c:	30801e26 	beq	r6,r2,802c88 <__pack_d+0x154>
  802c10:	00801fc4 	movi	r2,127
  802c14:	4089883a 	add	r4,r8,r2
  802c18:	220d803a 	cmpltu	r6,r4,r8
  802c1c:	324d883a 	add	r6,r6,r9
  802c20:	2011883a 	mov	r8,r4
  802c24:	3013883a 	mov	r9,r6
  802c28:	00880034 	movhi	r2,8192
  802c2c:	10bfffc4 	addi	r2,r2,-1
  802c30:	12400d36 	bltu	r2,r9,802c68 <__pack_d+0x134>
  802c34:	4804963a 	slli	r2,r9,24
  802c38:	400cd23a 	srli	r6,r8,8
  802c3c:	480ed23a 	srli	r7,r9,8
  802c40:	013fffc4 	movi	r4,-1
  802c44:	118cb03a 	or	r6,r2,r6
  802c48:	01400434 	movhi	r5,16
  802c4c:	297fffc4 	addi	r5,r5,-1
  802c50:	3104703a 	and	r2,r6,r4
  802c54:	3946703a 	and	r3,r7,r5
  802c58:	5201ffcc 	andi	r8,r10,2047
  802c5c:	100d883a 	mov	r6,r2
  802c60:	180f883a 	mov	r7,r3
  802c64:	003fc706 	br	802b84 <__pack_d+0x50>
  802c68:	480897fa 	slli	r4,r9,31
  802c6c:	4004d07a 	srli	r2,r8,1
  802c70:	4806d07a 	srli	r3,r9,1
  802c74:	52800044 	addi	r10,r10,1
  802c78:	2084b03a 	or	r2,r4,r2
  802c7c:	1011883a 	mov	r8,r2
  802c80:	1813883a 	mov	r9,r3
  802c84:	003feb06 	br	802c34 <__pack_d+0x100>
  802c88:	383fe11e 	bne	r7,zero,802c10 <__pack_d+0xdc>
  802c8c:	01004004 	movi	r4,256
  802c90:	4104703a 	and	r2,r8,r4
  802c94:	10c4b03a 	or	r2,r2,r3
  802c98:	103fe326 	beq	r2,zero,802c28 <__pack_d+0xf4>
  802c9c:	3005883a 	mov	r2,r6
  802ca0:	003fdc06 	br	802c14 <__pack_d+0xe0>
  802ca4:	000d883a 	mov	r6,zero
  802ca8:	000f883a 	mov	r7,zero
  802cac:	0201ffc4 	movi	r8,2047
  802cb0:	003fb406 	br	802b84 <__pack_d+0x50>
  802cb4:	0005883a 	mov	r2,zero
  802cb8:	00c00234 	movhi	r3,8
  802cbc:	408cb03a 	or	r6,r8,r2
  802cc0:	48ceb03a 	or	r7,r9,r3
  802cc4:	013fffc4 	movi	r4,-1
  802cc8:	01400434 	movhi	r5,16
  802ccc:	297fffc4 	addi	r5,r5,-1
  802cd0:	3104703a 	and	r2,r6,r4
  802cd4:	3946703a 	and	r3,r7,r5
  802cd8:	100d883a 	mov	r6,r2
  802cdc:	180f883a 	mov	r7,r3
  802ce0:	0201ffc4 	movi	r8,2047
  802ce4:	003fa706 	br	802b84 <__pack_d+0x50>
  802ce8:	1109c83a 	sub	r4,r2,r4
  802cec:	00800e04 	movi	r2,56
  802cf0:	11004316 	blt	r2,r4,802e00 <__pack_d+0x2cc>
  802cf4:	21fff804 	addi	r7,r4,-32
  802cf8:	38004516 	blt	r7,zero,802e10 <__pack_d+0x2dc>
  802cfc:	49d8d83a 	srl	r12,r9,r7
  802d00:	001b883a 	mov	r13,zero
  802d04:	0023883a 	mov	r17,zero
  802d08:	01400044 	movi	r5,1
  802d0c:	0025883a 	mov	r18,zero
  802d10:	38004716 	blt	r7,zero,802e30 <__pack_d+0x2fc>
  802d14:	29d6983a 	sll	r11,r5,r7
  802d18:	0015883a 	mov	r10,zero
  802d1c:	00bfffc4 	movi	r2,-1
  802d20:	5089883a 	add	r4,r10,r2
  802d24:	588b883a 	add	r5,r11,r2
  802d28:	228d803a 	cmpltu	r6,r4,r10
  802d2c:	314b883a 	add	r5,r6,r5
  802d30:	4104703a 	and	r2,r8,r4
  802d34:	4946703a 	and	r3,r9,r5
  802d38:	10c4b03a 	or	r2,r2,r3
  802d3c:	10000226 	beq	r2,zero,802d48 <__pack_d+0x214>
  802d40:	04400044 	movi	r17,1
  802d44:	0025883a 	mov	r18,zero
  802d48:	00803fc4 	movi	r2,255
  802d4c:	644eb03a 	or	r7,r12,r17
  802d50:	3892703a 	and	r9,r7,r2
  802d54:	00802004 	movi	r2,128
  802d58:	6c90b03a 	or	r8,r13,r18
  802d5c:	0015883a 	mov	r10,zero
  802d60:	48801626 	beq	r9,r2,802dbc <__pack_d+0x288>
  802d64:	01001fc4 	movi	r4,127
  802d68:	3905883a 	add	r2,r7,r4
  802d6c:	11cd803a 	cmpltu	r6,r2,r7
  802d70:	320d883a 	add	r6,r6,r8
  802d74:	100f883a 	mov	r7,r2
  802d78:	00840034 	movhi	r2,4096
  802d7c:	10bfffc4 	addi	r2,r2,-1
  802d80:	3011883a 	mov	r8,r6
  802d84:	0007883a 	mov	r3,zero
  802d88:	11801b36 	bltu	r2,r6,802df8 <__pack_d+0x2c4>
  802d8c:	4004963a 	slli	r2,r8,24
  802d90:	3808d23a 	srli	r4,r7,8
  802d94:	400ad23a 	srli	r5,r8,8
  802d98:	1813883a 	mov	r9,r3
  802d9c:	1108b03a 	or	r4,r2,r4
  802da0:	00bfffc4 	movi	r2,-1
  802da4:	00c00434 	movhi	r3,16
  802da8:	18ffffc4 	addi	r3,r3,-1
  802dac:	208c703a 	and	r6,r4,r2
  802db0:	28ce703a 	and	r7,r5,r3
  802db4:	4a01ffcc 	andi	r8,r9,2047
  802db8:	003f7206 	br	802b84 <__pack_d+0x50>
  802dbc:	503fe91e 	bne	r10,zero,802d64 <__pack_d+0x230>
  802dc0:	01004004 	movi	r4,256
  802dc4:	3904703a 	and	r2,r7,r4
  802dc8:	0007883a 	mov	r3,zero
  802dcc:	10c4b03a 	or	r2,r2,r3
  802dd0:	10000626 	beq	r2,zero,802dec <__pack_d+0x2b8>
  802dd4:	3a45883a 	add	r2,r7,r9
  802dd8:	11cd803a 	cmpltu	r6,r2,r7
  802ddc:	320d883a 	add	r6,r6,r8
  802de0:	100f883a 	mov	r7,r2
  802de4:	3011883a 	mov	r8,r6
  802de8:	0007883a 	mov	r3,zero
  802dec:	00840034 	movhi	r2,4096
  802df0:	10bfffc4 	addi	r2,r2,-1
  802df4:	123fe52e 	bgeu	r2,r8,802d8c <__pack_d+0x258>
  802df8:	00c00044 	movi	r3,1
  802dfc:	003fe306 	br	802d8c <__pack_d+0x258>
  802e00:	0009883a 	mov	r4,zero
  802e04:	0013883a 	mov	r9,zero
  802e08:	000b883a 	mov	r5,zero
  802e0c:	003fe406 	br	802da0 <__pack_d+0x26c>
  802e10:	4a47883a 	add	r3,r9,r9
  802e14:	008007c4 	movi	r2,31
  802e18:	1105c83a 	sub	r2,r2,r4
  802e1c:	1886983a 	sll	r3,r3,r2
  802e20:	4118d83a 	srl	r12,r8,r4
  802e24:	491ad83a 	srl	r13,r9,r4
  802e28:	1b18b03a 	or	r12,r3,r12
  802e2c:	003fb506 	br	802d04 <__pack_d+0x1d0>
  802e30:	2806d07a 	srli	r3,r5,1
  802e34:	008007c4 	movi	r2,31
  802e38:	1105c83a 	sub	r2,r2,r4
  802e3c:	1896d83a 	srl	r11,r3,r2
  802e40:	2914983a 	sll	r10,r5,r4
  802e44:	003fb506 	br	802d1c <__pack_d+0x1e8>

00802e48 <__unpack_d>:
  802e48:	20c00117 	ldw	r3,4(r4)
  802e4c:	22400017 	ldw	r9,0(r4)
  802e50:	00800434 	movhi	r2,16
  802e54:	10bfffc4 	addi	r2,r2,-1
  802e58:	1808d53a 	srli	r4,r3,20
  802e5c:	180cd7fa 	srli	r6,r3,31
  802e60:	1894703a 	and	r10,r3,r2
  802e64:	2201ffcc 	andi	r8,r4,2047
  802e68:	281b883a 	mov	r13,r5
  802e6c:	4817883a 	mov	r11,r9
  802e70:	29800115 	stw	r6,4(r5)
  802e74:	5019883a 	mov	r12,r10
  802e78:	40001e1e 	bne	r8,zero,802ef4 <__unpack_d+0xac>
  802e7c:	4a84b03a 	or	r2,r9,r10
  802e80:	10001926 	beq	r2,zero,802ee8 <__unpack_d+0xa0>
  802e84:	4804d63a 	srli	r2,r9,24
  802e88:	500c923a 	slli	r6,r10,8
  802e8c:	013f0084 	movi	r4,-1022
  802e90:	00c40034 	movhi	r3,4096
  802e94:	18ffffc4 	addi	r3,r3,-1
  802e98:	118cb03a 	or	r6,r2,r6
  802e9c:	008000c4 	movi	r2,3
  802ea0:	480a923a 	slli	r5,r9,8
  802ea4:	68800015 	stw	r2,0(r13)
  802ea8:	69000215 	stw	r4,8(r13)
  802eac:	19800b36 	bltu	r3,r6,802edc <__unpack_d+0x94>
  802eb0:	200f883a 	mov	r7,r4
  802eb4:	1811883a 	mov	r8,r3
  802eb8:	2945883a 	add	r2,r5,r5
  802ebc:	1149803a 	cmpltu	r4,r2,r5
  802ec0:	3187883a 	add	r3,r6,r6
  802ec4:	20c9883a 	add	r4,r4,r3
  802ec8:	100b883a 	mov	r5,r2
  802ecc:	200d883a 	mov	r6,r4
  802ed0:	39ffffc4 	addi	r7,r7,-1
  802ed4:	413ff82e 	bgeu	r8,r4,802eb8 <__unpack_d+0x70>
  802ed8:	69c00215 	stw	r7,8(r13)
  802edc:	69800415 	stw	r6,16(r13)
  802ee0:	69400315 	stw	r5,12(r13)
  802ee4:	f800283a 	ret
  802ee8:	00800084 	movi	r2,2
  802eec:	28800015 	stw	r2,0(r5)
  802ef0:	f800283a 	ret
  802ef4:	0081ffc4 	movi	r2,2047
  802ef8:	40800f26 	beq	r8,r2,802f38 <__unpack_d+0xf0>
  802efc:	480cd63a 	srli	r6,r9,24
  802f00:	5006923a 	slli	r3,r10,8
  802f04:	4804923a 	slli	r2,r9,8
  802f08:	0009883a 	mov	r4,zero
  802f0c:	30c6b03a 	or	r3,r6,r3
  802f10:	01440034 	movhi	r5,4096
  802f14:	110cb03a 	or	r6,r2,r4
  802f18:	423f0044 	addi	r8,r8,-1023
  802f1c:	194eb03a 	or	r7,r3,r5
  802f20:	008000c4 	movi	r2,3
  802f24:	69c00415 	stw	r7,16(r13)
  802f28:	6a000215 	stw	r8,8(r13)
  802f2c:	68800015 	stw	r2,0(r13)
  802f30:	69800315 	stw	r6,12(r13)
  802f34:	f800283a 	ret
  802f38:	4a84b03a 	or	r2,r9,r10
  802f3c:	1000031e 	bne	r2,zero,802f4c <__unpack_d+0x104>
  802f40:	00800104 	movi	r2,4
  802f44:	28800015 	stw	r2,0(r5)
  802f48:	f800283a 	ret
  802f4c:	0009883a 	mov	r4,zero
  802f50:	01400234 	movhi	r5,8
  802f54:	4904703a 	and	r2,r9,r4
  802f58:	5146703a 	and	r3,r10,r5
  802f5c:	10c4b03a 	or	r2,r2,r3
  802f60:	10000526 	beq	r2,zero,802f78 <__unpack_d+0x130>
  802f64:	00800044 	movi	r2,1
  802f68:	68800015 	stw	r2,0(r13)
  802f6c:	6b000415 	stw	r12,16(r13)
  802f70:	6ac00315 	stw	r11,12(r13)
  802f74:	f800283a 	ret
  802f78:	68000015 	stw	zero,0(r13)
  802f7c:	003ffb06 	br	802f6c <__unpack_d+0x124>

00802f80 <printf>:
  802f80:	defffb04 	addi	sp,sp,-20
  802f84:	dfc00115 	stw	ra,4(sp)
  802f88:	d9400215 	stw	r5,8(sp)
  802f8c:	d9800315 	stw	r6,12(sp)
  802f90:	d9c00415 	stw	r7,16(sp)
  802f94:	00802074 	movhi	r2,129
  802f98:	10a2f104 	addi	r2,r2,-29756
  802f9c:	11400017 	ldw	r5,0(r2)
  802fa0:	d8800204 	addi	r2,sp,8
  802fa4:	d8800015 	stw	r2,0(sp)
  802fa8:	29c00217 	ldw	r7,8(r5)
  802fac:	100d883a 	mov	r6,r2
  802fb0:	00802034 	movhi	r2,128
  802fb4:	108dd604 	addi	r2,r2,14168
  802fb8:	200b883a 	mov	r5,r4
  802fbc:	38800115 	stw	r2,4(r7)
  802fc0:	3809883a 	mov	r4,r7
  802fc4:	08037340 	call	803734 <__vfprintf_internal>
  802fc8:	dfc00117 	ldw	ra,4(sp)
  802fcc:	dec00504 	addi	sp,sp,20
  802fd0:	f800283a 	ret

00802fd4 <_printf_r>:
  802fd4:	defffc04 	addi	sp,sp,-16
  802fd8:	dfc00115 	stw	ra,4(sp)
  802fdc:	d9800215 	stw	r6,8(sp)
  802fe0:	d9c00315 	stw	r7,12(sp)
  802fe4:	22000217 	ldw	r8,8(r4)
  802fe8:	d8800204 	addi	r2,sp,8
  802fec:	d8800015 	stw	r2,0(sp)
  802ff0:	100f883a 	mov	r7,r2
  802ff4:	00802034 	movhi	r2,128
  802ff8:	108dd604 	addi	r2,r2,14168
  802ffc:	280d883a 	mov	r6,r5
  803000:	40800115 	stw	r2,4(r8)
  803004:	400b883a 	mov	r5,r8
  803008:	08030980 	call	803098 <___vfprintf_internal_r>
  80300c:	dfc00117 	ldw	ra,4(sp)
  803010:	dec00404 	addi	sp,sp,16
  803014:	f800283a 	ret

00803018 <print_repeat>:
  803018:	defffb04 	addi	sp,sp,-20
  80301c:	dc800315 	stw	r18,12(sp)
  803020:	dc400215 	stw	r17,8(sp)
  803024:	dc000115 	stw	r16,4(sp)
  803028:	dfc00415 	stw	ra,16(sp)
  80302c:	2025883a 	mov	r18,r4
  803030:	2823883a 	mov	r17,r5
  803034:	3821883a 	mov	r16,r7
  803038:	d9800005 	stb	r6,0(sp)
  80303c:	9009883a 	mov	r4,r18
  803040:	880b883a 	mov	r5,r17
  803044:	d80d883a 	mov	r6,sp
  803048:	01c00044 	movi	r7,1
  80304c:	04000b0e 	bge	zero,r16,80307c <print_repeat+0x64>
  803050:	88c00117 	ldw	r3,4(r17)
  803054:	843fffc4 	addi	r16,r16,-1
  803058:	183ee83a 	callr	r3
  80305c:	103ff726 	beq	r2,zero,80303c <print_repeat+0x24>
  803060:	00bfffc4 	movi	r2,-1
  803064:	dfc00417 	ldw	ra,16(sp)
  803068:	dc800317 	ldw	r18,12(sp)
  80306c:	dc400217 	ldw	r17,8(sp)
  803070:	dc000117 	ldw	r16,4(sp)
  803074:	dec00504 	addi	sp,sp,20
  803078:	f800283a 	ret
  80307c:	0005883a 	mov	r2,zero
  803080:	dfc00417 	ldw	ra,16(sp)
  803084:	dc800317 	ldw	r18,12(sp)
  803088:	dc400217 	ldw	r17,8(sp)
  80308c:	dc000117 	ldw	r16,4(sp)
  803090:	dec00504 	addi	sp,sp,20
  803094:	f800283a 	ret

00803098 <___vfprintf_internal_r>:
  803098:	deffe304 	addi	sp,sp,-116
  80309c:	df001b15 	stw	fp,108(sp)
  8030a0:	ddc01a15 	stw	r23,104(sp)
  8030a4:	dd001715 	stw	r20,92(sp)
  8030a8:	dc801515 	stw	r18,84(sp)
  8030ac:	dc001315 	stw	r16,76(sp)
  8030b0:	dfc01c15 	stw	ra,112(sp)
  8030b4:	dd801915 	stw	r22,100(sp)
  8030b8:	dd401815 	stw	r21,96(sp)
  8030bc:	dcc01615 	stw	r19,88(sp)
  8030c0:	dc401415 	stw	r17,80(sp)
  8030c4:	d9001015 	stw	r4,64(sp)
  8030c8:	2829883a 	mov	r20,r5
  8030cc:	d9c01115 	stw	r7,68(sp)
  8030d0:	3025883a 	mov	r18,r6
  8030d4:	0021883a 	mov	r16,zero
  8030d8:	d8000f15 	stw	zero,60(sp)
  8030dc:	d8000e15 	stw	zero,56(sp)
  8030e0:	0039883a 	mov	fp,zero
  8030e4:	d8000915 	stw	zero,36(sp)
  8030e8:	d8000d15 	stw	zero,52(sp)
  8030ec:	d8000c15 	stw	zero,48(sp)
  8030f0:	d8000b15 	stw	zero,44(sp)
  8030f4:	002f883a 	mov	r23,zero
  8030f8:	91400003 	ldbu	r5,0(r18)
  8030fc:	01c00044 	movi	r7,1
  803100:	94800044 	addi	r18,r18,1
  803104:	29003fcc 	andi	r4,r5,255
  803108:	2100201c 	xori	r4,r4,128
  80310c:	213fe004 	addi	r4,r4,-128
  803110:	20001526 	beq	r4,zero,803168 <___vfprintf_internal_r+0xd0>
  803114:	81c03526 	beq	r16,r7,8031ec <___vfprintf_internal_r+0x154>
  803118:	3c002016 	blt	r7,r16,80319c <___vfprintf_internal_r+0x104>
  80311c:	803ff61e 	bne	r16,zero,8030f8 <___vfprintf_internal_r+0x60>
  803120:	00800944 	movi	r2,37
  803124:	2081501e 	bne	r4,r2,803668 <___vfprintf_internal_r+0x5d0>
  803128:	073fffc4 	movi	fp,-1
  80312c:	00800284 	movi	r2,10
  803130:	d9c00c15 	stw	r7,48(sp)
  803134:	d8000f15 	stw	zero,60(sp)
  803138:	d8000e15 	stw	zero,56(sp)
  80313c:	df000915 	stw	fp,36(sp)
  803140:	d8800d15 	stw	r2,52(sp)
  803144:	d8000b15 	stw	zero,44(sp)
  803148:	91400003 	ldbu	r5,0(r18)
  80314c:	3821883a 	mov	r16,r7
  803150:	94800044 	addi	r18,r18,1
  803154:	29003fcc 	andi	r4,r5,255
  803158:	2100201c 	xori	r4,r4,128
  80315c:	213fe004 	addi	r4,r4,-128
  803160:	01c00044 	movi	r7,1
  803164:	203feb1e 	bne	r4,zero,803114 <___vfprintf_internal_r+0x7c>
  803168:	b805883a 	mov	r2,r23
  80316c:	dfc01c17 	ldw	ra,112(sp)
  803170:	df001b17 	ldw	fp,108(sp)
  803174:	ddc01a17 	ldw	r23,104(sp)
  803178:	dd801917 	ldw	r22,100(sp)
  80317c:	dd401817 	ldw	r21,96(sp)
  803180:	dd001717 	ldw	r20,92(sp)
  803184:	dcc01617 	ldw	r19,88(sp)
  803188:	dc801517 	ldw	r18,84(sp)
  80318c:	dc401417 	ldw	r17,80(sp)
  803190:	dc001317 	ldw	r16,76(sp)
  803194:	dec01d04 	addi	sp,sp,116
  803198:	f800283a 	ret
  80319c:	00800084 	movi	r2,2
  8031a0:	80801726 	beq	r16,r2,803200 <___vfprintf_internal_r+0x168>
  8031a4:	008000c4 	movi	r2,3
  8031a8:	80bfd31e 	bne	r16,r2,8030f8 <___vfprintf_internal_r+0x60>
  8031ac:	2c7ff404 	addi	r17,r5,-48
  8031b0:	88c03fcc 	andi	r3,r17,255
  8031b4:	00800244 	movi	r2,9
  8031b8:	10c02136 	bltu	r2,r3,803240 <___vfprintf_internal_r+0x1a8>
  8031bc:	d8c00917 	ldw	r3,36(sp)
  8031c0:	18012716 	blt	r3,zero,803660 <___vfprintf_internal_r+0x5c8>
  8031c4:	d9000917 	ldw	r4,36(sp)
  8031c8:	01400284 	movi	r5,10
  8031cc:	08028540 	call	802854 <__mulsi3>
  8031d0:	1007883a 	mov	r3,r2
  8031d4:	88803fcc 	andi	r2,r17,255
  8031d8:	1080201c 	xori	r2,r2,128
  8031dc:	10bfe004 	addi	r2,r2,-128
  8031e0:	1887883a 	add	r3,r3,r2
  8031e4:	d8c00915 	stw	r3,36(sp)
  8031e8:	003fc306 	br	8030f8 <___vfprintf_internal_r+0x60>
  8031ec:	00800c04 	movi	r2,48
  8031f0:	2080b326 	beq	r4,r2,8034c0 <___vfprintf_internal_r+0x428>
  8031f4:	00800944 	movi	r2,37
  8031f8:	20812726 	beq	r4,r2,803698 <___vfprintf_internal_r+0x600>
  8031fc:	04000084 	movi	r16,2
  803200:	2c7ff404 	addi	r17,r5,-48
  803204:	88c03fcc 	andi	r3,r17,255
  803208:	00800244 	movi	r2,9
  80320c:	10c00a36 	bltu	r2,r3,803238 <___vfprintf_internal_r+0x1a0>
  803210:	e000b416 	blt	fp,zero,8034e4 <___vfprintf_internal_r+0x44c>
  803214:	e009883a 	mov	r4,fp
  803218:	01400284 	movi	r5,10
  80321c:	08028540 	call	802854 <__mulsi3>
  803220:	1007883a 	mov	r3,r2
  803224:	88803fcc 	andi	r2,r17,255
  803228:	1080201c 	xori	r2,r2,128
  80322c:	10bfe004 	addi	r2,r2,-128
  803230:	18b9883a 	add	fp,r3,r2
  803234:	003fb006 	br	8030f8 <___vfprintf_internal_r+0x60>
  803238:	00800b84 	movi	r2,46
  80323c:	2080a326 	beq	r4,r2,8034cc <___vfprintf_internal_r+0x434>
  803240:	00801b04 	movi	r2,108
  803244:	2080a326 	beq	r4,r2,8034d4 <___vfprintf_internal_r+0x43c>
  803248:	d8c00917 	ldw	r3,36(sp)
  80324c:	1800a716 	blt	r3,zero,8034ec <___vfprintf_internal_r+0x454>
  803250:	d8000f15 	stw	zero,60(sp)
  803254:	28bfea04 	addi	r2,r5,-88
  803258:	10803fcc 	andi	r2,r2,255
  80325c:	00c00804 	movi	r3,32
  803260:	18802836 	bltu	r3,r2,803304 <___vfprintf_internal_r+0x26c>
  803264:	1085883a 	add	r2,r2,r2
  803268:	1085883a 	add	r2,r2,r2
  80326c:	00c02034 	movhi	r3,128
  803270:	18cca004 	addi	r3,r3,12928
  803274:	10c5883a 	add	r2,r2,r3
  803278:	11000017 	ldw	r4,0(r2)
  80327c:	2000683a 	jmp	r4
  803280:	0080330c 	andi	r2,zero,204
  803284:	00803304 	movi	r2,204
  803288:	00803304 	movi	r2,204
  80328c:	00803304 	movi	r2,204
  803290:	00803304 	movi	r2,204
  803294:	00803304 	movi	r2,204
  803298:	00803304 	movi	r2,204
  80329c:	00803304 	movi	r2,204
  8032a0:	00803304 	movi	r2,204
  8032a4:	00803304 	movi	r2,204
  8032a8:	00803304 	movi	r2,204
  8032ac:	00803538 	rdprs	r2,zero,212
  8032b0:	00803320 	cmpeqi	r2,zero,204
  8032b4:	00803304 	movi	r2,204
  8032b8:	00803304 	movi	r2,204
  8032bc:	00803304 	movi	r2,204
  8032c0:	00803304 	movi	r2,204
  8032c4:	00803320 	cmpeqi	r2,zero,204
  8032c8:	00803304 	movi	r2,204
  8032cc:	00803304 	movi	r2,204
  8032d0:	00803304 	movi	r2,204
  8032d4:	00803304 	movi	r2,204
  8032d8:	00803304 	movi	r2,204
  8032dc:	008035a0 	cmpeqi	r2,zero,214
  8032e0:	00803304 	movi	r2,204
  8032e4:	00803304 	movi	r2,204
  8032e8:	00803304 	movi	r2,204
  8032ec:	008035b0 	cmpltui	r2,zero,214
  8032f0:	00803304 	movi	r2,204
  8032f4:	00803484 	movi	r2,210
  8032f8:	00803304 	movi	r2,204
  8032fc:	00803304 	movi	r2,204
  803300:	0080347c 	xorhi	r2,zero,209
  803304:	0021883a 	mov	r16,zero
  803308:	003f7b06 	br	8030f8 <___vfprintf_internal_r+0x60>
  80330c:	00c00404 	movi	r3,16
  803310:	00800044 	movi	r2,1
  803314:	d8c00d15 	stw	r3,52(sp)
  803318:	d8000c15 	stw	zero,48(sp)
  80331c:	d8800b15 	stw	r2,44(sp)
  803320:	d8c00e17 	ldw	r3,56(sp)
  803324:	1805003a 	cmpeq	r2,r3,zero
  803328:	10005a1e 	bne	r2,zero,803494 <___vfprintf_internal_r+0x3fc>
  80332c:	d8800c17 	ldw	r2,48(sp)
  803330:	1000781e 	bne	r2,zero,803514 <___vfprintf_internal_r+0x47c>
  803334:	d8801117 	ldw	r2,68(sp)
  803338:	d8000a15 	stw	zero,40(sp)
  80333c:	14400017 	ldw	r17,0(r2)
  803340:	11c00104 	addi	r7,r2,4
  803344:	d9c01115 	stw	r7,68(sp)
  803348:	88005a26 	beq	r17,zero,8034b4 <___vfprintf_internal_r+0x41c>
  80334c:	d8c00b17 	ldw	r3,44(sp)
  803350:	dcc00044 	addi	r19,sp,1
  803354:	05800244 	movi	r22,9
  803358:	182b003a 	cmpeq	r21,r3,zero
  80335c:	dcc01215 	stw	r19,72(sp)
  803360:	00000506 	br	803378 <___vfprintf_internal_r+0x2e0>
  803364:	21000c04 	addi	r4,r4,48
  803368:	99000005 	stb	r4,0(r19)
  80336c:	9cc00044 	addi	r19,r19,1
  803370:	80000f26 	beq	r16,zero,8033b0 <___vfprintf_internal_r+0x318>
  803374:	8023883a 	mov	r17,r16
  803378:	d9400d17 	ldw	r5,52(sp)
  80337c:	8809883a 	mov	r4,r17
  803380:	08028440 	call	802844 <__udivsi3>
  803384:	d9000d17 	ldw	r4,52(sp)
  803388:	100b883a 	mov	r5,r2
  80338c:	1021883a 	mov	r16,r2
  803390:	08028540 	call	802854 <__mulsi3>
  803394:	8889c83a 	sub	r4,r17,r2
  803398:	b13ff20e 	bge	r22,r4,803364 <___vfprintf_internal_r+0x2cc>
  80339c:	a8009f1e 	bne	r21,zero,80361c <___vfprintf_internal_r+0x584>
  8033a0:	21000dc4 	addi	r4,r4,55
  8033a4:	99000005 	stb	r4,0(r19)
  8033a8:	9cc00044 	addi	r19,r19,1
  8033ac:	803ff11e 	bne	r16,zero,803374 <___vfprintf_internal_r+0x2dc>
  8033b0:	d8801217 	ldw	r2,72(sp)
  8033b4:	98a3c83a 	sub	r17,r19,r2
  8033b8:	d8c00917 	ldw	r3,36(sp)
  8033bc:	1c4bc83a 	sub	r5,r3,r17
  8033c0:	0140130e 	bge	zero,r5,803410 <___vfprintf_internal_r+0x378>
  8033c4:	d8c00044 	addi	r3,sp,1
  8033c8:	18800804 	addi	r2,r3,32
  8033cc:	9880102e 	bgeu	r19,r2,803410 <___vfprintf_internal_r+0x378>
  8033d0:	00800c04 	movi	r2,48
  8033d4:	28ffffc4 	addi	r3,r5,-1
  8033d8:	98800005 	stb	r2,0(r19)
  8033dc:	99000044 	addi	r4,r19,1
  8033e0:	00c0080e 	bge	zero,r3,803404 <___vfprintf_internal_r+0x36c>
  8033e4:	d8c00044 	addi	r3,sp,1
  8033e8:	18800804 	addi	r2,r3,32
  8033ec:	2080052e 	bgeu	r4,r2,803404 <___vfprintf_internal_r+0x36c>
  8033f0:	00800c04 	movi	r2,48
  8033f4:	20800005 	stb	r2,0(r4)
  8033f8:	21000044 	addi	r4,r4,1
  8033fc:	9945883a 	add	r2,r19,r5
  803400:	20bff81e 	bne	r4,r2,8033e4 <___vfprintf_internal_r+0x34c>
  803404:	d8801217 	ldw	r2,72(sp)
  803408:	2027883a 	mov	r19,r4
  80340c:	20a3c83a 	sub	r17,r4,r2
  803410:	d8c00a17 	ldw	r3,40(sp)
  803414:	1c45883a 	add	r2,r3,r17
  803418:	e0a1c83a 	sub	r16,fp,r2
  80341c:	d8800f17 	ldw	r2,60(sp)
  803420:	10008026 	beq	r2,zero,803624 <___vfprintf_internal_r+0x58c>
  803424:	1805003a 	cmpeq	r2,r3,zero
  803428:	1000ae26 	beq	r2,zero,8036e4 <___vfprintf_internal_r+0x64c>
  80342c:	0400a516 	blt	zero,r16,8036c4 <___vfprintf_internal_r+0x62c>
  803430:	b805883a 	mov	r2,r23
  803434:	0440950e 	bge	zero,r17,80368c <___vfprintf_internal_r+0x5f4>
  803438:	102f883a 	mov	r23,r2
  80343c:	1461883a 	add	r16,r2,r17
  803440:	00000206 	br	80344c <___vfprintf_internal_r+0x3b4>
  803444:	bdc00044 	addi	r23,r23,1
  803448:	85ffae26 	beq	r16,r23,803304 <___vfprintf_internal_r+0x26c>
  80344c:	9cffffc4 	addi	r19,r19,-1
  803450:	98800003 	ldbu	r2,0(r19)
  803454:	a0c00117 	ldw	r3,4(r20)
  803458:	d9001017 	ldw	r4,64(sp)
  80345c:	d8800005 	stb	r2,0(sp)
  803460:	a00b883a 	mov	r5,r20
  803464:	d80d883a 	mov	r6,sp
  803468:	01c00044 	movi	r7,1
  80346c:	183ee83a 	callr	r3
  803470:	103ff426 	beq	r2,zero,803444 <___vfprintf_internal_r+0x3ac>
  803474:	05ffffc4 	movi	r23,-1
  803478:	003f3b06 	br	803168 <___vfprintf_internal_r+0xd0>
  80347c:	00c00404 	movi	r3,16
  803480:	d8c00d15 	stw	r3,52(sp)
  803484:	d8000c15 	stw	zero,48(sp)
  803488:	d8c00e17 	ldw	r3,56(sp)
  80348c:	1805003a 	cmpeq	r2,r3,zero
  803490:	103fa626 	beq	r2,zero,80332c <___vfprintf_internal_r+0x294>
  803494:	d8c00c17 	ldw	r3,48(sp)
  803498:	1800171e 	bne	r3,zero,8034f8 <___vfprintf_internal_r+0x460>
  80349c:	d8c01117 	ldw	r3,68(sp)
  8034a0:	d8000a15 	stw	zero,40(sp)
  8034a4:	1c400017 	ldw	r17,0(r3)
  8034a8:	19c00104 	addi	r7,r3,4
  8034ac:	d9c01115 	stw	r7,68(sp)
  8034b0:	883fa61e 	bne	r17,zero,80334c <___vfprintf_internal_r+0x2b4>
  8034b4:	dcc00044 	addi	r19,sp,1
  8034b8:	dcc01215 	stw	r19,72(sp)
  8034bc:	003fbe06 	br	8033b8 <___vfprintf_internal_r+0x320>
  8034c0:	04000084 	movi	r16,2
  8034c4:	d9c00f15 	stw	r7,60(sp)
  8034c8:	003f0b06 	br	8030f8 <___vfprintf_internal_r+0x60>
  8034cc:	040000c4 	movi	r16,3
  8034d0:	003f0906 	br	8030f8 <___vfprintf_internal_r+0x60>
  8034d4:	00800044 	movi	r2,1
  8034d8:	040000c4 	movi	r16,3
  8034dc:	d8800e15 	stw	r2,56(sp)
  8034e0:	003f0506 	br	8030f8 <___vfprintf_internal_r+0x60>
  8034e4:	0007883a 	mov	r3,zero
  8034e8:	003f4e06 	br	803224 <___vfprintf_internal_r+0x18c>
  8034ec:	00800044 	movi	r2,1
  8034f0:	d8800915 	stw	r2,36(sp)
  8034f4:	003f5706 	br	803254 <___vfprintf_internal_r+0x1bc>
  8034f8:	d8801117 	ldw	r2,68(sp)
  8034fc:	14400017 	ldw	r17,0(r2)
  803500:	10800104 	addi	r2,r2,4
  803504:	d8801115 	stw	r2,68(sp)
  803508:	88000716 	blt	r17,zero,803528 <___vfprintf_internal_r+0x490>
  80350c:	d8000a15 	stw	zero,40(sp)
  803510:	003f8d06 	br	803348 <___vfprintf_internal_r+0x2b0>
  803514:	d8c01117 	ldw	r3,68(sp)
  803518:	1c400017 	ldw	r17,0(r3)
  80351c:	18c00104 	addi	r3,r3,4
  803520:	d8c01115 	stw	r3,68(sp)
  803524:	883ff90e 	bge	r17,zero,80350c <___vfprintf_internal_r+0x474>
  803528:	00800044 	movi	r2,1
  80352c:	0463c83a 	sub	r17,zero,r17
  803530:	d8800a15 	stw	r2,40(sp)
  803534:	003f8406 	br	803348 <___vfprintf_internal_r+0x2b0>
  803538:	04000044 	movi	r16,1
  80353c:	8700080e 	bge	r16,fp,803560 <___vfprintf_internal_r+0x4c8>
  803540:	d9001017 	ldw	r4,64(sp)
  803544:	a00b883a 	mov	r5,r20
  803548:	01800804 	movi	r6,32
  80354c:	e1ffffc4 	addi	r7,fp,-1
  803550:	08030180 	call	803018 <print_repeat>
  803554:	103fc71e 	bne	r2,zero,803474 <___vfprintf_internal_r+0x3dc>
  803558:	e5c5883a 	add	r2,fp,r23
  80355c:	15ffffc4 	addi	r23,r2,-1
  803560:	d8c01117 	ldw	r3,68(sp)
  803564:	d9001017 	ldw	r4,64(sp)
  803568:	800f883a 	mov	r7,r16
  80356c:	18800017 	ldw	r2,0(r3)
  803570:	a0c00117 	ldw	r3,4(r20)
  803574:	a00b883a 	mov	r5,r20
  803578:	d8800005 	stb	r2,0(sp)
  80357c:	d80d883a 	mov	r6,sp
  803580:	183ee83a 	callr	r3
  803584:	103fbb1e 	bne	r2,zero,803474 <___vfprintf_internal_r+0x3dc>
  803588:	d8801117 	ldw	r2,68(sp)
  80358c:	bdc00044 	addi	r23,r23,1
  803590:	0021883a 	mov	r16,zero
  803594:	10800104 	addi	r2,r2,4
  803598:	d8801115 	stw	r2,68(sp)
  80359c:	003ed606 	br	8030f8 <___vfprintf_internal_r+0x60>
  8035a0:	00800204 	movi	r2,8
  8035a4:	d8800d15 	stw	r2,52(sp)
  8035a8:	d8000c15 	stw	zero,48(sp)
  8035ac:	003fb606 	br	803488 <___vfprintf_internal_r+0x3f0>
  8035b0:	d8c01117 	ldw	r3,68(sp)
  8035b4:	1cc00017 	ldw	r19,0(r3)
  8035b8:	9809883a 	mov	r4,r19
  8035bc:	08038140 	call	803814 <strlen>
  8035c0:	e0a1c83a 	sub	r16,fp,r2
  8035c4:	1023883a 	mov	r17,r2
  8035c8:	0400070e 	bge	zero,r16,8035e8 <___vfprintf_internal_r+0x550>
  8035cc:	d9001017 	ldw	r4,64(sp)
  8035d0:	a00b883a 	mov	r5,r20
  8035d4:	01800804 	movi	r6,32
  8035d8:	800f883a 	mov	r7,r16
  8035dc:	08030180 	call	803018 <print_repeat>
  8035e0:	103fa41e 	bne	r2,zero,803474 <___vfprintf_internal_r+0x3dc>
  8035e4:	bc2f883a 	add	r23,r23,r16
  8035e8:	a0c00117 	ldw	r3,4(r20)
  8035ec:	d9001017 	ldw	r4,64(sp)
  8035f0:	980d883a 	mov	r6,r19
  8035f4:	a00b883a 	mov	r5,r20
  8035f8:	880f883a 	mov	r7,r17
  8035fc:	183ee83a 	callr	r3
  803600:	103f9c1e 	bne	r2,zero,803474 <___vfprintf_internal_r+0x3dc>
  803604:	d8801117 	ldw	r2,68(sp)
  803608:	bc6f883a 	add	r23,r23,r17
  80360c:	0021883a 	mov	r16,zero
  803610:	10800104 	addi	r2,r2,4
  803614:	d8801115 	stw	r2,68(sp)
  803618:	003eb706 	br	8030f8 <___vfprintf_internal_r+0x60>
  80361c:	210015c4 	addi	r4,r4,87
  803620:	003f5106 	br	803368 <___vfprintf_internal_r+0x2d0>
  803624:	04003b16 	blt	zero,r16,803714 <___vfprintf_internal_r+0x67c>
  803628:	d8c00a17 	ldw	r3,40(sp)
  80362c:	1805003a 	cmpeq	r2,r3,zero
  803630:	103f7f1e 	bne	r2,zero,803430 <___vfprintf_internal_r+0x398>
  803634:	a0c00117 	ldw	r3,4(r20)
  803638:	d9001017 	ldw	r4,64(sp)
  80363c:	00800b44 	movi	r2,45
  803640:	d8800005 	stb	r2,0(sp)
  803644:	a00b883a 	mov	r5,r20
  803648:	d80d883a 	mov	r6,sp
  80364c:	01c00044 	movi	r7,1
  803650:	183ee83a 	callr	r3
  803654:	103f871e 	bne	r2,zero,803474 <___vfprintf_internal_r+0x3dc>
  803658:	b8800044 	addi	r2,r23,1
  80365c:	003f7506 	br	803434 <___vfprintf_internal_r+0x39c>
  803660:	0007883a 	mov	r3,zero
  803664:	003edb06 	br	8031d4 <___vfprintf_internal_r+0x13c>
  803668:	a0c00117 	ldw	r3,4(r20)
  80366c:	d9001017 	ldw	r4,64(sp)
  803670:	d9400005 	stb	r5,0(sp)
  803674:	d80d883a 	mov	r6,sp
  803678:	a00b883a 	mov	r5,r20
  80367c:	183ee83a 	callr	r3
  803680:	103f7c1e 	bne	r2,zero,803474 <___vfprintf_internal_r+0x3dc>
  803684:	bdc00044 	addi	r23,r23,1
  803688:	003e9b06 	br	8030f8 <___vfprintf_internal_r+0x60>
  80368c:	102f883a 	mov	r23,r2
  803690:	0021883a 	mov	r16,zero
  803694:	003e9806 	br	8030f8 <___vfprintf_internal_r+0x60>
  803698:	a0c00117 	ldw	r3,4(r20)
  80369c:	d9000005 	stb	r4,0(sp)
  8036a0:	d9001017 	ldw	r4,64(sp)
  8036a4:	a00b883a 	mov	r5,r20
  8036a8:	d80d883a 	mov	r6,sp
  8036ac:	800f883a 	mov	r7,r16
  8036b0:	183ee83a 	callr	r3
  8036b4:	103f6f1e 	bne	r2,zero,803474 <___vfprintf_internal_r+0x3dc>
  8036b8:	bc2f883a 	add	r23,r23,r16
  8036bc:	0021883a 	mov	r16,zero
  8036c0:	003e8d06 	br	8030f8 <___vfprintf_internal_r+0x60>
  8036c4:	d9001017 	ldw	r4,64(sp)
  8036c8:	a00b883a 	mov	r5,r20
  8036cc:	01800c04 	movi	r6,48
  8036d0:	800f883a 	mov	r7,r16
  8036d4:	08030180 	call	803018 <print_repeat>
  8036d8:	103f661e 	bne	r2,zero,803474 <___vfprintf_internal_r+0x3dc>
  8036dc:	bc05883a 	add	r2,r23,r16
  8036e0:	003f5406 	br	803434 <___vfprintf_internal_r+0x39c>
  8036e4:	a0c00117 	ldw	r3,4(r20)
  8036e8:	d9001017 	ldw	r4,64(sp)
  8036ec:	00800b44 	movi	r2,45
  8036f0:	d8800005 	stb	r2,0(sp)
  8036f4:	a00b883a 	mov	r5,r20
  8036f8:	d80d883a 	mov	r6,sp
  8036fc:	01c00044 	movi	r7,1
  803700:	183ee83a 	callr	r3
  803704:	103f5b1e 	bne	r2,zero,803474 <___vfprintf_internal_r+0x3dc>
  803708:	bdc00044 	addi	r23,r23,1
  80370c:	043f480e 	bge	zero,r16,803430 <___vfprintf_internal_r+0x398>
  803710:	003fec06 	br	8036c4 <___vfprintf_internal_r+0x62c>
  803714:	d9001017 	ldw	r4,64(sp)
  803718:	a00b883a 	mov	r5,r20
  80371c:	01800804 	movi	r6,32
  803720:	800f883a 	mov	r7,r16
  803724:	08030180 	call	803018 <print_repeat>
  803728:	103f521e 	bne	r2,zero,803474 <___vfprintf_internal_r+0x3dc>
  80372c:	bc2f883a 	add	r23,r23,r16
  803730:	003fbd06 	br	803628 <___vfprintf_internal_r+0x590>

00803734 <__vfprintf_internal>:
  803734:	00802074 	movhi	r2,129
  803738:	10a2f104 	addi	r2,r2,-29756
  80373c:	2013883a 	mov	r9,r4
  803740:	11000017 	ldw	r4,0(r2)
  803744:	2805883a 	mov	r2,r5
  803748:	300f883a 	mov	r7,r6
  80374c:	480b883a 	mov	r5,r9
  803750:	100d883a 	mov	r6,r2
  803754:	08030981 	jmpi	803098 <___vfprintf_internal_r>

00803758 <__sfvwrite_small_dev>:
  803758:	2880000b 	ldhu	r2,0(r5)
  80375c:	defffa04 	addi	sp,sp,-24
  803760:	dcc00315 	stw	r19,12(sp)
  803764:	1080020c 	andi	r2,r2,8
  803768:	dc800215 	stw	r18,8(sp)
  80376c:	dc400115 	stw	r17,4(sp)
  803770:	dfc00515 	stw	ra,20(sp)
  803774:	dd000415 	stw	r20,16(sp)
  803778:	dc000015 	stw	r16,0(sp)
  80377c:	2825883a 	mov	r18,r5
  803780:	2027883a 	mov	r19,r4
  803784:	3023883a 	mov	r17,r6
  803788:	10002026 	beq	r2,zero,80380c <__sfvwrite_small_dev+0xb4>
  80378c:	2940008f 	ldh	r5,2(r5)
  803790:	28000f16 	blt	r5,zero,8037d0 <__sfvwrite_small_dev+0x78>
  803794:	01c01b0e 	bge	zero,r7,803804 <__sfvwrite_small_dev+0xac>
  803798:	3821883a 	mov	r16,r7
  80379c:	05010004 	movi	r20,1024
  8037a0:	00000206 	br	8037ac <__sfvwrite_small_dev+0x54>
  8037a4:	0400170e 	bge	zero,r16,803804 <__sfvwrite_small_dev+0xac>
  8037a8:	9140008f 	ldh	r5,2(r18)
  8037ac:	880d883a 	mov	r6,r17
  8037b0:	9809883a 	mov	r4,r19
  8037b4:	800f883a 	mov	r7,r16
  8037b8:	a400010e 	bge	r20,r16,8037c0 <__sfvwrite_small_dev+0x68>
  8037bc:	01c10004 	movi	r7,1024
  8037c0:	08038340 	call	803834 <_write_r>
  8037c4:	88a3883a 	add	r17,r17,r2
  8037c8:	80a1c83a 	sub	r16,r16,r2
  8037cc:	00bff516 	blt	zero,r2,8037a4 <__sfvwrite_small_dev+0x4c>
  8037d0:	9080000b 	ldhu	r2,0(r18)
  8037d4:	00ffffc4 	movi	r3,-1
  8037d8:	10801014 	ori	r2,r2,64
  8037dc:	9080000d 	sth	r2,0(r18)
  8037e0:	1805883a 	mov	r2,r3
  8037e4:	dfc00517 	ldw	ra,20(sp)
  8037e8:	dd000417 	ldw	r20,16(sp)
  8037ec:	dcc00317 	ldw	r19,12(sp)
  8037f0:	dc800217 	ldw	r18,8(sp)
  8037f4:	dc400117 	ldw	r17,4(sp)
  8037f8:	dc000017 	ldw	r16,0(sp)
  8037fc:	dec00604 	addi	sp,sp,24
  803800:	f800283a 	ret
  803804:	0007883a 	mov	r3,zero
  803808:	003ff506 	br	8037e0 <__sfvwrite_small_dev+0x88>
  80380c:	00ffffc4 	movi	r3,-1
  803810:	003ff306 	br	8037e0 <__sfvwrite_small_dev+0x88>

00803814 <strlen>:
  803814:	20800007 	ldb	r2,0(r4)
  803818:	10000526 	beq	r2,zero,803830 <strlen+0x1c>
  80381c:	2007883a 	mov	r3,r4
  803820:	18c00044 	addi	r3,r3,1
  803824:	18800007 	ldb	r2,0(r3)
  803828:	103ffd1e 	bne	r2,zero,803820 <strlen+0xc>
  80382c:	1905c83a 	sub	r2,r3,r4
  803830:	f800283a 	ret

00803834 <_write_r>:
  803834:	defffd04 	addi	sp,sp,-12
  803838:	dc000015 	stw	r16,0(sp)
  80383c:	04002074 	movhi	r16,129
  803840:	84241504 	addi	r16,r16,-28588
  803844:	dc400115 	stw	r17,4(sp)
  803848:	80000015 	stw	zero,0(r16)
  80384c:	2023883a 	mov	r17,r4
  803850:	2809883a 	mov	r4,r5
  803854:	300b883a 	mov	r5,r6
  803858:	380d883a 	mov	r6,r7
  80385c:	dfc00215 	stw	ra,8(sp)
  803860:	0803cc80 	call	803cc8 <write>
  803864:	1007883a 	mov	r3,r2
  803868:	00bfffc4 	movi	r2,-1
  80386c:	18800626 	beq	r3,r2,803888 <_write_r+0x54>
  803870:	1805883a 	mov	r2,r3
  803874:	dfc00217 	ldw	ra,8(sp)
  803878:	dc400117 	ldw	r17,4(sp)
  80387c:	dc000017 	ldw	r16,0(sp)
  803880:	dec00304 	addi	sp,sp,12
  803884:	f800283a 	ret
  803888:	80800017 	ldw	r2,0(r16)
  80388c:	103ff826 	beq	r2,zero,803870 <_write_r+0x3c>
  803890:	88800015 	stw	r2,0(r17)
  803894:	1805883a 	mov	r2,r3
  803898:	dfc00217 	ldw	ra,8(sp)
  80389c:	dc400117 	ldw	r17,4(sp)
  8038a0:	dc000017 	ldw	r16,0(sp)
  8038a4:	dec00304 	addi	sp,sp,12
  8038a8:	f800283a 	ret

008038ac <alt_alarm_start>:
                     void* context)
{
  alt_irq_context irq_context;
  alt_u32 current_nticks = 0;
  
  if (alt_ticks_per_second ())
  8038ac:	00802074 	movhi	r2,129
  8038b0:	10a41904 	addi	r2,r2,-28572
  8038b4:	10800017 	ldw	r2,0(r2)
  8038b8:	00ffde84 	movi	r3,-134
  8038bc:	10001d26 	beq	r2,zero,803934 <alt_alarm_start+0x88>
  {
    if (alarm)
  8038c0:	00fffa84 	movi	r3,-22
  8038c4:	20001b26 	beq	r4,zero,803934 <alt_alarm_start+0x88>
    {
      alarm->callback = callback;
  8038c8:	21800315 	stw	r6,12(r4)
      alarm->context  = context;
  8038cc:	21c00515 	stw	r7,20(r4)
static ALT_INLINE alt_irq_context ALT_ALWAYS_INLINE 
       alt_irq_disable_all (void)
{
  alt_irq_context context;

  NIOS2_READ_STATUS (context);
  8038d0:	000d303a 	rdctl	r6,status

  NIOS2_WRITE_STATUS (context & ~NIOS2_STATUS_PIE_MSK);
  8038d4:	00bfff84 	movi	r2,-2
  8038d8:	3084703a 	and	r2,r6,r2
  8038dc:	1001703a 	wrctl	status,r2
 * alt_nticks() returns the elapsed number of system clock ticks since reset.
 */

static ALT_INLINE alt_u32 ALT_ALWAYS_INLINE alt_nticks (void)
{
  return _alt_nticks;
  8038e0:	00802074 	movhi	r2,129
  8038e4:	10a41a04 	addi	r2,r2,-28568
  8038e8:	10c00017 	ldw	r3,0(r2)
 
      irq_context = alt_irq_disable_all ();
      
      current_nticks = alt_nticks();
      
      alarm->time = nticks + current_nticks + 1; 
  8038ec:	18800044 	addi	r2,r3,1
  8038f0:	2885883a 	add	r2,r5,r2
  8038f4:	20800215 	stw	r2,8(r4)
      /* 
       * If the desired alarm time causes a roll-over, set the rollover
       * flag. This will prevent the subsequent tick event from causing
       * an alarm too early.
       */
      if(alarm->time < current_nticks)
  8038f8:	10c0032e 	bgeu	r2,r3,803908 <alt_alarm_start+0x5c>
      {
        alarm->rollover = 1;
  8038fc:	00800044 	movi	r2,1
  803900:	20800405 	stb	r2,16(r4)
  803904:	00000106 	br	80390c <alt_alarm_start+0x60>
      }
      else
      {
        alarm->rollover = 0;
  803908:	20000405 	stb	zero,16(r4)
 */

static ALT_INLINE void ALT_ALWAYS_INLINE alt_llist_insert(alt_llist* list, 
                alt_llist* entry)
{
  entry->previous = list;
  80390c:	00802074 	movhi	r2,129
  803910:	10a2f304 	addi	r2,r2,-29748
  entry->next     = list->next;
  803914:	10c00017 	ldw	r3,0(r2)
 */

static ALT_INLINE void ALT_ALWAYS_INLINE alt_llist_insert(alt_llist* list, 
                alt_llist* entry)
{
  entry->previous = list;
  803918:	20800115 	stw	r2,4(r4)
  entry->next     = list->next;
  80391c:	20c00015 	stw	r3,0(r4)

  list->next->previous = entry;
  803920:	10c00017 	ldw	r3,0(r2)
  list->next           = entry;
  803924:	11000015 	stw	r4,0(r2)
                alt_llist* entry)
{
  entry->previous = list;
  entry->next     = list->next;

  list->next->previous = entry;
  803928:	19000115 	stw	r4,4(r3)
  status &= ~NIOS2_STATUS_PIE_MSK;
  status |= (context & NIOS2_STATUS_PIE_MSK);
  
  NIOS2_WRITE_STATUS (status);
#else
  NIOS2_WRITE_STATUS (context);
  80392c:	3001703a 	wrctl	status,r6
  803930:	0007883a 	mov	r3,zero
  }
  else
  {
    return -ENOTSUP;
  }
}
  803934:	1805883a 	mov	r2,r3
  803938:	f800283a 	ret

0080393c <alt_load_section>:

static void ALT_INLINE alt_load_section (alt_u32* from, 
                                         alt_u32* to, 
                                         alt_u32* end)
{
  if (to != from)
  80393c:	2900051e 	bne	r5,r4,803954 <alt_load_section+0x18>
  803940:	f800283a 	ret
  {
    while( to != end )
    {
      *to++ = *from++;
  803944:	20800017 	ldw	r2,0(r4)
  803948:	21000104 	addi	r4,r4,4
  80394c:	28800015 	stw	r2,0(r5)
  803950:	29400104 	addi	r5,r5,4
                                         alt_u32* to, 
                                         alt_u32* end)
{
  if (to != from)
  {
    while( to != end )
  803954:	29bffb1e 	bne	r5,r6,803944 <alt_load_section+0x8>
  803958:	f800283a 	ret

0080395c <alt_load>:
 * there is no bootloader, so this application is responsible for loading to
 * RAM any sections that are required.
 */  

void alt_load (void)
{
  80395c:	deffff04 	addi	sp,sp,-4
  /* 
   * Copy the .rwdata section. 
   */

  alt_load_section (&__flash_rwdata_start, 
  803960:	01002074 	movhi	r4,129
  803964:	21231904 	addi	r4,r4,-29596
  803968:	01402074 	movhi	r5,129
  80396c:	29623404 	addi	r5,r5,-30512
  803970:	01802074 	movhi	r6,129
  803974:	31a31904 	addi	r6,r6,-29596
 * there is no bootloader, so this application is responsible for loading to
 * RAM any sections that are required.
 */  

void alt_load (void)
{
  803978:	dfc00015 	stw	ra,0(sp)
  /* 
   * Copy the .rwdata section. 
   */

  alt_load_section (&__flash_rwdata_start, 
  80397c:	080393c0 	call	80393c <alt_load_section>

  /*
   * Copy the exception handler.
   */

  alt_load_section (&__flash_exceptions_start, 
  803980:	01002034 	movhi	r4,128
  803984:	21000804 	addi	r4,r4,32
  803988:	01402034 	movhi	r5,128
  80398c:	29400804 	addi	r5,r5,32
  803990:	01802034 	movhi	r6,128
  803994:	31805104 	addi	r6,r6,324
  803998:	080393c0 	call	80393c <alt_load_section>

  /*
   * Copy the .rodata section.
   */

  alt_load_section (&__flash_rodata_start, 
  80399c:	01002074 	movhi	r4,129
  8039a0:	21210f04 	addi	r4,r4,-31684
  8039a4:	01402074 	movhi	r5,129
  8039a8:	29610f04 	addi	r5,r5,-31684
  8039ac:	01802074 	movhi	r6,129
  8039b0:	31a23404 	addi	r6,r6,-30512
  8039b4:	080393c0 	call	80393c <alt_load_section>
  
  /*
   * Now ensure that the caches are in synch.
   */
  
  alt_dcache_flush_all();
  8039b8:	080763c0 	call	80763c <alt_dcache_flush_all>
  alt_icache_flush_all();
}
  8039bc:	dfc00017 	ldw	ra,0(sp)
  8039c0:	dec00104 	addi	sp,sp,4
  /*
   * Now ensure that the caches are in synch.
   */
  
  alt_dcache_flush_all();
  alt_icache_flush_all();
  8039c4:	08077381 	jmpi	807738 <alt_icache_flush_all>

008039c8 <alt_main>:
 * devices/filesystems/components in the system; and call the entry point for
 * the users application, i.e. main().
 */

void alt_main (void)
{
  8039c8:	defffd04 	addi	sp,sp,-12
#endif

  /* ALT LOG - please see HAL/sys/alt_log_printf.h for details */
  ALT_LOG_PRINT_BOOT("[alt_main.c] Entering alt_main, calling alt_irq_init.\r\n");
  /* Initialize the interrupt controller. */
  alt_irq_init (NULL);
  8039cc:	0009883a 	mov	r4,zero
 * devices/filesystems/components in the system; and call the entry point for
 * the users application, i.e. main().
 */

void alt_main (void)
{
  8039d0:	dfc00215 	stw	ra,8(sp)
  8039d4:	dc400115 	stw	r17,4(sp)
  8039d8:	dc000015 	stw	r16,0(sp)
  /* Initialize the interrupt controller. */
  alt_irq_init (NULL);

  /* Initialize the operating system */
  ALT_LOG_PRINT_BOOT("[alt_main.c] Done alt_irq_init, calling alt_os_init.\r\n");
  ALT_OS_INIT();
  8039dc:	04400044 	movi	r17,1
#endif

  /* ALT LOG - please see HAL/sys/alt_log_printf.h for details */
  ALT_LOG_PRINT_BOOT("[alt_main.c] Entering alt_main, calling alt_irq_init.\r\n");
  /* Initialize the interrupt controller. */
  alt_irq_init (NULL);
  8039e0:	08074200 	call	807420 <alt_irq_init>

  /* Initialize the operating system */
  ALT_LOG_PRINT_BOOT("[alt_main.c] Done alt_irq_init, calling alt_os_init.\r\n");
  ALT_OS_INIT();
  8039e4:	08042500 	call	804250 <OSInit>
  8039e8:	8809883a 	mov	r4,r17
  8039ec:	0805ccc0 	call	805ccc <OSSemCreate>
  8039f0:	00c02074 	movhi	r3,129
  8039f4:	18e41b04 	addi	r3,r3,-28564
  8039f8:	8809883a 	mov	r4,r17
  8039fc:	18800015 	stw	r2,0(r3)
  803a00:	0805ccc0 	call	805ccc <OSSemCreate>
  803a04:	00c02074 	movhi	r3,129
  803a08:	18e41c04 	addi	r3,r3,-28560
 */

static ALT_INLINE int ALT_ALWAYS_INLINE alt_sem_create (OS_EVENT** sem, 
              INT16U value)
{
  *sem = OSSemCreate (value);
  803a0c:	8809883a 	mov	r4,r17
  803a10:	18800015 	stw	r2,0(r3)
  803a14:	0805ccc0 	call	805ccc <OSSemCreate>
  803a18:	00c02074 	movhi	r3,129
  803a1c:	18e43404 	addi	r3,r3,-28464
  803a20:	18800015 	stw	r2,0(r3)
  ALT_LOG_PRINT_BOOT("[alt_main.c] Done OS Init, calling alt_sem_create.\r\n");
  ALT_SEM_CREATE (&alt_fd_list_lock, 1);

  /* Initialize the device drivers/software components. */
  ALT_LOG_PRINT_BOOT("[alt_main.c] Calling alt_sys_init.\r\n");
  alt_sys_init();
  803a24:	08073d00 	call	8073d0 <alt_sys_init>
   * devices be present (not equal to /dev/null) and if direct drivers
   * aren't being used.
   */

    ALT_LOG_PRINT_BOOT("[alt_main.c] Redirecting IO.\r\n");
    alt_io_redirect(ALT_STDOUT, ALT_STDIN, ALT_STDERR);
  803a28:	01002074 	movhi	r4,129
  803a2c:	2121d604 	addi	r4,r4,-30888
  803a30:	200b883a 	mov	r5,r4
  803a34:	200d883a 	mov	r6,r4
  803a38:	08078cc0 	call	8078cc <alt_io_redirect>
  /* 
   * Call the C++ constructors 
   */

  ALT_LOG_PRINT_BOOT("[alt_main.c] Calling C++ constructors.\r\n");
  _do_ctors ();
  803a3c:	08076b80 	call	8076b8 <_do_ctors>
   * redefined as _exit()). This is in the interest of reducing code footprint,
   * in that the atexit() overhead is removed when it's not needed.
   */

  ALT_LOG_PRINT_BOOT("[alt_main.c] Calling atexit.\r\n");
  atexit (_do_dtors);
  803a40:	01002034 	movhi	r4,128
  803a44:	211dbe04 	addi	r4,r4,30456
  803a48:	0807e480 	call	807e48 <atexit>
  ALT_LOG_PRINT_BOOT("[alt_main.c] Calling main.\r\n");

#ifdef ALT_NO_EXIT
  main (alt_argc, alt_argv, alt_envp);
#else
  result = main (alt_argc, alt_argv, alt_envp);
  803a4c:	d1612b17 	ldw	r5,-31572(gp)
  803a50:	d1a12c17 	ldw	r6,-31568(gp)
  803a54:	d1212a17 	ldw	r4,-31576(gp)
  803a58:	0801c3c0 	call	801c3c <main>
  803a5c:	1021883a 	mov	r16,r2
  close(STDOUT_FILENO);
  803a60:	8809883a 	mov	r4,r17
  803a64:	08075a00 	call	8075a0 <close>
  exit (result);
  803a68:	8009883a 	mov	r4,r16
  803a6c:	0807e5c0 	call	807e5c <exit>

00803a70 <alt_printf>:
/* 
 * ALT printf function 
 */
void 
alt_printf(const char* fmt, ... )
{
  803a70:	defff804 	addi	sp,sp,-32
  803a74:	dfc00415 	stw	ra,16(sp)
  803a78:	dc800315 	stw	r18,12(sp)
  803a7c:	dc400215 	stw	r17,8(sp)
  803a80:	dc000115 	stw	r16,4(sp)
  803a84:	d9400515 	stw	r5,20(sp)
  803a88:	d9800615 	stw	r6,24(sp)
  803a8c:	d9c00715 	stw	r7,28(sp)
	va_list args;
	va_start(args, fmt);
  803a90:	d8800504 	addi	r2,sp,20
  803a94:	2025883a 	mov	r18,r4
  803a98:	d8800015 	stw	r2,0(sp)
  803a9c:	00003d06 	br	803b94 <alt_printf+0x124>
    w = fmt;
    while ((c = *w++) != 0)
    {
        /* If not a format escape character, just print  */
        /* character.  Otherwise, process format string. */
        if (c != '%')
  803aa0:	00800944 	movi	r2,37
    const char *w;
    char c;

    /* Process format string. */
    w = fmt;
    while ((c = *w++) != 0)
  803aa4:	94800044 	addi	r18,r18,1
    {
        /* If not a format escape character, just print  */
        /* character.  Otherwise, process format string. */
        if (c != '%')
  803aa8:	18800226 	beq	r3,r2,803ab4 <alt_printf+0x44>
        {
            alt_putchar(c);
  803aac:	1809883a 	mov	r4,r3
  803ab0:	00000a06 	br	803adc <alt_printf+0x6c>
        }
        else
        {
            /* Get format character.  If none     */
            /* available, processing is complete. */
            if ((c = *w++) != 0)
  803ab4:	91000007 	ldb	r4,0(r18)
  803ab8:	94800044 	addi	r18,r18,1
  803abc:	20003726 	beq	r4,zero,803b9c <alt_printf+0x12c>
            {
                if (c == '%')
  803ac0:	20c00626 	beq	r4,r3,803adc <alt_printf+0x6c>
                {
                    /* Process "%" escape sequence. */
                    alt_putchar(c);
                } 
                else if (c == 'c')
  803ac4:	008018c4 	movi	r2,99
  803ac8:	2080061e 	bne	r4,r2,803ae4 <alt_printf+0x74>
                {
                    int v = va_arg(args, int);
  803acc:	d8800017 	ldw	r2,0(sp)
                    alt_putchar(v);
  803ad0:	11000017 	ldw	r4,0(r2)
                    /* Process "%" escape sequence. */
                    alt_putchar(c);
                } 
                else if (c == 'c')
                {
                    int v = va_arg(args, int);
  803ad4:	10800104 	addi	r2,r2,4
  803ad8:	d8800015 	stw	r2,0(sp)
                    alt_putchar(v);
  803adc:	0803bb40 	call	803bb4 <alt_putchar>
  803ae0:	00002c06 	br	803b94 <alt_printf+0x124>
                }
                else if (c == 'x')
  803ae4:	00801e04 	movi	r2,120
  803ae8:	20801e1e 	bne	r4,r2,803b64 <alt_printf+0xf4>
                {
                    /* Process hexadecimal number format. */
                    unsigned long v = va_arg(args, unsigned long);
  803aec:	d8800017 	ldw	r2,0(sp)
  803af0:	14400017 	ldw	r17,0(r2)
  803af4:	10800104 	addi	r2,r2,4
  803af8:	d8800015 	stw	r2,0(sp)
                    unsigned long digit;
                    int digit_shift;

                    /* If the number value is zero, just print and continue. */
                    if (v == 0)
  803afc:	88000226 	beq	r17,zero,803b08 <alt_printf+0x98>
  803b00:	04000704 	movi	r16,28
  803b04:	00000306 	br	803b14 <alt_printf+0xa4>
                    {
                        alt_putchar('0');
  803b08:	01000c04 	movi	r4,48
  803b0c:	003ff306 	br	803adc <alt_printf+0x6c>
                    }

                    /* Find first non-zero digit. */
                    digit_shift = 28;
                    while (!(v & (0xF << digit_shift)))
                        digit_shift -= 4;
  803b10:	843fff04 	addi	r16,r16,-4
                        continue;
                    }

                    /* Find first non-zero digit. */
                    digit_shift = 28;
                    while (!(v & (0xF << digit_shift)))
  803b14:	008003c4 	movi	r2,15
  803b18:	1404983a 	sll	r2,r2,r16
  803b1c:	8884703a 	and	r2,r17,r2
  803b20:	103ffb26 	beq	r2,zero,803b10 <alt_printf+0xa0>
  803b24:	00000b06 	br	803b54 <alt_printf+0xe4>
                        digit_shift -= 4;

                    /* Print digits. */
                    for (; digit_shift >= 0; digit_shift -= 4)
                    {
                        digit = (v & (0xF << digit_shift)) >> digit_shift;
  803b28:	8884703a 	and	r2,r17,r2
  803b2c:	1406d83a 	srl	r3,r2,r16
                        if (digit <= 9)
  803b30:	00800244 	movi	r2,9
                            c = '0' + digit;
  803b34:	19000c04 	addi	r4,r3,48

                    /* Print digits. */
                    for (; digit_shift >= 0; digit_shift -= 4)
                    {
                        digit = (v & (0xF << digit_shift)) >> digit_shift;
                        if (digit <= 9)
  803b38:	10c0012e 	bgeu	r2,r3,803b40 <alt_printf+0xd0>
                            c = '0' + digit;
                        else
                            c = 'a' + digit - 10;
  803b3c:	190015c4 	addi	r4,r3,87
                        alt_putchar(c);
  803b40:	21003fcc 	andi	r4,r4,255
  803b44:	2100201c 	xori	r4,r4,128
  803b48:	213fe004 	addi	r4,r4,-128
                    digit_shift = 28;
                    while (!(v & (0xF << digit_shift)))
                        digit_shift -= 4;

                    /* Print digits. */
                    for (; digit_shift >= 0; digit_shift -= 4)
  803b4c:	843fff04 	addi	r16,r16,-4
                        digit = (v & (0xF << digit_shift)) >> digit_shift;
                        if (digit <= 9)
                            c = '0' + digit;
                        else
                            c = 'a' + digit - 10;
                        alt_putchar(c);
  803b50:	0803bb40 	call	803bb4 <alt_putchar>
                        digit_shift -= 4;

                    /* Print digits. */
                    for (; digit_shift >= 0; digit_shift -= 4)
                    {
                        digit = (v & (0xF << digit_shift)) >> digit_shift;
  803b54:	008003c4 	movi	r2,15
  803b58:	1404983a 	sll	r2,r2,r16
                    digit_shift = 28;
                    while (!(v & (0xF << digit_shift)))
                        digit_shift -= 4;

                    /* Print digits. */
                    for (; digit_shift >= 0; digit_shift -= 4)
  803b5c:	803ff20e 	bge	r16,zero,803b28 <alt_printf+0xb8>
  803b60:	00000c06 	br	803b94 <alt_printf+0x124>
                        else
                            c = 'a' + digit - 10;
                        alt_putchar(c);
                    }
                }
                else if (c == 's')
  803b64:	00801cc4 	movi	r2,115
  803b68:	20800a1e 	bne	r4,r2,803b94 <alt_printf+0x124>
                {
                    /* Process string format. */
                    char *s = va_arg(args, char *);
  803b6c:	d8800017 	ldw	r2,0(sp)
  803b70:	14000017 	ldw	r16,0(r2)
  803b74:	10800104 	addi	r2,r2,4
  803b78:	d8800015 	stw	r2,0(sp)
  803b7c:	00000106 	br	803b84 <alt_printf+0x114>

                    while(*s)
                      alt_putchar(*s++);
  803b80:	0803bb40 	call	803bb4 <alt_putchar>
                else if (c == 's')
                {
                    /* Process string format. */
                    char *s = va_arg(args, char *);

                    while(*s)
  803b84:	80800007 	ldb	r2,0(r16)
                      alt_putchar(*s++);
  803b88:	84000044 	addi	r16,r16,1
  803b8c:	1009883a 	mov	r4,r2
                else if (c == 's')
                {
                    /* Process string format. */
                    char *s = va_arg(args, char *);

                    while(*s)
  803b90:	103ffb1e 	bne	r2,zero,803b80 <alt_printf+0x110>
    const char *w;
    char c;

    /* Process format string. */
    w = fmt;
    while ((c = *w++) != 0)
  803b94:	90c00007 	ldb	r3,0(r18)
  803b98:	183fc11e 	bne	r3,zero,803aa0 <alt_printf+0x30>
            {
                break;
            }
        }
    }
}
  803b9c:	dfc00417 	ldw	ra,16(sp)
  803ba0:	dc800317 	ldw	r18,12(sp)
  803ba4:	dc400217 	ldw	r17,8(sp)
  803ba8:	dc000117 	ldw	r16,4(sp)
  803bac:	dec00804 	addi	sp,sp,32
  803bb0:	f800283a 	ret

00803bb4 <alt_putchar>:
    if (ALT_DRIVER_WRITE(ALT_STDOUT_DEV, &c1, 1, 0) == -1) {
        return -1;
    }
    return c;
#else
    return putchar(c);
  803bb4:	00802074 	movhi	r2,129
  803bb8:	10a2f104 	addi	r2,r2,-29756
  803bbc:	10800017 	ldw	r2,0(r2)
  803bc0:	11400217 	ldw	r5,8(r2)
  803bc4:	0807eb81 	jmpi	807eb8 <putc>

00803bc8 <alt_alarm_stop>:
static ALT_INLINE alt_irq_context ALT_ALWAYS_INLINE 
       alt_irq_disable_all (void)
{
  alt_irq_context context;

  NIOS2_READ_STATUS (context);
  803bc8:	000b303a 	rdctl	r5,status

  NIOS2_WRITE_STATUS (context & ~NIOS2_STATUS_PIE_MSK);
  803bcc:	00bfff84 	movi	r2,-2
  803bd0:	2884703a 	and	r2,r5,r2
  803bd4:	1001703a 	wrctl	status,r2
 * input argument is the element to remove.
 */
     
static ALT_INLINE void ALT_ALWAYS_INLINE alt_llist_remove(alt_llist* entry)
{
  entry->next->previous = entry->previous;
  803bd8:	20c00017 	ldw	r3,0(r4)
  803bdc:	20800117 	ldw	r2,4(r4)
  803be0:	18800115 	stw	r2,4(r3)
  entry->previous->next = entry->next;
  803be4:	20800117 	ldw	r2,4(r4)
  /* 
   * Set the entry to point to itself, so that any further calls to
   * alt_llist_remove() are harmless.
   */

  entry->previous = entry;
  803be8:	21000115 	stw	r4,4(r4)
 */
     
static ALT_INLINE void ALT_ALWAYS_INLINE alt_llist_remove(alt_llist* entry)
{
  entry->next->previous = entry->previous;
  entry->previous->next = entry->next;
  803bec:	10c00015 	stw	r3,0(r2)
   * Set the entry to point to itself, so that any further calls to
   * alt_llist_remove() are harmless.
   */

  entry->previous = entry;
  entry->next     = entry;
  803bf0:	21000015 	stw	r4,0(r4)
  status &= ~NIOS2_STATUS_PIE_MSK;
  status |= (context & NIOS2_STATUS_PIE_MSK);
  
  NIOS2_WRITE_STATUS (status);
#else
  NIOS2_WRITE_STATUS (context);
  803bf4:	2801703a 	wrctl	status,r5
  alt_irq_context irq_context;

  irq_context = alt_irq_disable_all();
  alt_llist_remove (&alarm->llist);
  alt_irq_enable_all (irq_context);
}
  803bf8:	f800283a 	ret

00803bfc <alt_tick>:
 * 
 * alt_tick() is expected to run at interrupt level.
 */

void alt_tick (void)
{
  803bfc:	defffd04 	addi	sp,sp,-12

  alt_u32    next_callback;

  /* update the tick counter */

  _alt_nticks++;
  803c00:	d0a12e17 	ldw	r2,-31560(gp)
 * 
 * alt_tick() is expected to run at interrupt level.
 */

void alt_tick (void)
{
  803c04:	dc000015 	stw	r16,0(sp)
  alt_alarm* next;
  alt_alarm* alarm = (alt_alarm*) alt_alarm_list.next;
  803c08:	d4200717 	ldw	r16,-32740(gp)

  alt_u32    next_callback;

  /* update the tick counter */

  _alt_nticks++;
  803c0c:	10800044 	addi	r2,r2,1
 * 
 * alt_tick() is expected to run at interrupt level.
 */

void alt_tick (void)
{
  803c10:	dfc00215 	stw	ra,8(sp)
  803c14:	dc400115 	stw	r17,4(sp)

  alt_u32    next_callback;

  /* update the tick counter */

  _alt_nticks++;
  803c18:	d0a12e15 	stw	r2,-31560(gp)
  803c1c:	00001b06 	br	803c8c <alt_tick+0x90>
    /* 
     * Upon the tick-counter rolling over it is safe to clear the 
     * roll-over flag; once the flag is cleared this (or subsequnt)
     * tick events are enabled to generate an alarm event. 
     */
    if ((alarm->rollover) && (_alt_nticks == 0))
  803c20:	80800403 	ldbu	r2,16(r16)

  /* process the registered callbacks */

  while (alarm != (alt_alarm*) &alt_alarm_list)
  {
    next = (alt_alarm*) alarm->llist.next;
  803c24:	84400017 	ldw	r17,0(r16)
    /* 
     * Upon the tick-counter rolling over it is safe to clear the 
     * roll-over flag; once the flag is cleared this (or subsequnt)
     * tick events are enabled to generate an alarm event. 
     */
    if ((alarm->rollover) && (_alt_nticks == 0))
  803c28:	10000326 	beq	r2,zero,803c38 <alt_tick+0x3c>
  803c2c:	d0a12e17 	ldw	r2,-31560(gp)
  803c30:	1000011e 	bne	r2,zero,803c38 <alt_tick+0x3c>
    {
      alarm->rollover = 0;
  803c34:	80000405 	stb	zero,16(r16)
    }
    
    /* if the alarm period has expired, make the callback */    
    if ((alarm->time <= _alt_nticks) && (alarm->rollover == 0))
  803c38:	d0e12e17 	ldw	r3,-31560(gp)
  803c3c:	80800217 	ldw	r2,8(r16)
  803c40:	18801136 	bltu	r3,r2,803c88 <alt_tick+0x8c>
  803c44:	80800403 	ldbu	r2,16(r16)
  803c48:	10000f1e 	bne	r2,zero,803c88 <alt_tick+0x8c>
    {
      next_callback = alarm->callback (alarm->context);
  803c4c:	81000517 	ldw	r4,20(r16)
  803c50:	80800317 	ldw	r2,12(r16)
  803c54:	103ee83a 	callr	r2
  803c58:	1009883a 	mov	r4,r2

      /* deactivate the alarm if the return value is zero */

      if (next_callback == 0)
  803c5c:	1000031e 	bne	r2,zero,803c6c <alt_tick+0x70>
      {
        alt_alarm_stop (alarm);
  803c60:	8009883a 	mov	r4,r16
  803c64:	0803bc80 	call	803bc8 <alt_alarm_stop>
  803c68:	00000706 	br	803c88 <alt_tick+0x8c>
      }
      else
      {
        alarm->time += next_callback;
  803c6c:	80800217 	ldw	r2,8(r16)
        /* 
         * If the desired alarm time causes a roll-over, set the rollover
         * flag. This will prevent the subsequent tick event from causing
         * an alarm too early.
         */
        if(alarm->time < _alt_nticks)
  803c70:	d0e12e17 	ldw	r3,-31560(gp)
      {
        alt_alarm_stop (alarm);
      }
      else
      {
        alarm->time += next_callback;
  803c74:	1105883a 	add	r2,r2,r4
  803c78:	80800215 	stw	r2,8(r16)
        /* 
         * If the desired alarm time causes a roll-over, set the rollover
         * flag. This will prevent the subsequent tick event from causing
         * an alarm too early.
         */
        if(alarm->time < _alt_nticks)
  803c7c:	10c0022e 	bgeu	r2,r3,803c88 <alt_tick+0x8c>
        {
          alarm->rollover = 1;
  803c80:	00800044 	movi	r2,1
  803c84:	80800405 	stb	r2,16(r16)
  803c88:	8821883a 	mov	r16,r17

  _alt_nticks++;

  /* process the registered callbacks */

  while (alarm != (alt_alarm*) &alt_alarm_list)
  803c8c:	d0a00704 	addi	r2,gp,-32740
  803c90:	80bfe31e 	bne	r16,r2,803c20 <alt_tick+0x24>
  /* 
   * Update the operating system specific timer facilities.
   */

  ALT_OS_TIME_TICK();
}
  803c94:	dfc00217 	ldw	ra,8(sp)
  803c98:	dc400117 	ldw	r17,4(sp)
  803c9c:	dc000017 	ldw	r16,0(sp)
  803ca0:	dec00304 	addi	sp,sp,12

  /* 
   * Update the operating system specific timer facilities.
   */

  ALT_OS_TIME_TICK();
  803ca4:	08048241 	jmpi	804824 <OSTimeTick>

00803ca8 <alt_get_errno>:

extern int errno;

static ALT_INLINE int* alt_get_errno(void)
{
  return ((alt_errno) ? alt_errno() : &errno);
  803ca8:	00802074 	movhi	r2,129
  803cac:	10a31704 	addi	r2,r2,-29604
  803cb0:	10c00017 	ldw	r3,0(r2)
}
  803cb4:	00802074 	movhi	r2,129
  803cb8:	10a41504 	addi	r2,r2,-28588

extern int errno;

static ALT_INLINE int* alt_get_errno(void)
{
  return ((alt_errno) ? alt_errno() : &errno);
  803cbc:	18000126 	beq	r3,zero,803cc4 <alt_get_errno+0x1c>
  803cc0:	1800683a 	jmp	r3
}
  803cc4:	f800283a 	ret

00803cc8 <write>:
}

#else /* !ALT_USE_DIRECT_DRIVERS */

int ALT_WRITE (int file, const void *ptr, size_t len)
{
  803cc8:	defffc04 	addi	sp,sp,-16
  803ccc:	dc800215 	stw	r18,8(sp)
  803cd0:	dc400115 	stw	r17,4(sp)
  803cd4:	dfc00315 	stw	ra,12(sp)
  803cd8:	2823883a 	mov	r17,r5
  803cdc:	dc000015 	stw	r16,0(sp)
  803ce0:	3025883a 	mov	r18,r6
   * A common error case is that when the file descriptor was created, the call
   * to open() failed resulting in a negative file descriptor. This is trapped
   * below so that we don't try and process an invalid file descriptor.
   */

  fd = (file < 0) ? NULL : &alt_fd_list[file];
  803ce4:	01400304 	movi	r5,12
  803ce8:	20001916 	blt	r4,zero,803d50 <write+0x88>
  803cec:	08028540 	call	802854 <__mulsi3>
  803cf0:	00c02074 	movhi	r3,129
  803cf4:	18e28c04 	addi	r3,r3,-30160
  803cf8:	10c9883a 	add	r4,r2,r3
  
  if (fd)
  803cfc:	20001426 	beq	r4,zero,803d50 <write+0x88>
     * If the file has not been opened with write access, or if the driver does
     * not provide an implementation of write(), generate an error. Otherwise
     * call the drivers write() function to process the request.
     */

    if (((fd->fd_flags & O_ACCMODE) != O_RDONLY) && fd->dev->write)
  803d00:	20800217 	ldw	r2,8(r4)
      }
      return rval;
    }
    else
    {
      ALT_ERRNO = EACCES;
  803d04:	043fffc4 	movi	r16,-1
     * If the file has not been opened with write access, or if the driver does
     * not provide an implementation of write(), generate an error. Otherwise
     * call the drivers write() function to process the request.
     */

    if (((fd->fd_flags & O_ACCMODE) != O_RDONLY) && fd->dev->write)
  803d08:	108000cc 	andi	r2,r2,3
  803d0c:	10000c26 	beq	r2,zero,803d40 <write+0x78>
  803d10:	20800017 	ldw	r2,0(r4)
    {
      
      /* ALT_LOG - see altera_hal/HAL/inc/sys/alt_log_printf.h */
      ALT_LOG_WRITE_FUNCTION(ptr,len);

      if ((rval = fd->dev->write(fd, ptr, len)) < 0)
  803d14:	880b883a 	mov	r5,r17
  803d18:	900d883a 	mov	r6,r18
     * If the file has not been opened with write access, or if the driver does
     * not provide an implementation of write(), generate an error. Otherwise
     * call the drivers write() function to process the request.
     */

    if (((fd->fd_flags & O_ACCMODE) != O_RDONLY) && fd->dev->write)
  803d1c:	10800617 	ldw	r2,24(r2)
  803d20:	10000726 	beq	r2,zero,803d40 <write+0x78>
    {
      
      /* ALT_LOG - see altera_hal/HAL/inc/sys/alt_log_printf.h */
      ALT_LOG_WRITE_FUNCTION(ptr,len);

      if ((rval = fd->dev->write(fd, ptr, len)) < 0)
  803d24:	103ee83a 	callr	r2
  803d28:	1021883a 	mov	r16,r2
  803d2c:	10000c0e 	bge	r2,zero,803d60 <write+0x98>
      {
        ALT_ERRNO = -rval;
  803d30:	0803ca80 	call	803ca8 <alt_get_errno>
  803d34:	0407c83a 	sub	r3,zero,r16
  803d38:	043fffc4 	movi	r16,-1
  803d3c:	00000206 	br	803d48 <write+0x80>
      }
      return rval;
    }
    else
    {
      ALT_ERRNO = EACCES;
  803d40:	0803ca80 	call	803ca8 <alt_get_errno>
  803d44:	00c00344 	movi	r3,13
  803d48:	10c00015 	stw	r3,0(r2)
  803d4c:	00000406 	br	803d60 <write+0x98>
    }
  }
  else  
  {
    ALT_ERRNO = EBADFD;
  803d50:	0803ca80 	call	803ca8 <alt_get_errno>
  803d54:	00c01444 	movi	r3,81
  803d58:	10c00015 	stw	r3,0(r2)
  803d5c:	043fffc4 	movi	r16,-1
  }
  return -1;
}
  803d60:	8005883a 	mov	r2,r16
  803d64:	dfc00317 	ldw	ra,12(sp)
  803d68:	dc800217 	ldw	r18,8(sp)
  803d6c:	dc400117 	ldw	r17,4(sp)
  803d70:	dc000017 	ldw	r16,0(sp)
  803d74:	dec00404 	addi	sp,sp,16
  803d78:	f800283a 	ret

00803d7c <__env_lock>:
    lockid = id;
  }

#endif /* OS_THREAD_SAFE_NEWLIB */
  return;
}
  803d7c:	f800283a 	ret

00803d80 <__env_unlock>:
  {
    lockid = -1;
    OSSemPost( alt_envsem );
  }
#endif /* OS_THREAD_SAFE_NEWLIB */
}
  803d80:	f800283a 	ret

00803d84 <__malloc_lock>:
    lockid = id;
  }

#endif /* OS_THREAD_SAFE_NEWLIB */
  return;
}
  803d84:	f800283a 	ret

00803d88 <__malloc_unlock>:
  {
      OS_EXIT_CRITICAL();
  }
  
#endif /* OS_THREAD_SAFE_NEWLIB */
}
  803d88:	f800283a 	ret

00803d8c <OSVersion>:
*/

INT16U  OSVersion (void)
{
    return (OS_VERSION);
}
  803d8c:	00804784 	movi	r2,286
  803d90:	f800283a 	ret

00803d94 <OS_Dummy>:
*/

#if OS_TASK_DEL_EN > 0
void  OS_Dummy (void)
{
}
  803d94:	f800283a 	ret

00803d98 <OS_EventTaskWait>:
void  OS_EventTaskWait (OS_EVENT *pevent)
{
    INT8U  y;


    OSTCBCur->OSTCBEventPtr               = pevent;                 /* Store ptr to ECB in TCB         */
  803d98:	d0a14217 	ldw	r2,-31480(gp)

    pevent->OSEventTbl[OSTCBCur->OSTCBY] |= OSTCBCur->OSTCBBitX;    /* Put task in waiting list        */
  803d9c:	10c00d03 	ldbu	r3,52(r2)
void  OS_EventTaskWait (OS_EVENT *pevent)
{
    INT8U  y;


    OSTCBCur->OSTCBEventPtr               = pevent;                 /* Store ptr to ECB in TCB         */
  803da0:	11000715 	stw	r4,28(r2)

    pevent->OSEventTbl[OSTCBCur->OSTCBY] |= OSTCBCur->OSTCBBitX;    /* Put task in waiting list        */
  803da4:	11800d43 	ldbu	r6,53(r2)
  803da8:	1907883a 	add	r3,r3,r4
  803dac:	18c00204 	addi	r3,r3,8
  803db0:	188000c3 	ldbu	r2,3(r3)
    pevent->OSEventGrp                   |= OSTCBCur->OSTCBBitY;
  803db4:	21400283 	ldbu	r5,10(r4)
    INT8U  y;


    OSTCBCur->OSTCBEventPtr               = pevent;                 /* Store ptr to ECB in TCB         */

    pevent->OSEventTbl[OSTCBCur->OSTCBY] |= OSTCBCur->OSTCBBitX;    /* Put task in waiting list        */
  803db8:	1184b03a 	or	r2,r2,r6
  803dbc:	188000c5 	stb	r2,3(r3)
    pevent->OSEventGrp                   |= OSTCBCur->OSTCBBitY;
  803dc0:	d0a14217 	ldw	r2,-31480(gp)

    y             =  OSTCBCur->OSTCBY;            /* Task no longer ready                              */
    OSRdyTbl[y]  &= ~OSTCBCur->OSTCBBitX;
  803dc4:	d0e13f44 	addi	r3,gp,-31491


    OSTCBCur->OSTCBEventPtr               = pevent;                 /* Store ptr to ECB in TCB         */

    pevent->OSEventTbl[OSTCBCur->OSTCBY] |= OSTCBCur->OSTCBBitX;    /* Put task in waiting list        */
    pevent->OSEventGrp                   |= OSTCBCur->OSTCBBitY;
  803dc8:	10800d83 	ldbu	r2,54(r2)
  803dcc:	288ab03a 	or	r5,r5,r2
  803dd0:	21400285 	stb	r5,10(r4)

    y             =  OSTCBCur->OSTCBY;            /* Task no longer ready                              */
  803dd4:	d1614217 	ldw	r5,-31480(gp)
    OSRdyTbl[y]  &= ~OSTCBCur->OSTCBBitX;
  803dd8:	29000d03 	ldbu	r4,52(r5)
  803ddc:	28800d43 	ldbu	r2,53(r5)
  803de0:	20c9883a 	add	r4,r4,r3
  803de4:	20c00003 	ldbu	r3,0(r4)
  803de8:	0084303a 	nor	r2,zero,r2
  803dec:	10c4703a 	and	r2,r2,r3
    if (OSRdyTbl[y] == 0) {
  803df0:	10c03fcc 	andi	r3,r2,255
  803df4:	18c0201c 	xori	r3,r3,128
  803df8:	18ffe004 	addi	r3,r3,-128

    pevent->OSEventTbl[OSTCBCur->OSTCBY] |= OSTCBCur->OSTCBBitX;    /* Put task in waiting list        */
    pevent->OSEventGrp                   |= OSTCBCur->OSTCBBitY;

    y             =  OSTCBCur->OSTCBY;            /* Task no longer ready                              */
    OSRdyTbl[y]  &= ~OSTCBCur->OSTCBBitX;
  803dfc:	20800005 	stb	r2,0(r4)
    if (OSRdyTbl[y] == 0) {
  803e00:	1800051e 	bne	r3,zero,803e18 <OS_EventTaskWait+0x80>
        OSRdyGrp &= ~OSTCBCur->OSTCBBitY;         /* Clear event grp bit if this was only task pending */
  803e04:	28800d83 	ldbu	r2,54(r5)
  803e08:	d0e13f03 	ldbu	r3,-31492(gp)
  803e0c:	0084303a 	nor	r2,zero,r2
  803e10:	10c4703a 	and	r2,r2,r3
  803e14:	d0a13f05 	stb	r2,-31492(gp)
  803e18:	f800283a 	ret

00803e1c <OS_EventTaskWaitMulti>:
    OS_EVENT **pevents;
    OS_EVENT  *pevent;
    INT8U      y;


    OSTCBCur->OSTCBEventPtr      = (OS_EVENT  *)0;
  803e1c:	d0a14217 	ldw	r2,-31480(gp)
    OSTCBCur->OSTCBEventMultiPtr = (OS_EVENT **)pevents_wait;       /* Store ptr to ECBs in TCB        */

    pevents =  pevents_wait;
    pevent  = *pevents;
  803e20:	200f883a 	mov	r7,r4
    OS_EVENT **pevents;
    OS_EVENT  *pevent;
    INT8U      y;


    OSTCBCur->OSTCBEventPtr      = (OS_EVENT  *)0;
  803e24:	10000715 	stw	zero,28(r2)
    OSTCBCur->OSTCBEventMultiPtr = (OS_EVENT **)pevents_wait;       /* Store ptr to ECBs in TCB        */

    pevents =  pevents_wait;
    pevent  = *pevents;
  803e28:	21800017 	ldw	r6,0(r4)
    OS_EVENT  *pevent;
    INT8U      y;


    OSTCBCur->OSTCBEventPtr      = (OS_EVENT  *)0;
    OSTCBCur->OSTCBEventMultiPtr = (OS_EVENT **)pevents_wait;       /* Store ptr to ECBs in TCB        */
  803e2c:	11000815 	stw	r4,32(r2)
  803e30:	00000d06 	br	803e68 <OS_EventTaskWaitMulti+0x4c>

    pevents =  pevents_wait;
    pevent  = *pevents;
    while (pevent != (OS_EVENT *)0) {                               /* Put task in waiting lists       */
        pevent->OSEventTbl[OSTCBCur->OSTCBY] |= OSTCBCur->OSTCBBitX;
  803e34:	28c00d03 	ldbu	r3,52(r5)
  803e38:	29400d43 	ldbu	r5,53(r5)
        pevent->OSEventGrp                   |= OSTCBCur->OSTCBBitY;
  803e3c:	31000283 	ldbu	r4,10(r6)
    OSTCBCur->OSTCBEventMultiPtr = (OS_EVENT **)pevents_wait;       /* Store ptr to ECBs in TCB        */

    pevents =  pevents_wait;
    pevent  = *pevents;
    while (pevent != (OS_EVENT *)0) {                               /* Put task in waiting lists       */
        pevent->OSEventTbl[OSTCBCur->OSTCBY] |= OSTCBCur->OSTCBBitX;
  803e40:	1987883a 	add	r3,r3,r6
  803e44:	18c00204 	addi	r3,r3,8
  803e48:	188000c3 	ldbu	r2,3(r3)
  803e4c:	1144b03a 	or	r2,r2,r5
  803e50:	188000c5 	stb	r2,3(r3)
        pevent->OSEventGrp                   |= OSTCBCur->OSTCBBitY;
  803e54:	d0a14217 	ldw	r2,-31480(gp)
  803e58:	10800d83 	ldbu	r2,54(r2)
  803e5c:	2088b03a 	or	r4,r4,r2
  803e60:	31000285 	stb	r4,10(r6)
        pevents++;
        pevent = *pevents;
  803e64:	39800017 	ldw	r6,0(r7)
    pevents =  pevents_wait;
    pevent  = *pevents;
    while (pevent != (OS_EVENT *)0) {                               /* Put task in waiting lists       */
        pevent->OSEventTbl[OSTCBCur->OSTCBY] |= OSTCBCur->OSTCBBitX;
        pevent->OSEventGrp                   |= OSTCBCur->OSTCBBitY;
        pevents++;
  803e68:	39c00104 	addi	r7,r7,4
  803e6c:	d1614217 	ldw	r5,-31480(gp)
    OSTCBCur->OSTCBEventPtr      = (OS_EVENT  *)0;
    OSTCBCur->OSTCBEventMultiPtr = (OS_EVENT **)pevents_wait;       /* Store ptr to ECBs in TCB        */

    pevents =  pevents_wait;
    pevent  = *pevents;
    while (pevent != (OS_EVENT *)0) {                               /* Put task in waiting lists       */
  803e70:	303ff01e 	bne	r6,zero,803e34 <OS_EventTaskWaitMulti+0x18>
        pevents++;
        pevent = *pevents;
    }

    y             =  OSTCBCur->OSTCBY;            /* Task no longer ready                              */
    OSRdyTbl[y]  &= ~OSTCBCur->OSTCBBitX;
  803e74:	29000d03 	ldbu	r4,52(r5)
  803e78:	d0e13f44 	addi	r3,gp,-31491
  803e7c:	28800d43 	ldbu	r2,53(r5)
  803e80:	20c9883a 	add	r4,r4,r3
  803e84:	20c00003 	ldbu	r3,0(r4)
  803e88:	0084303a 	nor	r2,zero,r2
  803e8c:	10c4703a 	and	r2,r2,r3
    if (OSRdyTbl[y] == 0) {
  803e90:	10c03fcc 	andi	r3,r2,255
  803e94:	18c0201c 	xori	r3,r3,128
  803e98:	18ffe004 	addi	r3,r3,-128
        pevents++;
        pevent = *pevents;
    }

    y             =  OSTCBCur->OSTCBY;            /* Task no longer ready                              */
    OSRdyTbl[y]  &= ~OSTCBCur->OSTCBBitX;
  803e9c:	20800005 	stb	r2,0(r4)
    if (OSRdyTbl[y] == 0) {
  803ea0:	1800051e 	bne	r3,zero,803eb8 <OS_EventTaskWaitMulti+0x9c>
        OSRdyGrp &= ~OSTCBCur->OSTCBBitY;         /* Clear event grp bit if this was only task pending */
  803ea4:	28800d83 	ldbu	r2,54(r5)
  803ea8:	d0e13f03 	ldbu	r3,-31492(gp)
  803eac:	0084303a 	nor	r2,zero,r2
  803eb0:	10c4703a 	and	r2,r2,r3
  803eb4:	d0a13f05 	stb	r2,-31492(gp)
  803eb8:	f800283a 	ret

00803ebc <OS_EventTaskRemove>:
{
    INT8U  y;


    y                       =  ptcb->OSTCBY;
    pevent->OSEventTbl[y]  &= ~ptcb->OSTCBBitX;         /* Remove task from wait list                  */
  803ebc:	20c00d03 	ldbu	r3,52(r4)
  803ec0:	20800d43 	ldbu	r2,53(r4)
*********************************************************************************************************
*/
#if (OS_EVENT_EN)
void  OS_EventTaskRemove (OS_TCB   *ptcb,
                          OS_EVENT *pevent)
{
  803ec4:	200d883a 	mov	r6,r4
    INT8U  y;


    y                       =  ptcb->OSTCBY;
    pevent->OSEventTbl[y]  &= ~ptcb->OSTCBBitX;         /* Remove task from wait list                  */
  803ec8:	1947883a 	add	r3,r3,r5
  803ecc:	18c00204 	addi	r3,r3,8
  803ed0:	190000c3 	ldbu	r4,3(r3)
  803ed4:	0084303a 	nor	r2,zero,r2
  803ed8:	1104703a 	and	r2,r2,r4
    if (pevent->OSEventTbl[y] == 0) {
  803edc:	11003fcc 	andi	r4,r2,255
  803ee0:	2100201c 	xori	r4,r4,128
  803ee4:	213fe004 	addi	r4,r4,-128
{
    INT8U  y;


    y                       =  ptcb->OSTCBY;
    pevent->OSEventTbl[y]  &= ~ptcb->OSTCBBitX;         /* Remove task from wait list                  */
  803ee8:	188000c5 	stb	r2,3(r3)
    if (pevent->OSEventTbl[y] == 0) {
  803eec:	2000051e 	bne	r4,zero,803f04 <OS_EventTaskRemove+0x48>
        pevent->OSEventGrp &= ~ptcb->OSTCBBitY;
  803ef0:	30800d83 	ldbu	r2,54(r6)
  803ef4:	28c00283 	ldbu	r3,10(r5)
  803ef8:	0084303a 	nor	r2,zero,r2
  803efc:	10c4703a 	and	r2,r2,r3
  803f00:	28800285 	stb	r2,10(r5)
  803f04:	f800283a 	ret

00803f08 <OS_EventTaskRemoveMulti>:
    INT16U     bitx;
#endif


    y       =  ptcb->OSTCBY;
    bity    =  ptcb->OSTCBBitY;
  803f08:	20c00d83 	ldbu	r3,54(r4)
    bitx    =  ptcb->OSTCBBitX;
  803f0c:	20800d43 	ldbu	r2,53(r4)
  803f10:	22400d03 	ldbu	r9,52(r4)
    pevents =  pevents_multi;
    pevent  = *pevents;
  803f14:	29000017 	ldw	r4,0(r5)
  803f18:	0090303a 	nor	r8,zero,r2
  803f1c:	00ce303a 	nor	r7,zero,r3
  803f20:	00000b06 	br	803f50 <OS_EventTaskRemoveMulti+0x48>
    while (pevent != (OS_EVENT *)0) {                   /* Remove task from all events' wait lists     */
        pevent->OSEventTbl[y]  &= ~bitx;
  803f24:	308000c3 	ldbu	r2,3(r6)
  803f28:	4084703a 	and	r2,r8,r2
        if (pevent->OSEventTbl[y] == 0) {
  803f2c:	10c03fcc 	andi	r3,r2,255
  803f30:	18c0201c 	xori	r3,r3,128
  803f34:	18ffe004 	addi	r3,r3,-128
    bity    =  ptcb->OSTCBBitY;
    bitx    =  ptcb->OSTCBBitX;
    pevents =  pevents_multi;
    pevent  = *pevents;
    while (pevent != (OS_EVENT *)0) {                   /* Remove task from all events' wait lists     */
        pevent->OSEventTbl[y]  &= ~bitx;
  803f38:	308000c5 	stb	r2,3(r6)
        if (pevent->OSEventTbl[y] == 0) {
  803f3c:	1800031e 	bne	r3,zero,803f4c <OS_EventTaskRemoveMulti+0x44>
            pevent->OSEventGrp &= ~bity;
  803f40:	20800283 	ldbu	r2,10(r4)
  803f44:	3884703a 	and	r2,r7,r2
  803f48:	20800285 	stb	r2,10(r4)
        }
        pevents++;
        pevent = *pevents;
  803f4c:	29000017 	ldw	r4,0(r5)
    bity    =  ptcb->OSTCBBitY;
    bitx    =  ptcb->OSTCBBitX;
    pevents =  pevents_multi;
    pevent  = *pevents;
    while (pevent != (OS_EVENT *)0) {                   /* Remove task from all events' wait lists     */
        pevent->OSEventTbl[y]  &= ~bitx;
  803f50:	4905883a 	add	r2,r9,r4
  803f54:	11800204 	addi	r6,r2,8
        if (pevent->OSEventTbl[y] == 0) {
            pevent->OSEventGrp &= ~bity;
        }
        pevents++;
  803f58:	29400104 	addi	r5,r5,4
    y       =  ptcb->OSTCBY;
    bity    =  ptcb->OSTCBBitY;
    bitx    =  ptcb->OSTCBBitX;
    pevents =  pevents_multi;
    pevent  = *pevents;
    while (pevent != (OS_EVENT *)0) {                   /* Remove task from all events' wait lists     */
  803f5c:	203ff11e 	bne	r4,zero,803f24 <OS_EventTaskRemoveMulti+0x1c>
            pevent->OSEventGrp &= ~bity;
        }
        pevents++;
        pevent = *pevents;
    }
}
  803f60:	f800283a 	ret

00803f64 <OS_EventTaskRdy>:
* Note       : This function is INTERNAL to uC/OS-II and your application should not call it.
*********************************************************************************************************
*/
#if (OS_EVENT_EN)
INT8U  OS_EventTaskRdy (OS_EVENT *pevent, void *pmsg, INT8U msk, INT8U pend_stat)
{
  803f64:	defffc04 	addi	sp,sp,-16
  803f68:	dc800215 	stw	r18,8(sp)
  803f6c:	dc400115 	stw	r17,4(sp)
  803f70:	dc000015 	stw	r16,0(sp)
  803f74:	dfc00315 	stw	ra,12(sp)
    INT16U  *ptbl;
#endif


#if OS_LOWEST_PRIO <= 63
    y    = OSUnMapTbl[pevent->OSEventGrp];              /* Find HPT waiting for message                */
  803f78:	20800283 	ldbu	r2,10(r4)
  803f7c:	02402074 	movhi	r9,129
  803f80:	4a61e284 	addi	r9,r9,-30838
* Note       : This function is INTERNAL to uC/OS-II and your application should not call it.
*********************************************************************************************************
*/
#if (OS_EVENT_EN)
INT8U  OS_EventTaskRdy (OS_EVENT *pevent, void *pmsg, INT8U msk, INT8U pend_stat)
{
  803f84:	2025883a 	mov	r18,r4
    INT16U  *ptbl;
#endif


#if OS_LOWEST_PRIO <= 63
    y    = OSUnMapTbl[pevent->OSEventGrp];              /* Find HPT waiting for message                */
  803f88:	1245883a 	add	r2,r2,r9
  803f8c:	11000003 	ldbu	r4,0(r2)
#if ((OS_Q_EN > 0) && (OS_MAX_QS > 0)) || (OS_MBOX_EN > 0)
    ptcb->OSTCBMsg        =  pmsg;                      /* Send message directly to waiting task       */
#else
    pmsg                  =  pmsg;                      /* Prevent compiler warning if not used        */
#endif
    ptcb->OSTCBStat      &= ~msk;                       /* Clear bit associated with event type        */
  803f90:	018c303a 	nor	r6,zero,r6
#endif


#if OS_LOWEST_PRIO <= 63
    y    = OSUnMapTbl[pevent->OSEventGrp];              /* Find HPT waiting for message                */
    x    = OSUnMapTbl[pevent->OSEventTbl[y]];
  803f94:	22003fcc 	andi	r8,r4,255
        x = OSUnMapTbl[(*ptbl >> 8) & 0xFF] + 8;
    }
    prio = (INT8U)((y << 4) + x);                       /* Find priority of task getting the msg       */
#endif

    ptcb                  =  OSTCBPrioTbl[prio];        /* Point to this task's OS_TCB                 */
  803f98:	4485883a 	add	r2,r8,r18
  803f9c:	10c002c3 	ldbu	r3,11(r2)
    ptcb->OSTCBStat      &= ~msk;                       /* Clear bit associated with event type        */
    ptcb->OSTCBStatPend   =  pend_stat;                 /* Set pend status of post or abort            */
                                                        /* See if task is ready (could be susp'd)      */
    if ((ptcb->OSTCBStat &   OS_STAT_SUSPEND) == OS_STAT_RDY) {
        OSRdyGrp         |=  ptcb->OSTCBBitY;           /* Put task in the ready to run list           */
        OSRdyTbl[y]      |=  ptcb->OSTCBBitX;
  803fa0:	d0a13f44 	addi	r2,gp,-31491
        x = OSUnMapTbl[(*ptbl >> 8) & 0xFF] + 8;
    }
    prio = (INT8U)((y << 4) + x);                       /* Find priority of task getting the msg       */
#endif

    ptcb                  =  OSTCBPrioTbl[prio];        /* Point to this task's OS_TCB                 */
  803fa4:	200890fa 	slli	r4,r4,3
  803fa8:	1a47883a 	add	r3,r3,r9
    ptcb->OSTCBStat      &= ~msk;                       /* Clear bit associated with event type        */
    ptcb->OSTCBStatPend   =  pend_stat;                 /* Set pend status of post or abort            */
                                                        /* See if task is ready (could be susp'd)      */
    if ((ptcb->OSTCBStat &   OS_STAT_SUSPEND) == OS_STAT_RDY) {
        OSRdyGrp         |=  ptcb->OSTCBBitY;           /* Put task in the ready to run list           */
        OSRdyTbl[y]      |=  ptcb->OSTCBBitX;
  803fac:	4091883a 	add	r8,r8,r2
        x = OSUnMapTbl[(*ptbl >> 8) & 0xFF] + 8;
    }
    prio = (INT8U)((y << 4) + x);                       /* Find priority of task getting the msg       */
#endif

    ptcb                  =  OSTCBPrioTbl[prio];        /* Point to this task's OS_TCB                 */
  803fb0:	18800003 	ldbu	r2,0(r3)
  803fb4:	00c02074 	movhi	r3,129
  803fb8:	18f7c504 	addi	r3,r3,-8428
  803fbc:	2089883a 	add	r4,r4,r2
  803fc0:	24403fcc 	andi	r17,r4,255
  803fc4:	8c45883a 	add	r2,r17,r17
  803fc8:	1085883a 	add	r2,r2,r2
  803fcc:	10c5883a 	add	r2,r2,r3
  803fd0:	14000017 	ldw	r16,0(r2)
#if ((OS_Q_EN > 0) && (OS_MAX_QS > 0)) || (OS_MBOX_EN > 0)
    ptcb->OSTCBMsg        =  pmsg;                      /* Send message directly to waiting task       */
#else
    pmsg                  =  pmsg;                      /* Prevent compiler warning if not used        */
#endif
    ptcb->OSTCBStat      &= ~msk;                       /* Clear bit associated with event type        */
  803fd4:	80800c03 	ldbu	r2,48(r16)
#endif

    ptcb                  =  OSTCBPrioTbl[prio];        /* Point to this task's OS_TCB                 */
    ptcb->OSTCBDly        =  0;                         /* Prevent OSTimeTick() from readying task     */
#if ((OS_Q_EN > 0) && (OS_MAX_QS > 0)) || (OS_MBOX_EN > 0)
    ptcb->OSTCBMsg        =  pmsg;                      /* Send message directly to waiting task       */
  803fd8:	81400915 	stw	r5,36(r16)
    if ((ptcb->OSTCBStat &   OS_STAT_SUSPEND) == OS_STAT_RDY) {
        OSRdyGrp         |=  ptcb->OSTCBBitY;           /* Put task in the ready to run list           */
        OSRdyTbl[y]      |=  ptcb->OSTCBBitX;
    }

    OS_EventTaskRemove(ptcb, pevent);                   /* Remove this task from event   wait list     */
  803fdc:	8009883a 	mov	r4,r16
#if ((OS_Q_EN > 0) && (OS_MAX_QS > 0)) || (OS_MBOX_EN > 0)
    ptcb->OSTCBMsg        =  pmsg;                      /* Send message directly to waiting task       */
#else
    pmsg                  =  pmsg;                      /* Prevent compiler warning if not used        */
#endif
    ptcb->OSTCBStat      &= ~msk;                       /* Clear bit associated with event type        */
  803fe0:	308c703a 	and	r6,r6,r2
    ptcb->OSTCBStatPend   =  pend_stat;                 /* Set pend status of post or abort            */
                                                        /* See if task is ready (could be susp'd)      */
    if ((ptcb->OSTCBStat &   OS_STAT_SUSPEND) == OS_STAT_RDY) {
  803fe4:	30803fcc 	andi	r2,r6,255
  803fe8:	1080020c 	andi	r2,r2,8
    ptcb->OSTCBMsg        =  pmsg;                      /* Send message directly to waiting task       */
#else
    pmsg                  =  pmsg;                      /* Prevent compiler warning if not used        */
#endif
    ptcb->OSTCBStat      &= ~msk;                       /* Clear bit associated with event type        */
    ptcb->OSTCBStatPend   =  pend_stat;                 /* Set pend status of post or abort            */
  803fec:	81c00c45 	stb	r7,49(r16)
#if ((OS_Q_EN > 0) && (OS_MAX_QS > 0)) || (OS_MBOX_EN > 0)
    ptcb->OSTCBMsg        =  pmsg;                      /* Send message directly to waiting task       */
#else
    pmsg                  =  pmsg;                      /* Prevent compiler warning if not used        */
#endif
    ptcb->OSTCBStat      &= ~msk;                       /* Clear bit associated with event type        */
  803ff0:	81800c05 	stb	r6,48(r16)
    if ((ptcb->OSTCBStat &   OS_STAT_SUSPEND) == OS_STAT_RDY) {
        OSRdyGrp         |=  ptcb->OSTCBBitY;           /* Put task in the ready to run list           */
        OSRdyTbl[y]      |=  ptcb->OSTCBBitX;
    }

    OS_EventTaskRemove(ptcb, pevent);                   /* Remove this task from event   wait list     */
  803ff4:	900b883a 	mov	r5,r18
    }
    prio = (INT8U)((y << 4) + x);                       /* Find priority of task getting the msg       */
#endif

    ptcb                  =  OSTCBPrioTbl[prio];        /* Point to this task's OS_TCB                 */
    ptcb->OSTCBDly        =  0;                         /* Prevent OSTimeTick() from readying task     */
  803ff8:	80000b8d 	sth	zero,46(r16)
    pmsg                  =  pmsg;                      /* Prevent compiler warning if not used        */
#endif
    ptcb->OSTCBStat      &= ~msk;                       /* Clear bit associated with event type        */
    ptcb->OSTCBStatPend   =  pend_stat;                 /* Set pend status of post or abort            */
                                                        /* See if task is ready (could be susp'd)      */
    if ((ptcb->OSTCBStat &   OS_STAT_SUSPEND) == OS_STAT_RDY) {
  803ffc:	1000081e 	bne	r2,zero,804020 <OS_EventTaskRdy+0xbc>
        OSRdyGrp         |=  ptcb->OSTCBBitY;           /* Put task in the ready to run list           */
  804000:	81800d83 	ldbu	r6,54(r16)
  804004:	d0a13f03 	ldbu	r2,-31492(gp)
        OSRdyTbl[y]      |=  ptcb->OSTCBBitX;
  804008:	40c00003 	ldbu	r3,0(r8)
#endif
    ptcb->OSTCBStat      &= ~msk;                       /* Clear bit associated with event type        */
    ptcb->OSTCBStatPend   =  pend_stat;                 /* Set pend status of post or abort            */
                                                        /* See if task is ready (could be susp'd)      */
    if ((ptcb->OSTCBStat &   OS_STAT_SUSPEND) == OS_STAT_RDY) {
        OSRdyGrp         |=  ptcb->OSTCBBitY;           /* Put task in the ready to run list           */
  80400c:	1184b03a 	or	r2,r2,r6
  804010:	d0a13f05 	stb	r2,-31492(gp)
        OSRdyTbl[y]      |=  ptcb->OSTCBBitX;
  804014:	80800d43 	ldbu	r2,53(r16)
  804018:	1886b03a 	or	r3,r3,r2
  80401c:	40c00005 	stb	r3,0(r8)
    }

    OS_EventTaskRemove(ptcb, pevent);                   /* Remove this task from event   wait list     */
  804020:	0803ebc0 	call	803ebc <OS_EventTaskRemove>
#if (OS_EVENT_MULTI_EN > 0)
    if (ptcb->OSTCBEventMultiPtr != (OS_EVENT **)0) {   /* Remove this task from events' wait lists    */
  804024:	80800817 	ldw	r2,32(r16)
        OS_EventTaskRemoveMulti(ptcb, ptcb->OSTCBEventMultiPtr);
  804028:	8009883a 	mov	r4,r16
  80402c:	100b883a 	mov	r5,r2
        OSRdyTbl[y]      |=  ptcb->OSTCBBitX;
    }

    OS_EventTaskRemove(ptcb, pevent);                   /* Remove this task from event   wait list     */
#if (OS_EVENT_MULTI_EN > 0)
    if (ptcb->OSTCBEventMultiPtr != (OS_EVENT **)0) {   /* Remove this task from events' wait lists    */
  804030:	10000226 	beq	r2,zero,80403c <OS_EventTaskRdy+0xd8>
        OS_EventTaskRemoveMulti(ptcb, ptcb->OSTCBEventMultiPtr);
  804034:	0803f080 	call	803f08 <OS_EventTaskRemoveMulti>
        ptcb->OSTCBEventPtr       = (OS_EVENT  *)pevent;/* Return event as first multi-pend event ready*/
  804038:	84800715 	stw	r18,28(r16)
    }
#endif

    return (prio);
}
  80403c:	8805883a 	mov	r2,r17
  804040:	dfc00317 	ldw	ra,12(sp)
  804044:	dc800217 	ldw	r18,8(sp)
  804048:	dc400117 	ldw	r17,4(sp)
  80404c:	dc000017 	ldw	r16,0(sp)
  804050:	dec00404 	addi	sp,sp,16
  804054:	f800283a 	ret

00804058 <OS_EventWaitListInit>:
    INT16U *ptbl;
#endif
    INT8U   i;


    pevent->OSEventGrp = 0;                      /* No task waiting on event                           */
  804058:	20000285 	stb	zero,10(r4)
    ptbl               = &pevent->OSEventTbl[0];
  80405c:	210002c4 	addi	r4,r4,11

    for (i = 0; i < OS_EVENT_TBL_SIZE; i++) {
        *ptbl++ = 0;
  804060:	20000005 	stb	zero,0(r4)
  804064:	21000044 	addi	r4,r4,1
  804068:	20000045 	stb	zero,1(r4)
  80406c:	20000005 	stb	zero,0(r4)
    }
}
  804070:	f800283a 	ret

00804074 <OS_MemClr>:
*                 of the alignment of the destination.
*********************************************************************************************************
*/

void  OS_MemClr (INT8U *pdest, INT16U size)
{
  804074:	00000206 	br	804080 <OS_MemClr+0xc>
    while (size > 0) {
        *pdest++ = (INT8U)0;
  804078:	20000005 	stb	zero,0(r4)
  80407c:	21000044 	addi	r4,r4,1
*********************************************************************************************************
*/

void  OS_MemClr (INT8U *pdest, INT16U size)
{
    while (size > 0) {
  804080:	28bfffcc 	andi	r2,r5,65535
        *pdest++ = (INT8U)0;
        size--;
  804084:	297fffc4 	addi	r5,r5,-1
*********************************************************************************************************
*/

void  OS_MemClr (INT8U *pdest, INT16U size)
{
    while (size > 0) {
  804088:	103ffb1e 	bne	r2,zero,804078 <OS_MemClr+0x4>
        *pdest++ = (INT8U)0;
        size--;
    }
}
  80408c:	f800283a 	ret

00804090 <OS_MemCopy>:
*                 of the alignment of the source and destination.
*********************************************************************************************************
*/

void  OS_MemCopy (INT8U *pdest, INT8U *psrc, INT16U size)
{
  804090:	00000406 	br	8040a4 <OS_MemCopy+0x14>
    while (size > 0) {
        *pdest++ = *psrc++;
  804094:	28800003 	ldbu	r2,0(r5)
  804098:	29400044 	addi	r5,r5,1
  80409c:	20800005 	stb	r2,0(r4)
  8040a0:	21000044 	addi	r4,r4,1
*********************************************************************************************************
*/

void  OS_MemCopy (INT8U *pdest, INT8U *psrc, INT16U size)
{
    while (size > 0) {
  8040a4:	30bfffcc 	andi	r2,r6,65535
        *pdest++ = *psrc++;
        size--;
  8040a8:	31bfffc4 	addi	r6,r6,-1
*********************************************************************************************************
*/

void  OS_MemCopy (INT8U *pdest, INT8U *psrc, INT16U size)
{
    while (size > 0) {
  8040ac:	103ff91e 	bne	r2,zero,804094 <OS_MemCopy+0x4>
        *pdest++ = *psrc++;
        size--;
    }
}
  8040b0:	f800283a 	ret

008040b4 <OS_StrCopy>:
*********************************************************************************************************
*/

#if (OS_EVENT_NAME_SIZE > 1) || (OS_FLAG_NAME_SIZE > 1) || (OS_MEM_NAME_SIZE > 1) || (OS_TASK_NAME_SIZE > 1) || (OS_TMR_CFG_NAME_SIZE > 1)
INT8U  OS_StrCopy (INT8U *pdest, INT8U *psrc)
{
  8040b4:	2007883a 	mov	r3,r4
  8040b8:	00000206 	br	8040c4 <OS_StrCopy+0x10>
    INT8U  len;


    len = 0;
    while (*psrc != OS_ASCII_NUL) {
        *pdest++ = *psrc++;
  8040bc:	18800005 	stb	r2,0(r3)
  8040c0:	18c00044 	addi	r3,r3,1
{
    INT8U  len;


    len = 0;
    while (*psrc != OS_ASCII_NUL) {
  8040c4:	28800003 	ldbu	r2,0(r5)
        *pdest++ = *psrc++;
  8040c8:	29400044 	addi	r5,r5,1
{
    INT8U  len;


    len = 0;
    while (*psrc != OS_ASCII_NUL) {
  8040cc:	103ffb1e 	bne	r2,zero,8040bc <OS_StrCopy+0x8>
        *pdest++ = *psrc++;
        len++;
    }
    *pdest = OS_ASCII_NUL;
  8040d0:	1905c83a 	sub	r2,r3,r4
    return (len);
}
  8040d4:	10803fcc 	andi	r2,r2,255
    len = 0;
    while (*psrc != OS_ASCII_NUL) {
        *pdest++ = *psrc++;
        len++;
    }
    *pdest = OS_ASCII_NUL;
  8040d8:	18000005 	stb	zero,0(r3)
    return (len);
}
  8040dc:	f800283a 	ret

008040e0 <OS_StrLen>:
*********************************************************************************************************
*/

#if (OS_EVENT_NAME_SIZE > 1) || (OS_FLAG_NAME_SIZE > 1) || (OS_MEM_NAME_SIZE > 1) || (OS_TASK_NAME_SIZE > 1) || (OS_TMR_CFG_NAME_SIZE > 1)
INT8U  OS_StrLen (INT8U *psrc)
{
  8040e0:	2007883a 	mov	r3,r4
  8040e4:	00000106 	br	8040ec <OS_StrLen+0xc>
    INT8U  len;


    len = 0;
    while (*psrc != OS_ASCII_NUL) {
        psrc++;
  8040e8:	18c00044 	addi	r3,r3,1
{
    INT8U  len;


    len = 0;
    while (*psrc != OS_ASCII_NUL) {
  8040ec:	18800003 	ldbu	r2,0(r3)
  8040f0:	103ffd1e 	bne	r2,zero,8040e8 <OS_StrLen+0x8>
  8040f4:	1905c83a 	sub	r2,r3,r4
        psrc++;
        len++;
    }
    return (len);
}
  8040f8:	10803fcc 	andi	r2,r2,255
  8040fc:	f800283a 	ret

00804100 <OS_TaskStatStkChk>:
*********************************************************************************************************
*/

#if (OS_TASK_STAT_STK_CHK_EN > 0) && (OS_TASK_CREATE_EXT_EN > 0)
void  OS_TaskStatStkChk (void)
{
  804100:	defffc04 	addi	sp,sp,-16
  804104:	dc000215 	stw	r16,8(sp)
  804108:	dfc00315 	stw	ra,12(sp)
  80410c:	0021883a 	mov	r16,zero
    INT8U        err;
    INT8U        prio;


    for (prio = 0; prio <= OS_TASK_IDLE_PRIO; prio++) {
        err = OSTaskStkChk(prio, &stk_data);
  804110:	8009883a 	mov	r4,r16
  804114:	d80b883a 	mov	r5,sp
  804118:	08067a80 	call	8067a8 <OSTaskStkChk>
  80411c:	84000044 	addi	r16,r16,1
    OS_STK_DATA  stk_data;
    INT8U        err;
    INT8U        prio;


    for (prio = 0; prio <= OS_TASK_IDLE_PRIO; prio++) {
  804120:	00800544 	movi	r2,21
  804124:	80bffa1e 	bne	r16,r2,804110 <OS_TaskStatStkChk+0x10>
#endif
                }
            }
        }
    }
}
  804128:	dfc00317 	ldw	ra,12(sp)
  80412c:	dc000217 	ldw	r16,8(sp)
  804130:	dec00404 	addi	sp,sp,16
  804134:	f800283a 	ret

00804138 <OS_Sched>:
*              2) Rescheduling is prevented when the scheduler is locked (see OS_SchedLock())
*********************************************************************************************************
*/

void  OS_Sched (void)
{
  804138:	defffe04 	addi	sp,sp,-8
  80413c:	dfc00115 	stw	ra,4(sp)
  804140:	dc000015 	stw	r16,0(sp)
static ALT_INLINE alt_irq_context ALT_ALWAYS_INLINE 
       alt_irq_disable_all (void)
{
  alt_irq_context context;

  NIOS2_READ_STATUS (context);
  804144:	0021303a 	rdctl	r16,status

  NIOS2_WRITE_STATUS (context & ~NIOS2_STATUS_PIE_MSK);
  804148:	00bfff84 	movi	r2,-2
  80414c:	8084703a 	and	r2,r16,r2
  804150:	1001703a 	wrctl	status,r2
#endif



    OS_ENTER_CRITICAL();
    if (OSIntNesting == 0) {                           /* Schedule only if all ISRs done and ...       */
  804154:	d0a14103 	ldbu	r2,-31484(gp)
  804158:	10001d1e 	bne	r2,zero,8041d0 <OS_Sched+0x98>
        if (OSLockNesting == 0) {                      /* ... scheduler is not locked                  */
  80415c:	d0a13203 	ldbu	r2,-31544(gp)
{
#if OS_LOWEST_PRIO <= 63                         /* See if we support up to 64 tasks                   */
    INT8U   y;


    y             = OSUnMapTbl[OSRdyGrp];
  804160:	01402074 	movhi	r5,129
  804164:	2961e284 	addi	r5,r5,-30838



    OS_ENTER_CRITICAL();
    if (OSIntNesting == 0) {                           /* Schedule only if all ISRs done and ...       */
        if (OSLockNesting == 0) {                      /* ... scheduler is not locked                  */
  804168:	1000191e 	bne	r2,zero,8041d0 <OS_Sched+0x98>
{
#if OS_LOWEST_PRIO <= 63                         /* See if we support up to 64 tasks                   */
    INT8U   y;


    y             = OSUnMapTbl[OSRdyGrp];
  80416c:	d0a13f03 	ldbu	r2,-31492(gp)
    OSPrioHighRdy = (INT8U)((y << 3) + OSUnMapTbl[OSRdyTbl[y]]);
  804170:	d0e13f44 	addi	r3,gp,-31491

    OS_ENTER_CRITICAL();
    if (OSIntNesting == 0) {                           /* Schedule only if all ISRs done and ...       */
        if (OSLockNesting == 0) {                      /* ... scheduler is not locked                  */
            OS_SchedNew();
            if (OSPrioHighRdy != OSPrioCur) {          /* No Ctx Sw if current task is highest rdy     */
  804174:	d1a136c3 	ldbu	r6,-31525(gp)
{
#if OS_LOWEST_PRIO <= 63                         /* See if we support up to 64 tasks                   */
    INT8U   y;


    y             = OSUnMapTbl[OSRdyGrp];
  804178:	1145883a 	add	r2,r2,r5
  80417c:	11000003 	ldbu	r4,0(r2)
    OSPrioHighRdy = (INT8U)((y << 3) + OSUnMapTbl[OSRdyTbl[y]]);
  804180:	20c5883a 	add	r2,r4,r3
  804184:	10800003 	ldbu	r2,0(r2)
  804188:	200890fa 	slli	r4,r4,3
    OS_ENTER_CRITICAL();
    if (OSIntNesting == 0) {                           /* Schedule only if all ISRs done and ...       */
        if (OSLockNesting == 0) {                      /* ... scheduler is not locked                  */
            OS_SchedNew();
            if (OSPrioHighRdy != OSPrioCur) {          /* No Ctx Sw if current task is highest rdy     */
                OSTCBHighRdy = OSTCBPrioTbl[OSPrioHighRdy];
  80418c:	00c02074 	movhi	r3,129
  804190:	18f7c504 	addi	r3,r3,-8428
#if OS_LOWEST_PRIO <= 63                         /* See if we support up to 64 tasks                   */
    INT8U   y;


    y             = OSUnMapTbl[OSRdyGrp];
    OSPrioHighRdy = (INT8U)((y << 3) + OSUnMapTbl[OSRdyTbl[y]]);
  804194:	1145883a 	add	r2,r2,r5
  804198:	10800003 	ldbu	r2,0(r2)
  80419c:	2089883a 	add	r4,r4,r2

    OS_ENTER_CRITICAL();
    if (OSIntNesting == 0) {                           /* Schedule only if all ISRs done and ...       */
        if (OSLockNesting == 0) {                      /* ... scheduler is not locked                  */
            OS_SchedNew();
            if (OSPrioHighRdy != OSPrioCur) {          /* No Ctx Sw if current task is highest rdy     */
  8041a0:	21403fcc 	andi	r5,r4,255
                OSTCBHighRdy = OSTCBPrioTbl[OSPrioHighRdy];
  8041a4:	2945883a 	add	r2,r5,r5
  8041a8:	1085883a 	add	r2,r2,r2
  8041ac:	10c5883a 	add	r2,r2,r3
#if OS_LOWEST_PRIO <= 63                         /* See if we support up to 64 tasks                   */
    INT8U   y;


    y             = OSUnMapTbl[OSRdyGrp];
    OSPrioHighRdy = (INT8U)((y << 3) + OSUnMapTbl[OSRdyTbl[y]]);
  8041b0:	d1213685 	stb	r4,-31526(gp)

    OS_ENTER_CRITICAL();
    if (OSIntNesting == 0) {                           /* Schedule only if all ISRs done and ...       */
        if (OSLockNesting == 0) {                      /* ... scheduler is not locked                  */
            OS_SchedNew();
            if (OSPrioHighRdy != OSPrioCur) {          /* No Ctx Sw if current task is highest rdy     */
  8041b4:	29800626 	beq	r5,r6,8041d0 <OS_Sched+0x98>
                OSTCBHighRdy = OSTCBPrioTbl[OSPrioHighRdy];
  8041b8:	10c00017 	ldw	r3,0(r2)
#if OS_TASK_PROFILE_EN > 0
                OSTCBHighRdy->OSTCBCtxSwCtr++;         /* Inc. # of context switches to this task      */
#endif
                OSCtxSwCtr++;                          /* Increment context switch counter             */
  8041bc:	d0a13917 	ldw	r2,-31516(gp)
    OS_ENTER_CRITICAL();
    if (OSIntNesting == 0) {                           /* Schedule only if all ISRs done and ...       */
        if (OSLockNesting == 0) {                      /* ... scheduler is not locked                  */
            OS_SchedNew();
            if (OSPrioHighRdy != OSPrioCur) {          /* No Ctx Sw if current task is highest rdy     */
                OSTCBHighRdy = OSTCBPrioTbl[OSPrioHighRdy];
  8041c0:	d0e13e15 	stw	r3,-31496(gp)
#if OS_TASK_PROFILE_EN > 0
                OSTCBHighRdy->OSTCBCtxSwCtr++;         /* Inc. # of context switches to this task      */
#endif
                OSCtxSwCtr++;                          /* Increment context switch counter             */
  8041c4:	10800044 	addi	r2,r2,1
  8041c8:	d0a13915 	stw	r2,-31516(gp)
                OS_TASK_SW();                          /* Perform a context switch                     */
  8041cc:	0807b380 	call	807b38 <OSCtxSw>
  status &= ~NIOS2_STATUS_PIE_MSK;
  status |= (context & NIOS2_STATUS_PIE_MSK);
  
  NIOS2_WRITE_STATUS (status);
#else
  NIOS2_WRITE_STATUS (context);
  8041d0:	8001703a 	wrctl	status,r16
            }
        }
    }
    OS_EXIT_CRITICAL();
}
  8041d4:	dfc00117 	ldw	ra,4(sp)
  8041d8:	dc000017 	ldw	r16,0(sp)
  8041dc:	dec00204 	addi	sp,sp,8
  8041e0:	f800283a 	ret

008041e4 <OSStart>:
*********************************************************************************************************
*/

void  OSStart (void)
{
    if (OSRunning == OS_FALSE) {
  8041e4:	d0a13403 	ldbu	r2,-31536(gp)
{
#if OS_LOWEST_PRIO <= 63                         /* See if we support up to 64 tasks                   */
    INT8U   y;


    y             = OSUnMapTbl[OSRdyGrp];
  8041e8:	01402074 	movhi	r5,129
  8041ec:	2961e284 	addi	r5,r5,-30838
*********************************************************************************************************
*/

void  OSStart (void)
{
    if (OSRunning == OS_FALSE) {
  8041f0:	1000161e 	bne	r2,zero,80424c <OSStart+0x68>
{
#if OS_LOWEST_PRIO <= 63                         /* See if we support up to 64 tasks                   */
    INT8U   y;


    y             = OSUnMapTbl[OSRdyGrp];
  8041f4:	d0a13f03 	ldbu	r2,-31492(gp)
    OSPrioHighRdy = (INT8U)((y << 3) + OSUnMapTbl[OSRdyTbl[y]]);
  8041f8:	d0e13f44 	addi	r3,gp,-31491
{
#if OS_LOWEST_PRIO <= 63                         /* See if we support up to 64 tasks                   */
    INT8U   y;


    y             = OSUnMapTbl[OSRdyGrp];
  8041fc:	1145883a 	add	r2,r2,r5
  804200:	11000003 	ldbu	r4,0(r2)
    OSPrioHighRdy = (INT8U)((y << 3) + OSUnMapTbl[OSRdyTbl[y]]);
  804204:	20c5883a 	add	r2,r4,r3
  804208:	10800003 	ldbu	r2,0(r2)
  80420c:	200890fa 	slli	r4,r4,3
void  OSStart (void)
{
    if (OSRunning == OS_FALSE) {
        OS_SchedNew();                               /* Find highest priority's task priority number   */
        OSPrioCur     = OSPrioHighRdy;
        OSTCBHighRdy  = OSTCBPrioTbl[OSPrioHighRdy]; /* Point to highest priority task ready to run    */
  804210:	00c02074 	movhi	r3,129
  804214:	18f7c504 	addi	r3,r3,-8428
#if OS_LOWEST_PRIO <= 63                         /* See if we support up to 64 tasks                   */
    INT8U   y;


    y             = OSUnMapTbl[OSRdyGrp];
    OSPrioHighRdy = (INT8U)((y << 3) + OSUnMapTbl[OSRdyTbl[y]]);
