Archive member included because of file (symbol)

/opt/altera/13.0sp1/nios2eds/bin/gnu/H-i686-pc-linux-gnu/bin/../lib/gcc/nios2-elf/4.1.2/mno-hw-mul/libgcc.a(_si_to_sf.o)
                              obj/default/cruise_skeleton.o (__floatsisf)
/opt/altera/13.0sp1/nios2eds/bin/gnu/H-i686-pc-linux-gnu/bin/../lib/gcc/nios2-elf/4.1.2/mno-hw-mul/libgcc.a(_sf_to_df.o)
                              obj/default/cruise_skeleton.o (__extendsfdf2)
/opt/altera/13.0sp1/nios2eds/bin/gnu/H-i686-pc-linux-gnu/bin/../lib/gcc/nios2-elf/4.1.2/mno-hw-mul/libgcc.a(_addsub_df.o)
                              obj/default/cruise_skeleton.o (__adddf3)
/opt/altera/13.0sp1/nios2eds/bin/gnu/H-i686-pc-linux-gnu/bin/../lib/gcc/nios2-elf/4.1.2/mno-hw-mul/libgcc.a(_div_df.o)
                              obj/default/cruise_skeleton.o (__divdf3)
/opt/altera/13.0sp1/nios2eds/bin/gnu/H-i686-pc-linux-gnu/bin/../lib/gcc/nios2-elf/4.1.2/mno-hw-mul/libgcc.a(_si_to_df.o)
                              obj/default/cruise_skeleton.o (__floatsidf)
/opt/altera/13.0sp1/nios2eds/bin/gnu/H-i686-pc-linux-gnu/bin/../lib/gcc/nios2-elf/4.1.2/mno-hw-mul/libgcc.a(_df_to_si.o)
                              obj/default/cruise_skeleton.o (__fixdfsi)
/opt/altera/13.0sp1/nios2eds/bin/gnu/H-i686-pc-linux-gnu/bin/../lib/gcc/nios2-elf/4.1.2/mno-hw-mul/libgcc.a(_make_df.o)
                              /opt/altera/13.0sp1/nios2eds/bin/gnu/H-i686-pc-linux-gnu/bin/../lib/gcc/nios2-elf/4.1.2/mno-hw-mul/libgcc.a(_sf_to_df.o) (__make_dp)
/opt/altera/13.0sp1/nios2eds/bin/gnu/H-i686-pc-linux-gnu/bin/../lib/gcc/nios2-elf/4.1.2/mno-hw-mul/libgcc.a(_thenan_df.o)
                              /opt/altera/13.0sp1/nios2eds/bin/gnu/H-i686-pc-linux-gnu/bin/../lib/gcc/nios2-elf/4.1.2/mno-hw-mul/libgcc.a(_addsub_df.o) (__thenan_df)
/opt/altera/13.0sp1/nios2eds/bin/gnu/H-i686-pc-linux-gnu/bin/../lib/gcc/nios2-elf/4.1.2/mno-hw-mul/libgcc.a(lib2-divmod.o)
                              obj/default/cruise_skeleton.o (__divsi3)
/opt/altera/13.0sp1/nios2eds/bin/gnu/H-i686-pc-linux-gnu/bin/../lib/gcc/nios2-elf/4.1.2/mno-hw-mul/libgcc.a(lib2-mul.o)
                              obj/default/cruise_skeleton.o (__mulsi3)
/opt/altera/13.0sp1/nios2eds/bin/gnu/H-i686-pc-linux-gnu/bin/../lib/gcc/nios2-elf/4.1.2/mno-hw-mul/libgcc.a(_clzsi2.o)
                              /opt/altera/13.0sp1/nios2eds/bin/gnu/H-i686-pc-linux-gnu/bin/../lib/gcc/nios2-elf/4.1.2/mno-hw-mul/libgcc.a(_si_to_sf.o) (__clzsi2)
/opt/altera/13.0sp1/nios2eds/bin/gnu/H-i686-pc-linux-gnu/bin/../lib/gcc/nios2-elf/4.1.2/mno-hw-mul/libgcc.a(_pack_sf.o)
                              /opt/altera/13.0sp1/nios2eds/bin/gnu/H-i686-pc-linux-gnu/bin/../lib/gcc/nios2-elf/4.1.2/mno-hw-mul/libgcc.a(_si_to_sf.o) (__pack_f)
/opt/altera/13.0sp1/nios2eds/bin/gnu/H-i686-pc-linux-gnu/bin/../lib/gcc/nios2-elf/4.1.2/mno-hw-mul/libgcc.a(_unpack_sf.o)
                              /opt/altera/13.0sp1/nios2eds/bin/gnu/H-i686-pc-linux-gnu/bin/../lib/gcc/nios2-elf/4.1.2/mno-hw-mul/libgcc.a(_sf_to_df.o) (__unpack_f)
/opt/altera/13.0sp1/nios2eds/bin/gnu/H-i686-pc-linux-gnu/bin/../lib/gcc/nios2-elf/4.1.2/mno-hw-mul/libgcc.a(_pack_df.o)
                              /opt/altera/13.0sp1/nios2eds/bin/gnu/H-i686-pc-linux-gnu/bin/../lib/gcc/nios2-elf/4.1.2/mno-hw-mul/libgcc.a(_addsub_df.o) (__pack_d)
/opt/altera/13.0sp1/nios2eds/bin/gnu/H-i686-pc-linux-gnu/bin/../lib/gcc/nios2-elf/4.1.2/mno-hw-mul/libgcc.a(_unpack_df.o)
                              /opt/altera/13.0sp1/nios2eds/bin/gnu/H-i686-pc-linux-gnu/bin/../lib/gcc/nios2-elf/4.1.2/mno-hw-mul/libgcc.a(_addsub_df.o) (__unpack_d)
/opt/altera/13.0sp1/nios2eds/bin/gnu/H-i686-pc-linux-gnu/bin/../lib/gcc/nios2-elf/4.1.2/mno-hw-mul/libgcc.a(_clz.o)
                              /opt/altera/13.0sp1/nios2eds/bin/gnu/H-i686-pc-linux-gnu/bin/../lib/gcc/nios2-elf/4.1.2/mno-hw-mul/libgcc.a(_clzsi2.o) (__clz_tab)
/opt/altera/13.0sp1/nios2eds/bin/gnu/H-i686-pc-linux-gnu/bin/../lib/gcc/nios2-elf/4.1.2/../../../../nios2-elf/lib/mno-hw-mul/libc.a(lib_a-printf.o)
                              obj/default/cruise_skeleton.o (printf)
/opt/altera/13.0sp1/nios2eds/bin/gnu/H-i686-pc-linux-gnu/bin/../lib/gcc/nios2-elf/4.1.2/../../../../nios2-elf/lib/mno-hw-mul/libc.a(lib_a-puts.o)
                              obj/default/cruise_skeleton.o (puts)
/opt/altera/13.0sp1/nios2eds/bin/gnu/H-i686-pc-linux-gnu/bin/../lib/gcc/nios2-elf/4.1.2/../../../../nios2-elf/lib/mno-hw-mul/libc.a(lib_a-strlen.o)
                              /opt/altera/13.0sp1/nios2eds/bin/gnu/H-i686-pc-linux-gnu/bin/../lib/gcc/nios2-elf/4.1.2/../../../../nios2-elf/lib/mno-hw-mul/libc.a(lib_a-puts.o) (strlen)
/opt/altera/13.0sp1/nios2eds/bin/gnu/H-i686-pc-linux-gnu/bin/../lib/gcc/nios2-elf/4.1.2/../../../../nios2-elf/lib/mno-hw-mul/libc.a(lib_a-vfprintf.o)
                              /opt/altera/13.0sp1/nios2eds/bin/gnu/H-i686-pc-linux-gnu/bin/../lib/gcc/nios2-elf/4.1.2/../../../../nios2-elf/lib/mno-hw-mul/libc.a(lib_a-printf.o) (___vfprintf_internal_r)
/opt/altera/13.0sp1/nios2eds/bin/gnu/H-i686-pc-linux-gnu/bin/../lib/gcc/nios2-elf/4.1.2/../../../../nios2-elf/lib/mno-hw-mul/libc.a(lib_a-wsetup.o)
                              /opt/altera/13.0sp1/nios2eds/bin/gnu/H-i686-pc-linux-gnu/bin/../lib/gcc/nios2-elf/4.1.2/../../../../nios2-elf/lib/mno-hw-mul/libc.a(lib_a-vfprintf.o) (__swsetup_r)
/opt/altera/13.0sp1/nios2eds/bin/gnu/H-i686-pc-linux-gnu/bin/../lib/gcc/nios2-elf/4.1.2/../../../../nios2-elf/lib/mno-hw-mul/libc.a(lib_a-dtoa.o)
                              /opt/altera/13.0sp1/nios2eds/bin/gnu/H-i686-pc-linux-gnu/bin/../lib/gcc/nios2-elf/4.1.2/../../../../nios2-elf/lib/mno-hw-mul/libc.a(lib_a-vfprintf.o) (_dtoa_r)
/opt/altera/13.0sp1/nios2eds/bin/gnu/H-i686-pc-linux-gnu/bin/../lib/gcc/nios2-elf/4.1.2/../../../../nios2-elf/lib/mno-hw-mul/libc.a(lib_a-fflush.o)
                              /opt/altera/13.0sp1/nios2eds/bin/gnu/H-i686-pc-linux-gnu/bin/../lib/gcc/nios2-elf/4.1.2/../../../../nios2-elf/lib/mno-hw-mul/libc.a(lib_a-vfprintf.o) (_fflush_r)
/opt/altera/13.0sp1/nios2eds/bin/gnu/H-i686-pc-linux-gnu/bin/../lib/gcc/nios2-elf/4.1.2/../../../../nios2-elf/lib/mno-hw-mul/libc.a(lib_a-findfp.o)
                              /opt/altera/13.0sp1/nios2eds/bin/gnu/H-i686-pc-linux-gnu/bin/../lib/gcc/nios2-elf/4.1.2/../../../../nios2-elf/lib/mno-hw-mul/libc.a(lib_a-vfprintf.o) (__sinit)
/opt/altera/13.0sp1/nios2eds/bin/gnu/H-i686-pc-linux-gnu/bin/../lib/gcc/nios2-elf/4.1.2/../../../../nios2-elf/lib/mno-hw-mul/libc.a(lib_a-freer.o)
                              /opt/altera/13.0sp1/nios2eds/bin/gnu/H-i686-pc-linux-gnu/bin/../lib/gcc/nios2-elf/4.1.2/../../../../nios2-elf/lib/mno-hw-mul/libc.a(lib_a-wsetup.o) (_free_r)
/opt/altera/13.0sp1/nios2eds/bin/gnu/H-i686-pc-linux-gnu/bin/../lib/gcc/nios2-elf/4.1.2/../../../../nios2-elf/lib/mno-hw-mul/libc.a(lib_a-fvwrite.o)
                              /opt/altera/13.0sp1/nios2eds/bin/gnu/H-i686-pc-linux-gnu/bin/../lib/gcc/nios2-elf/4.1.2/../../../../nios2-elf/lib/mno-hw-mul/libc.a(lib_a-puts.o) (__sfvwrite_r)
/opt/altera/13.0sp1/nios2eds/bin/gnu/H-i686-pc-linux-gnu/bin/../lib/gcc/nios2-elf/4.1.2/../../../../nios2-elf/lib/mno-hw-mul/libc.a(lib_a-fwalk.o)
                              /opt/altera/13.0sp1/nios2eds/bin/gnu/H-i686-pc-linux-gnu/bin/../lib/gcc/nios2-elf/4.1.2/../../../../nios2-elf/lib/mno-hw-mul/libc.a(lib_a-fflush.o) (_fwalk_reent)
/opt/altera/13.0sp1/nios2eds/bin/gnu/H-i686-pc-linux-gnu/bin/../lib/gcc/nios2-elf/4.1.2/../../../../nios2-elf/lib/mno-hw-mul/libc.a(lib_a-impure.o)
                              /opt/altera/13.0sp1/nios2eds/bin/gnu/H-i686-pc-linux-gnu/bin/../lib/gcc/nios2-elf/4.1.2/../../../../nios2-elf/lib/mno-hw-mul/libc.a(lib_a-printf.o) (_impure_ptr)
/opt/altera/13.0sp1/nios2eds/bin/gnu/H-i686-pc-linux-gnu/bin/../lib/gcc/nios2-elf/4.1.2/../../../../nios2-elf/lib/mno-hw-mul/libc.a(lib_a-locale.o)
                              /opt/altera/13.0sp1/nios2eds/bin/gnu/H-i686-pc-linux-gnu/bin/../lib/gcc/nios2-elf/4.1.2/../../../../nios2-elf/lib/mno-hw-mul/libc.a(lib_a-vfprintf.o) (_localeconv_r)
/opt/altera/13.0sp1/nios2eds/bin/gnu/H-i686-pc-linux-gnu/bin/../lib/gcc/nios2-elf/4.1.2/../../../../nios2-elf/lib/mno-hw-mul/libc.a(lib_a-makebuf.o)
                              /opt/altera/13.0sp1/nios2eds/bin/gnu/H-i686-pc-linux-gnu/bin/../lib/gcc/nios2-elf/4.1.2/../../../../nios2-elf/lib/mno-hw-mul/libc.a(lib_a-wsetup.o) (__smakebuf_r)
/opt/altera/13.0sp1/nios2eds/bin/gnu/H-i686-pc-linux-gnu/bin/../lib/gcc/nios2-elf/4.1.2/../../../../nios2-elf/lib/mno-hw-mul/libc.a(lib_a-mallocr.o)
                              /opt/altera/13.0sp1/nios2eds/bin/gnu/H-i686-pc-linux-gnu/bin/../lib/gcc/nios2-elf/4.1.2/../../../../nios2-elf/lib/mno-hw-mul/libc.a(lib_a-findfp.o) (_malloc_r)
/opt/altera/13.0sp1/nios2eds/bin/gnu/H-i686-pc-linux-gnu/bin/../lib/gcc/nios2-elf/4.1.2/../../../../nios2-elf/lib/mno-hw-mul/libc.a(lib_a-memchr.o)
                              /opt/altera/13.0sp1/nios2eds/bin/gnu/H-i686-pc-linux-gnu/bin/../lib/gcc/nios2-elf/4.1.2/../../../../nios2-elf/lib/mno-hw-mul/libc.a(lib_a-vfprintf.o) (memchr)
/opt/altera/13.0sp1/nios2eds/bin/gnu/H-i686-pc-linux-gnu/bin/../lib/gcc/nios2-elf/4.1.2/../../../../nios2-elf/lib/mno-hw-mul/libc.a(lib_a-memcpy.o)
                              /opt/altera/13.0sp1/nios2eds/bin/gnu/H-i686-pc-linux-gnu/bin/../lib/gcc/nios2-elf/4.1.2/../../../../nios2-elf/lib/mno-hw-mul/libc.a(lib_a-dtoa.o) (memcpy)
/opt/altera/13.0sp1/nios2eds/bin/gnu/H-i686-pc-linux-gnu/bin/../lib/gcc/nios2-elf/4.1.2/../../../../nios2-elf/lib/mno-hw-mul/libc.a(lib_a-memmove.o)
                              /opt/altera/13.0sp1/nios2eds/bin/gnu/H-i686-pc-linux-gnu/bin/../lib/gcc/nios2-elf/4.1.2/../../../../nios2-elf/lib/mno-hw-mul/libc.a(lib_a-fvwrite.o) (memmove)
/opt/altera/13.0sp1/nios2eds/bin/gnu/H-i686-pc-linux-gnu/bin/../lib/gcc/nios2-elf/4.1.2/../../../../nios2-elf/lib/mno-hw-mul/libc.a(lib_a-memset.o)
                              /opt/altera/13.0sp1/nios2eds/bin/gnu/H-i686-pc-linux-gnu/bin/../lib/gcc/nios2-elf/4.1.2/../../../../nios2-elf/lib/mno-hw-mul/libc.a(lib_a-findfp.o) (memset)
/opt/altera/13.0sp1/nios2eds/bin/gnu/H-i686-pc-linux-gnu/bin/../lib/gcc/nios2-elf/4.1.2/../../../../nios2-elf/lib/mno-hw-mul/libc.a(lib_a-mprec.o)
                              /opt/altera/13.0sp1/nios2eds/bin/gnu/H-i686-pc-linux-gnu/bin/../lib/gcc/nios2-elf/4.1.2/../../../../nios2-elf/lib/mno-hw-mul/libc.a(lib_a-dtoa.o) (_Bfree)
/opt/altera/13.0sp1/nios2eds/bin/gnu/H-i686-pc-linux-gnu/bin/../lib/gcc/nios2-elf/4.1.2/../../../../nios2-elf/lib/mno-hw-mul/libc.a(lib_a-reallocr.o)
                              /opt/altera/13.0sp1/nios2eds/bin/gnu/H-i686-pc-linux-gnu/bin/../lib/gcc/nios2-elf/4.1.2/../../../../nios2-elf/lib/mno-hw-mul/libc.a(lib_a-fvwrite.o) (_realloc_r)
/opt/altera/13.0sp1/nios2eds/bin/gnu/H-i686-pc-linux-gnu/bin/../lib/gcc/nios2-elf/4.1.2/../../../../nios2-elf/lib/mno-hw-mul/libc.a(lib_a-s_isinfd.o)
                              /opt/altera/13.0sp1/nios2eds/bin/gnu/H-i686-pc-linux-gnu/bin/../lib/gcc/nios2-elf/4.1.2/../../../../nios2-elf/lib/mno-hw-mul/libc.a(lib_a-vfprintf.o) (__isinfd)
/opt/altera/13.0sp1/nios2eds/bin/gnu/H-i686-pc-linux-gnu/bin/../lib/gcc/nios2-elf/4.1.2/../../../../nios2-elf/lib/mno-hw-mul/libc.a(lib_a-s_isnand.o)
                              /opt/altera/13.0sp1/nios2eds/bin/gnu/H-i686-pc-linux-gnu/bin/../lib/gcc/nios2-elf/4.1.2/../../../../nios2-elf/lib/mno-hw-mul/libc.a(lib_a-vfprintf.o) (__isnand)
/opt/altera/13.0sp1/nios2eds/bin/gnu/H-i686-pc-linux-gnu/bin/../lib/gcc/nios2-elf/4.1.2/../../../../nios2-elf/lib/mno-hw-mul/libc.a(lib_a-sbrkr.o)
                              /opt/altera/13.0sp1/nios2eds/bin/gnu/H-i686-pc-linux-gnu/bin/../lib/gcc/nios2-elf/4.1.2/../../../../nios2-elf/lib/mno-hw-mul/libc.a(lib_a-freer.o) (_sbrk_r)
/opt/altera/13.0sp1/nios2eds/bin/gnu/H-i686-pc-linux-gnu/bin/../lib/gcc/nios2-elf/4.1.2/../../../../nios2-elf/lib/mno-hw-mul/libc.a(lib_a-stdio.o)
                              /opt/altera/13.0sp1/nios2eds/bin/gnu/H-i686-pc-linux-gnu/bin/../lib/gcc/nios2-elf/4.1.2/../../../../nios2-elf/lib/mno-hw-mul/libc.a(lib_a-findfp.o) (__sclose)
/opt/altera/13.0sp1/nios2eds/bin/gnu/H-i686-pc-linux-gnu/bin/../lib/gcc/nios2-elf/4.1.2/../../../../nios2-elf/lib/mno-hw-mul/libc.a(lib_a-strcmp.o)
                              /opt/altera/13.0sp1/nios2eds/bin/gnu/H-i686-pc-linux-gnu/bin/../lib/gcc/nios2-elf/4.1.2/../../../../nios2-elf/lib/mno-hw-mul/libc.a(lib_a-locale.o) (strcmp)
/opt/altera/13.0sp1/nios2eds/bin/gnu/H-i686-pc-linux-gnu/bin/../lib/gcc/nios2-elf/4.1.2/../../../../nios2-elf/lib/mno-hw-mul/libc.a(lib_a-writer.o)
                              /opt/altera/13.0sp1/nios2eds/bin/gnu/H-i686-pc-linux-gnu/bin/../lib/gcc/nios2-elf/4.1.2/../../../../nios2-elf/lib/mno-hw-mul/libc.a(lib_a-stdio.o) (_write_r)
/opt/altera/13.0sp1/nios2eds/bin/gnu/H-i686-pc-linux-gnu/bin/../lib/gcc/nios2-elf/4.1.2/../../../../nios2-elf/lib/mno-hw-mul/libc.a(lib_a-callocr.o)
                              /opt/altera/13.0sp1/nios2eds/bin/gnu/H-i686-pc-linux-gnu/bin/../lib/gcc/nios2-elf/4.1.2/../../../../nios2-elf/lib/mno-hw-mul/libc.a(lib_a-mprec.o) (_calloc_r)
/opt/altera/13.0sp1/nios2eds/bin/gnu/H-i686-pc-linux-gnu/bin/../lib/gcc/nios2-elf/4.1.2/../../../../nios2-elf/lib/mno-hw-mul/libc.a(lib_a-closer.o)
                              /opt/altera/13.0sp1/nios2eds/bin/gnu/H-i686-pc-linux-gnu/bin/../lib/gcc/nios2-elf/4.1.2/../../../../nios2-elf/lib/mno-hw-mul/libc.a(lib_a-stdio.o) (_close_r)
/opt/altera/13.0sp1/nios2eds/bin/gnu/H-i686-pc-linux-gnu/bin/../lib/gcc/nios2-elf/4.1.2/../../../../nios2-elf/lib/mno-hw-mul/libc.a(lib_a-fclose.o)
                              /opt/altera/13.0sp1/nios2eds/bin/gnu/H-i686-pc-linux-gnu/bin/../lib/gcc/nios2-elf/4.1.2/../../../../nios2-elf/lib/mno-hw-mul/libc.a(lib_a-findfp.o) (fclose)
/opt/altera/13.0sp1/nios2eds/bin/gnu/H-i686-pc-linux-gnu/bin/../lib/gcc/nios2-elf/4.1.2/../../../../nios2-elf/lib/mno-hw-mul/libc.a(lib_a-fstatr.o)
                              /opt/altera/13.0sp1/nios2eds/bin/gnu/H-i686-pc-linux-gnu/bin/../lib/gcc/nios2-elf/4.1.2/../../../../nios2-elf/lib/mno-hw-mul/libc.a(lib_a-makebuf.o) (_fstat_r)
/opt/altera/13.0sp1/nios2eds/bin/gnu/H-i686-pc-linux-gnu/bin/../lib/gcc/nios2-elf/4.1.2/../../../../nios2-elf/lib/mno-hw-mul/libc.a(lib_a-int_errno.o)
                              /opt/altera/13.0sp1/nios2eds/bin/gnu/H-i686-pc-linux-gnu/bin/../lib/gcc/nios2-elf/4.1.2/../../../../nios2-elf/lib/mno-hw-mul/libc.a(lib_a-sbrkr.o) (errno)
/opt/altera/13.0sp1/nios2eds/bin/gnu/H-i686-pc-linux-gnu/bin/../lib/gcc/nios2-elf/4.1.2/../../../../nios2-elf/lib/mno-hw-mul/libc.a(lib_a-isattyr.o)
                              /opt/altera/13.0sp1/nios2eds/bin/gnu/H-i686-pc-linux-gnu/bin/../lib/gcc/nios2-elf/4.1.2/../../../../nios2-elf/lib/mno-hw-mul/libc.a(lib_a-makebuf.o) (_isatty_r)
/opt/altera/13.0sp1/nios2eds/bin/gnu/H-i686-pc-linux-gnu/bin/../lib/gcc/nios2-elf/4.1.2/../../../../nios2-elf/lib/mno-hw-mul/libc.a(lib_a-lseekr.o)
                              /opt/altera/13.0sp1/nios2eds/bin/gnu/H-i686-pc-linux-gnu/bin/../lib/gcc/nios2-elf/4.1.2/../../../../nios2-elf/lib/mno-hw-mul/libc.a(lib_a-stdio.o) (_lseek_r)
/opt/altera/13.0sp1/nios2eds/bin/gnu/H-i686-pc-linux-gnu/bin/../lib/gcc/nios2-elf/4.1.2/../../../../nios2-elf/lib/mno-hw-mul/libc.a(lib_a-readr.o)
                              /opt/altera/13.0sp1/nios2eds/bin/gnu/H-i686-pc-linux-gnu/bin/../lib/gcc/nios2-elf/4.1.2/../../../../nios2-elf/lib/mno-hw-mul/libc.a(lib_a-stdio.o) (_read_r)
/opt/altera/13.0sp1/nios2eds/bin/gnu/H-i686-pc-linux-gnu/bin/../lib/gcc/nios2-elf/4.1.2/mno-hw-mul/libgcc.a(_udivdi3.o)
                              /opt/altera/13.0sp1/nios2eds/bin/gnu/H-i686-pc-linux-gnu/bin/../lib/gcc/nios2-elf/4.1.2/../../../../nios2-elf/lib/mno-hw-mul/libc.a(lib_a-vfprintf.o) (__udivdi3)
/opt/altera/13.0sp1/nios2eds/bin/gnu/H-i686-pc-linux-gnu/bin/../lib/gcc/nios2-elf/4.1.2/mno-hw-mul/libgcc.a(_umoddi3.o)
                              /opt/altera/13.0sp1/nios2eds/bin/gnu/H-i686-pc-linux-gnu/bin/../lib/gcc/nios2-elf/4.1.2/../../../../nios2-elf/lib/mno-hw-mul/libc.a(lib_a-vfprintf.o) (__umoddi3)
/opt/altera/13.0sp1/nios2eds/bin/gnu/H-i686-pc-linux-gnu/bin/../lib/gcc/nios2-elf/4.1.2/mno-hw-mul/libgcc.a(_mul_df.o)
                              /opt/altera/13.0sp1/nios2eds/bin/gnu/H-i686-pc-linux-gnu/bin/../lib/gcc/nios2-elf/4.1.2/../../../../nios2-elf/lib/mno-hw-mul/libc.a(lib_a-dtoa.o) (__muldf3)
/opt/altera/13.0sp1/nios2eds/bin/gnu/H-i686-pc-linux-gnu/bin/../lib/gcc/nios2-elf/4.1.2/mno-hw-mul/libgcc.a(_eq_df.o)
                              /opt/altera/13.0sp1/nios2eds/bin/gnu/H-i686-pc-linux-gnu/bin/../lib/gcc/nios2-elf/4.1.2/../../../../nios2-elf/lib/mno-hw-mul/libc.a(lib_a-vfprintf.o) (__eqdf2)
/opt/altera/13.0sp1/nios2eds/bin/gnu/H-i686-pc-linux-gnu/bin/../lib/gcc/nios2-elf/4.1.2/mno-hw-mul/libgcc.a(_ne_df.o)
                              /opt/altera/13.0sp1/nios2eds/bin/gnu/H-i686-pc-linux-gnu/bin/../lib/gcc/nios2-elf/4.1.2/../../../../nios2-elf/lib/mno-hw-mul/libc.a(lib_a-vfprintf.o) (__nedf2)
/opt/altera/13.0sp1/nios2eds/bin/gnu/H-i686-pc-linux-gnu/bin/../lib/gcc/nios2-elf/4.1.2/mno-hw-mul/libgcc.a(_gt_df.o)
                              /opt/altera/13.0sp1/nios2eds/bin/gnu/H-i686-pc-linux-gnu/bin/../lib/gcc/nios2-elf/4.1.2/../../../../nios2-elf/lib/mno-hw-mul/libc.a(lib_a-dtoa.o) (__gtdf2)
/opt/altera/13.0sp1/nios2eds/bin/gnu/H-i686-pc-linux-gnu/bin/../lib/gcc/nios2-elf/4.1.2/mno-hw-mul/libgcc.a(_ge_df.o)
                              /opt/altera/13.0sp1/nios2eds/bin/gnu/H-i686-pc-linux-gnu/bin/../lib/gcc/nios2-elf/4.1.2/../../../../nios2-elf/lib/mno-hw-mul/libc.a(lib_a-dtoa.o) (__gedf2)
/opt/altera/13.0sp1/nios2eds/bin/gnu/H-i686-pc-linux-gnu/bin/../lib/gcc/nios2-elf/4.1.2/mno-hw-mul/libgcc.a(_lt_df.o)
                              /opt/altera/13.0sp1/nios2eds/bin/gnu/H-i686-pc-linux-gnu/bin/../lib/gcc/nios2-elf/4.1.2/../../../../nios2-elf/lib/mno-hw-mul/libc.a(lib_a-vfprintf.o) (__ltdf2)
/opt/altera/13.0sp1/nios2eds/bin/gnu/H-i686-pc-linux-gnu/bin/../lib/gcc/nios2-elf/4.1.2/mno-hw-mul/libgcc.a(_usi_to_df.o)
                              /opt/altera/13.0sp1/nios2eds/bin/gnu/H-i686-pc-linux-gnu/bin/../lib/gcc/nios2-elf/4.1.2/../../../../nios2-elf/lib/mno-hw-mul/libc.a(lib_a-dtoa.o) (__floatunsidf)
/opt/altera/13.0sp1/nios2eds/bin/gnu/H-i686-pc-linux-gnu/bin/../lib/gcc/nios2-elf/4.1.2/mno-hw-mul/libgcc.a(_muldi3.o)
                              /opt/altera/13.0sp1/nios2eds/bin/gnu/H-i686-pc-linux-gnu/bin/../lib/gcc/nios2-elf/4.1.2/mno-hw-mul/libgcc.a(_mul_df.o) (__muldi3)
/opt/altera/13.0sp1/nios2eds/bin/gnu/H-i686-pc-linux-gnu/bin/../lib/gcc/nios2-elf/4.1.2/mno-hw-mul/libgcc.a(_fpcmp_parts_df.o)
                              /opt/altera/13.0sp1/nios2eds/bin/gnu/H-i686-pc-linux-gnu/bin/../lib/gcc/nios2-elf/4.1.2/mno-hw-mul/libgcc.a(_eq_df.o) (__fpcmp_parts_d)
../lab2_cruisecontrol_bsp//libucosii_bsp.a(alt_alarm_start.o)
                              obj/default/cruise_skeleton.o (alt_alarm_start)
../lab2_cruisecontrol_bsp//libucosii_bsp.a(alt_close.o)
                              /opt/altera/13.0sp1/nios2eds/bin/gnu/H-i686-pc-linux-gnu/bin/../lib/gcc/nios2-elf/4.1.2/../../../../nios2-elf/lib/mno-hw-mul/libc.a(lib_a-closer.o) (close)
../lab2_cruisecontrol_bsp//libucosii_bsp.a(alt_dev.o)
                              ../lab2_cruisecontrol_bsp//libucosii_bsp.a(alt_close.o) (alt_fd_list)
../lab2_cruisecontrol_bsp//libucosii_bsp.a(alt_errno.o)
                              ../lab2_cruisecontrol_bsp//libucosii_bsp.a(alt_close.o) (alt_errno)
../lab2_cruisecontrol_bsp//libucosii_bsp.a(alt_fstat.o)
                              /opt/altera/13.0sp1/nios2eds/bin/gnu/H-i686-pc-linux-gnu/bin/../lib/gcc/nios2-elf/4.1.2/../../../../nios2-elf/lib/mno-hw-mul/libc.a(lib_a-fstatr.o) (fstat)
../lab2_cruisecontrol_bsp//libucosii_bsp.a(alt_isatty.o)
                              /opt/altera/13.0sp1/nios2eds/bin/gnu/H-i686-pc-linux-gnu/bin/../lib/gcc/nios2-elf/4.1.2/../../../../nios2-elf/lib/mno-hw-mul/libc.a(lib_a-isattyr.o) (isatty)
../lab2_cruisecontrol_bsp//libucosii_bsp.a(alt_load.o)
                              ../lab2_cruisecontrol_bsp//obj/HAL/src/crt0.o (alt_load)
../lab2_cruisecontrol_bsp//libucosii_bsp.a(alt_lseek.o)
                              /opt/altera/13.0sp1/nios2eds/bin/gnu/H-i686-pc-linux-gnu/bin/../lib/gcc/nios2-elf/4.1.2/../../../../nios2-elf/lib/mno-hw-mul/libc.a(lib_a-lseekr.o) (lseek)
../lab2_cruisecontrol_bsp//libucosii_bsp.a(alt_main.o)
                              ../lab2_cruisecontrol_bsp//obj/HAL/src/crt0.o (alt_main)
../lab2_cruisecontrol_bsp//libucosii_bsp.a(alt_read.o)
                              /opt/altera/13.0sp1/nios2eds/bin/gnu/H-i686-pc-linux-gnu/bin/../lib/gcc/nios2-elf/4.1.2/../../../../nios2-elf/lib/mno-hw-mul/libc.a(lib_a-readr.o) (read)
../lab2_cruisecontrol_bsp//libucosii_bsp.a(alt_release_fd.o)
                              ../lab2_cruisecontrol_bsp//libucosii_bsp.a(alt_close.o) (alt_release_fd)
../lab2_cruisecontrol_bsp//libucosii_bsp.a(alt_sbrk.o)
                              /opt/altera/13.0sp1/nios2eds/bin/gnu/H-i686-pc-linux-gnu/bin/../lib/gcc/nios2-elf/4.1.2/../../../../nios2-elf/lib/mno-hw-mul/libc.a(lib_a-sbrkr.o) (sbrk)
../lab2_cruisecontrol_bsp//libucosii_bsp.a(alt_tick.o)
                              obj/default/cruise_skeleton.o (_alt_tick_rate)
../lab2_cruisecontrol_bsp//libucosii_bsp.a(alt_write.o)
                              /opt/altera/13.0sp1/nios2eds/bin/gnu/H-i686-pc-linux-gnu/bin/../lib/gcc/nios2-elf/4.1.2/../../../../nios2-elf/lib/mno-hw-mul/libc.a(lib_a-writer.o) (write)
../lab2_cruisecontrol_bsp//libucosii_bsp.a(alt_env_lock.o)
                              ../lab2_cruisecontrol_bsp//libucosii_bsp.a(alt_main.o) (alt_envsem)
../lab2_cruisecontrol_bsp//libucosii_bsp.a(alt_malloc_lock.o)
                              /opt/altera/13.0sp1/nios2eds/bin/gnu/H-i686-pc-linux-gnu/bin/../lib/gcc/nios2-elf/4.1.2/../../../../nios2-elf/lib/mno-hw-mul/libc.a(lib_a-freer.o) (__malloc_lock)
../lab2_cruisecontrol_bsp//libucosii_bsp.a(os_core.o)
                              ../lab2_cruisecontrol_bsp//libucosii_bsp.a(alt_main.o) (OSInit)
../lab2_cruisecontrol_bsp//libucosii_bsp.a(os_dbg.o)
                              ../lab2_cruisecontrol_bsp//libucosii_bsp.a(os_core.o) (OSDebugInit)
../lab2_cruisecontrol_bsp//libucosii_bsp.a(os_flag.o)
                              ../lab2_cruisecontrol_bsp//libucosii_bsp.a(os_core.o) (OS_FlagInit)
../lab2_cruisecontrol_bsp//libucosii_bsp.a(os_mbox.o)
                              obj/default/cruise_skeleton.o (OSMboxCreate)
../lab2_cruisecontrol_bsp//libucosii_bsp.a(os_mem.o)
                              ../lab2_cruisecontrol_bsp//libucosii_bsp.a(os_core.o) (OS_MemInit)
../lab2_cruisecontrol_bsp//libucosii_bsp.a(os_q.o)
                              ../lab2_cruisecontrol_bsp//libucosii_bsp.a(os_core.o) (OS_QInit)
../lab2_cruisecontrol_bsp//libucosii_bsp.a(os_sem.o)
                              obj/default/cruise_skeleton.o (OSSemCreate)
../lab2_cruisecontrol_bsp//libucosii_bsp.a(os_task.o)
                              obj/default/cruise_skeleton.o (OSTaskCreateExt)
../lab2_cruisecontrol_bsp//libucosii_bsp.a(os_time.o)
                              ../lab2_cruisecontrol_bsp//libucosii_bsp.a(os_core.o) (OSTimeDly)
../lab2_cruisecontrol_bsp//libucosii_bsp.a(os_tmr.o)
                              obj/default/cruise_skeleton.o (OSTmrCreate)
../lab2_cruisecontrol_bsp//libucosii_bsp.a(alt_sys_init.o)
                              ../lab2_cruisecontrol_bsp//libucosii_bsp.a(alt_main.o) (alt_irq_init)
../lab2_cruisecontrol_bsp//libucosii_bsp.a(altera_avalon_jtag_uart_fd.o)
                              ../lab2_cruisecontrol_bsp//libucosii_bsp.a(alt_sys_init.o) (altera_avalon_jtag_uart_read_fd)
../lab2_cruisecontrol_bsp//libucosii_bsp.a(altera_avalon_jtag_uart_init.o)
                              ../lab2_cruisecontrol_bsp//libucosii_bsp.a(alt_sys_init.o) (altera_avalon_jtag_uart_init)
../lab2_cruisecontrol_bsp//libucosii_bsp.a(altera_avalon_jtag_uart_ioctl.o)
                              ../lab2_cruisecontrol_bsp//libucosii_bsp.a(altera_avalon_jtag_uart_fd.o) (altera_avalon_jtag_uart_ioctl)
../lab2_cruisecontrol_bsp//libucosii_bsp.a(altera_avalon_jtag_uart_read.o)
                              ../lab2_cruisecontrol_bsp//libucosii_bsp.a(altera_avalon_jtag_uart_fd.o) (altera_avalon_jtag_uart_read)
../lab2_cruisecontrol_bsp//libucosii_bsp.a(altera_avalon_jtag_uart_write.o)
                              ../lab2_cruisecontrol_bsp//libucosii_bsp.a(altera_avalon_jtag_uart_fd.o) (altera_avalon_jtag_uart_write)
../lab2_cruisecontrol_bsp//libucosii_bsp.a(altera_avalon_timer_sc.o)
                              ../lab2_cruisecontrol_bsp//libucosii_bsp.a(alt_sys_init.o) (alt_avalon_timer_sc_init)
../lab2_cruisecontrol_bsp//libucosii_bsp.a(altera_up_avalon_character_lcd.o)
                              ../lab2_cruisecontrol_bsp//libucosii_bsp.a(alt_sys_init.o) (alt_up_character_lcd_init)
../lab2_cruisecontrol_bsp//libucosii_bsp.a(alt_dcache_flush_all.o)
                              ../lab2_cruisecontrol_bsp//libucosii_bsp.a(alt_load.o) (alt_dcache_flush_all)
../lab2_cruisecontrol_bsp//libucosii_bsp.a(alt_dev_llist_insert.o)
                              ../lab2_cruisecontrol_bsp//libucosii_bsp.a(alt_sys_init.o) (alt_dev_llist_insert)
../lab2_cruisecontrol_bsp//libucosii_bsp.a(alt_do_ctors.o)
                              ../lab2_cruisecontrol_bsp//libucosii_bsp.a(alt_main.o) (_do_ctors)
../lab2_cruisecontrol_bsp//libucosii_bsp.a(alt_do_dtors.o)
                              ../lab2_cruisecontrol_bsp//libucosii_bsp.a(alt_main.o) (_do_dtors)
../lab2_cruisecontrol_bsp//libucosii_bsp.a(alt_find_dev.o)
                              ../lab2_cruisecontrol_bsp//libucosii_bsp.a(altera_up_avalon_character_lcd.o) (alt_find_dev)
../lab2_cruisecontrol_bsp//libucosii_bsp.a(alt_icache_flush_all.o)
                              ../lab2_cruisecontrol_bsp//libucosii_bsp.a(alt_load.o) (alt_icache_flush_all)
../lab2_cruisecontrol_bsp//libucosii_bsp.a(alt_iic.o)
                              ../lab2_cruisecontrol_bsp//libucosii_bsp.a(altera_avalon_jtag_uart_init.o) (alt_ic_isr_register)
../lab2_cruisecontrol_bsp//libucosii_bsp.a(alt_iic_isr_register.o)
                              ../lab2_cruisecontrol_bsp//libucosii_bsp.a(alt_iic.o) (alt_iic_isr_register)
../lab2_cruisecontrol_bsp//libucosii_bsp.a(alt_io_redirect.o)
                              ../lab2_cruisecontrol_bsp//libucosii_bsp.a(alt_main.o) (alt_io_redirect)
../lab2_cruisecontrol_bsp//libucosii_bsp.a(alt_irq_entry.o)
                              ../lab2_cruisecontrol_bsp//libucosii_bsp.a(alt_iic_isr_register.o) (alt_irq_entry)
../lab2_cruisecontrol_bsp//libucosii_bsp.a(alt_irq_handler.o)
                              ../lab2_cruisecontrol_bsp//libucosii_bsp.a(alt_iic_isr_register.o) (alt_irq_handler)
../lab2_cruisecontrol_bsp//libucosii_bsp.a(alt_irq_vars.o)
                              ../lab2_cruisecontrol_bsp//libucosii_bsp.a(alt_iic.o) (alt_irq_active)
../lab2_cruisecontrol_bsp//libucosii_bsp.a(alt_open.o)
                              ../lab2_cruisecontrol_bsp//libucosii_bsp.a(alt_io_redirect.o) (open)
../lab2_cruisecontrol_bsp//libucosii_bsp.a(altera_nios2_qsys_irq.o)
                              ../lab2_cruisecontrol_bsp//libucosii_bsp.a(alt_sys_init.o) (altera_nios2_qsys_irq_init)
../lab2_cruisecontrol_bsp//libucosii_bsp.a(os_cpu_a.o)
                              ../lab2_cruisecontrol_bsp//libucosii_bsp.a(os_core.o) (OSIntCtxSw)
../lab2_cruisecontrol_bsp//libucosii_bsp.a(os_cpu_c.o)
                              ../lab2_cruisecontrol_bsp//libucosii_bsp.a(os_task.o) (OSTaskStkInit)
../lab2_cruisecontrol_bsp//libucosii_bsp.a(alt_exception_entry.o)
                              ../lab2_cruisecontrol_bsp//libucosii_bsp.a(alt_irq_entry.o) (alt_exception)
../lab2_cruisecontrol_bsp//libucosii_bsp.a(alt_find_file.o)
                              ../lab2_cruisecontrol_bsp//libucosii_bsp.a(alt_open.o) (alt_find_file)
../lab2_cruisecontrol_bsp//libucosii_bsp.a(alt_get_fd.o)
                              ../lab2_cruisecontrol_bsp//libucosii_bsp.a(alt_open.o) (alt_get_fd)
/opt/altera/13.0sp1/nios2eds/bin/gnu/H-i686-pc-linux-gnu/bin/../lib/gcc/nios2-elf/4.1.2/../../../../nios2-elf/lib/mno-hw-mul/libc.a(lib_a-atexit.o)
                              ../lab2_cruisecontrol_bsp//libucosii_bsp.a(alt_main.o) (atexit)
/opt/altera/13.0sp1/nios2eds/bin/gnu/H-i686-pc-linux-gnu/bin/../lib/gcc/nios2-elf/4.1.2/../../../../nios2-elf/lib/mno-hw-mul/libc.a(lib_a-exit.o)
                              ../lab2_cruisecontrol_bsp//libucosii_bsp.a(alt_main.o) (exit)
/opt/altera/13.0sp1/nios2eds/bin/gnu/H-i686-pc-linux-gnu/bin/../lib/gcc/nios2-elf/4.1.2/../../../../nios2-elf/lib/mno-hw-mul/libc.a(lib_a-memcmp.o)
                              ../lab2_cruisecontrol_bsp//libucosii_bsp.a(alt_find_dev.o) (memcmp)
/opt/altera/13.0sp1/nios2eds/bin/gnu/H-i686-pc-linux-gnu/bin/../lib/gcc/nios2-elf/4.1.2/../../../../nios2-elf/lib/mno-hw-mul/libc.a(lib_a-__atexit.o)
                              /opt/altera/13.0sp1/nios2eds/bin/gnu/H-i686-pc-linux-gnu/bin/../lib/gcc/nios2-elf/4.1.2/../../../../nios2-elf/lib/mno-hw-mul/libc.a(lib_a-atexit.o) (__register_exitproc)
/opt/altera/13.0sp1/nios2eds/bin/gnu/H-i686-pc-linux-gnu/bin/../lib/gcc/nios2-elf/4.1.2/../../../../nios2-elf/lib/mno-hw-mul/libc.a(lib_a-__call_atexit.o)
                              /opt/altera/13.0sp1/nios2eds/bin/gnu/H-i686-pc-linux-gnu/bin/../lib/gcc/nios2-elf/4.1.2/../../../../nios2-elf/lib/mno-hw-mul/libc.a(lib_a-exit.o) (__call_exitprocs)
/opt/altera/13.0sp1/nios2eds/bin/gnu/H-i686-pc-linux-gnu/bin/../lib/gcc/nios2-elf/4.1.2/mno-hw-mul/libgcc.a(_fixunsdfsi.o)
                              ../lab2_cruisecontrol_bsp//libucosii_bsp.a(os_time.o) (__fixunsdfsi)
../lab2_cruisecontrol_bsp//libucosii_bsp.a(alt_exit.o)
                              /opt/altera/13.0sp1/nios2eds/bin/gnu/H-i686-pc-linux-gnu/bin/../lib/gcc/nios2-elf/4.1.2/../../../../nios2-elf/lib/mno-hw-mul/libc.a(lib_a-exit.o) (_exit)

Allocating common symbols
Common symbol       size              file

OSTmrFreeList       0x4               ../lab2_cruisecontrol_bsp//libucosii_bsp.a(os_core.o)
alt_irq             0x100             ../lab2_cruisecontrol_bsp//libucosii_bsp.a(alt_irq_handler.o)
SwitchIO_Stack      0x2000            obj/default/cruise_skeleton.o
task_prio           0x1               obj/default/cruise_skeleton.o
OSTmrWheelTbl       0x10              ../lab2_cruisecontrol_bsp//libucosii_bsp.a(os_core.o)
Mbox_Throttle       0x4               obj/default/cruise_skeleton.o
OSLockNesting       0x1               ../lab2_cruisecontrol_bsp//libucosii_bsp.a(os_core.o)
OSTmrSemSignal      0x4               ../lab2_cruisecontrol_bsp//libucosii_bsp.a(os_core.o)
OSRunning           0x1               ../lab2_cruisecontrol_bsp//libucosii_bsp.a(os_core.o)
OSIdleCtr           0x4               ../lab2_cruisecontrol_bsp//libucosii_bsp.a(os_core.o)
OSTmrUsed           0x2               ../lab2_cruisecontrol_bsp//libucosii_bsp.a(os_core.o)
OSPrioHighRdy       0x1               ../lab2_cruisecontrol_bsp//libucosii_bsp.a(os_core.o)
errno               0x4               /opt/altera/13.0sp1/nios2eds/bin/gnu/H-i686-pc-linux-gnu/bin/../lib/gcc/nios2-elf/4.1.2/../../../../nios2-elf/lib/mno-hw-mul/libc.a(lib_a-int_errno.o)
alt_heapsem         0x4               ../lab2_cruisecontrol_bsp//libucosii_bsp.a(alt_malloc_lock.o)
OSFlagTbl           0x370             ../lab2_cruisecontrol_bsp//libucosii_bsp.a(os_core.o)
Mbox_Velocity       0x4               obj/default/cruise_skeleton.o
OSTmrTbl            0x340             ../lab2_cruisecontrol_bsp//libucosii_bsp.a(os_core.o)
ControlTask_Stack   0x2000            obj/default/cruise_skeleton.o
OSPrioCur           0x1               ../lab2_cruisecontrol_bsp//libucosii_bsp.a(os_core.o)
OSTCBList           0x4               ../lab2_cruisecontrol_bsp//libucosii_bsp.a(os_core.o)
alt_fd_list_lock    0x4               ../lab2_cruisecontrol_bsp//libucosii_bsp.a(alt_dev.o)
OSMemTbl            0xc30             ../lab2_cruisecontrol_bsp//libucosii_bsp.a(os_core.o)
OSTickStepState     0x1               ../lab2_cruisecontrol_bsp//libucosii_bsp.a(os_core.o)
OSTaskStatStk       0x800             ../lab2_cruisecontrol_bsp//libucosii_bsp.a(os_core.o)
OSCtxSwCtr          0x4               ../lab2_cruisecontrol_bsp//libucosii_bsp.a(os_core.o)
OSTmrFree           0x2               ../lab2_cruisecontrol_bsp//libucosii_bsp.a(os_core.o)
OSIdleCtrMax        0x4               ../lab2_cruisecontrol_bsp//libucosii_bsp.a(os_core.o)
Timer               0x4               obj/default/cruise_skeleton.o
OSTCBFreeList       0x4               ../lab2_cruisecontrol_bsp//libucosii_bsp.a(os_core.o)
VehicleTask_Stack   0x2000            obj/default/cruise_skeleton.o
ButtonsIO_Stack     0x2000            obj/default/cruise_skeleton.o
OSCPUUsage          0x1               ../lab2_cruisecontrol_bsp//libucosii_bsp.a(os_core.o)
OSTaskCtr           0x1               ../lab2_cruisecontrol_bsp//libucosii_bsp.a(os_core.o)
OSMemFreeList       0x4               ../lab2_cruisecontrol_bsp//libucosii_bsp.a(os_core.o)
OSQTbl              0x1e0             ../lab2_cruisecontrol_bsp//libucosii_bsp.a(os_core.o)
OSTCBHighRdy        0x4               ../lab2_cruisecontrol_bsp//libucosii_bsp.a(os_core.o)
OSQFreeList         0x4               ../lab2_cruisecontrol_bsp//libucosii_bsp.a(os_core.o)
OSRdyGrp            0x1               ../lab2_cruisecontrol_bsp//libucosii_bsp.a(os_core.o)
_atexit0            0x190             /opt/altera/13.0sp1/nios2eds/bin/gnu/H-i686-pc-linux-gnu/bin/../lib/gcc/nios2-elf/4.1.2/../../../../nios2-elf/lib/mno-hw-mul/libc.a(lib_a-atexit.o)
StartTask_Stack     0x2000            obj/default/cruise_skeleton.o
OSRdyTbl            0x3               ../lab2_cruisecontrol_bsp//libucosii_bsp.a(os_core.o)
delay               0x4               obj/default/cruise_skeleton.o
OSTmrTaskStk        0x800             ../lab2_cruisecontrol_bsp//libucosii_bsp.a(os_core.o)
OSEventFreeList     0x4               ../lab2_cruisecontrol_bsp//libucosii_bsp.a(os_core.o)
OSIntNesting        0x1               ../lab2_cruisecontrol_bsp//libucosii_bsp.a(os_core.o)
OSTCBCur            0x4               ../lab2_cruisecontrol_bsp//libucosii_bsp.a(os_core.o)
OSTmrTime           0x4               ../lab2_cruisecontrol_bsp//libucosii_bsp.a(os_core.o)
OSTime              0x4               ../lab2_cruisecontrol_bsp//libucosii_bsp.a(os_core.o)
OSTmrSem            0x4               ../lab2_cruisecontrol_bsp//libucosii_bsp.a(os_core.o)
OSTaskIdleStk       0x800             ../lab2_cruisecontrol_bsp//libucosii_bsp.a(os_core.o)
OSEventTbl          0xb40             ../lab2_cruisecontrol_bsp//libucosii_bsp.a(os_core.o)
OSTCBTbl            0x510             ../lab2_cruisecontrol_bsp//libucosii_bsp.a(os_core.o)
OSFlagFreeList      0x4               ../lab2_cruisecontrol_bsp//libucosii_bsp.a(os_core.o)
OSStatRdy           0x1               ../lab2_cruisecontrol_bsp//libucosii_bsp.a(os_core.o)
OSTCBPrioTbl        0x54              ../lab2_cruisecontrol_bsp//libucosii_bsp.a(os_core.o)
alt_envsem          0x4               ../lab2_cruisecontrol_bsp//libucosii_bsp.a(alt_env_lock.o)
Sem_Timer           0x4               obj/default/cruise_skeleton.o
OSIdleCtrRun        0x4               ../lab2_cruisecontrol_bsp//libucosii_bsp.a(os_core.o)

Memory Configuration

Name             Origin             Length             Attributes
onchip_memory    0x00000000         0x00006400
sram             0x00100000         0x00080000
reset            0x01000000         0x00000020
sdram            0x01000020         0x007fffe0
*default*        0x00000000         0xffffffff

Linker script and memory map

LOAD ../lab2_cruisecontrol_bsp//obj/HAL/src/crt0.o
LOAD obj/default/cruise_skeleton.o
LOAD /opt/altera/13.0sp1/nios2eds/bin/gnu/H-i686-pc-linux-gnu/bin/../lib/gcc/nios2-elf/4.1.2/../../../../nios2-elf/lib/mno-hw-mul/libstdc++.a
LOAD /opt/altera/13.0sp1/nios2eds/bin/gnu/H-i686-pc-linux-gnu/bin/../lib/gcc/nios2-elf/4.1.2/../../../../nios2-elf/lib/mno-hw-mul/libm.a
LOAD /opt/altera/13.0sp1/nios2eds/bin/gnu/H-i686-pc-linux-gnu/bin/../lib/gcc/nios2-elf/4.1.2/mno-hw-mul/libgcc.a
START GROUP
LOAD /opt/altera/13.0sp1/nios2eds/bin/gnu/H-i686-pc-linux-gnu/bin/../lib/gcc/nios2-elf/4.1.2/../../../../nios2-elf/lib/mno-hw-mul/libc.a
LOAD /opt/altera/13.0sp1/nios2eds/bin/gnu/H-i686-pc-linux-gnu/bin/../lib/gcc/nios2-elf/4.1.2/mno-hw-mul/libgcc.a
LOAD ../lab2_cruisecontrol_bsp//libucosii_bsp.a
END GROUP
LOAD /opt/altera/13.0sp1/nios2eds/bin/gnu/H-i686-pc-linux-gnu/bin/../lib/gcc/nios2-elf/4.1.2/mno-hw-mul/libgcc.a
                0x00000000                __alt_mem_onchip_memory = 0x0
                0x00100000                __alt_mem_sram = 0x100000
                0x01000000                __alt_mem_sdram = 0x1000000

.entry          0x01000000       0x20
 *(.entry)
 .entry         0x01000000       0x20 ../lab2_cruisecontrol_bsp//obj/HAL/src/crt0.o
                0x01000000                __reset

.exceptions     0x01000020      0x19c
                0x01000020                PROVIDE (__ram_exceptions_start, ABSOLUTE (.))
                0x01000020                . = ALIGN (0x20)
 *(.irq)
 *(.exceptions.entry.label)
 .exceptions.entry.label
                0x01000020        0x0 ../lab2_cruisecontrol_bsp//libucosii_bsp.a(alt_irq_entry.o)
                0x01000020                alt_irq_entry
 .exceptions.entry.label
                0x01000020        0x0 ../lab2_cruisecontrol_bsp//libucosii_bsp.a(alt_exception_entry.o)
                0x01000020                alt_exception
 *(.exceptions.entry.user)
 *(.exceptions.entry)
 .exceptions.entry
                0x01000020       0x54 ../lab2_cruisecontrol_bsp//libucosii_bsp.a(alt_exception_entry.o)
 *(.exceptions.irqtest.user)
 *(.exceptions.irqtest)
 .exceptions.irqtest
                0x01000074       0x10 ../lab2_cruisecontrol_bsp//libucosii_bsp.a(alt_irq_entry.o)
 *(.exceptions.irqhandler.user)
 *(.exceptions.irqhandler)
 .exceptions.irqhandler
                0x01000084        0x4 ../lab2_cruisecontrol_bsp//libucosii_bsp.a(alt_irq_entry.o)
 *(.exceptions.irqreturn.user)
 *(.exceptions.irqreturn)
 .exceptions.irqreturn
                0x01000088        0x4 ../lab2_cruisecontrol_bsp//libucosii_bsp.a(alt_irq_entry.o)
 *(.exceptions.notirq.label)
 .exceptions.notirq.label
                0x0100008c        0x0 ../lab2_cruisecontrol_bsp//libucosii_bsp.a(alt_irq_entry.o)
 *(.exceptions.notirq.user)
 *(.exceptions.notirq)
 .exceptions.notirq
                0x0100008c        0x8 ../lab2_cruisecontrol_bsp//libucosii_bsp.a(alt_exception_entry.o)
 *(.exceptions.soft.user)
 *(.exceptions.soft)
 *(.exceptions.unknown.user)
 *(.exceptions.unknown)
 .exceptions.unknown
                0x01000094        0x4 ../lab2_cruisecontrol_bsp//libucosii_bsp.a(alt_exception_entry.o)
 *(.exceptions.exit.label)
 .exceptions.exit.label
                0x01000098        0x0 ../lab2_cruisecontrol_bsp//libucosii_bsp.a(alt_irq_entry.o)
 .exceptions.exit.label
                0x01000098        0x0 ../lab2_cruisecontrol_bsp//libucosii_bsp.a(alt_exception_entry.o)
 *(.exceptions.exit.user)
 *(.exceptions.exit)
 .exceptions.exit
                0x01000098       0x54 ../lab2_cruisecontrol_bsp//libucosii_bsp.a(alt_exception_entry.o)
 *(.exceptions)
 .exceptions    0x010000ec       0xd0 ../lab2_cruisecontrol_bsp//libucosii_bsp.a(alt_irq_handler.o)
                0x010000ec                alt_irq_handler
                0x010001bc                PROVIDE (__ram_exceptions_end, ABSOLUTE (.))
                0x01000020                PROVIDE (__flash_exceptions_start, LOADADDR (.exceptions))

.text           0x010001bc    0x18de0
                0x010001bc                PROVIDE (stext, ABSOLUTE (.))
 *(.interp)
 *(.hash)
 *(.dynsym)
 *(.dynstr)
 *(.gnu.version)
 *(.gnu.version_d)
 *(.gnu.version_r)
 *(.rel.init)
 *(.rela.init)
 *(.rel.text .rel.text.* .rel.gnu.linkonce.t.*)
 *(.rela.text .rela.text.* .rela.gnu.linkonce.t.*)
 *(.rel.fini)
 *(.rela.fini)
 *(.rel.rodata .rel.rodata.* .rel.gnu.linkonce.r.*)
 *(.rela.rodata .rela.rodata.* .rela.gnu.linkonce.r.*)
 *(.rel.data .rel.data.* .rel.gnu.linkonce.d.*)
 *(.rela.data .rela.data.* .rela.gnu.linkonce.d.*)
 *(.rel.tdata .rel.tdata.* .rel.gnu.linkonce.td.*)
 *(.rela.tdata .rela.tdata.* .rela.gnu.linkonce.td.*)
 *(.rel.tbss .rel.tbss.* .rel.gnu.linkonce.tb.*)
 *(.rela.tbss .rela.tbss.* .rela.gnu.linkonce.tb.*)
 *(.rel.ctors)
 *(.rela.ctors)
 *(.rel.dtors)
 *(.rela.dtors)
 *(.rel.got)
 *(.rela.got)
 *(.rel.sdata .rel.sdata.* .rel.gnu.linkonce.s.*)
 *(.rela.sdata .rela.sdata.* .rela.gnu.linkonce.s.*)
 *(.rel.sbss .rel.sbss.* .rel.gnu.linkonce.sb.*)
 *(.rela.sbss .rela.sbss.* .rela.gnu.linkonce.sb.*)
 *(.rel.sdata2 .rel.sdata2.* .rel.gnu.linkonce.s2.*)
 *(.rela.sdata2 .rela.sdata2.* .rela.gnu.linkonce.s2.*)
 *(.rel.sbss2 .rel.sbss2.* .rel.gnu.linkonce.sb2.*)
 *(.rela.sbss2 .rela.sbss2.* .rela.gnu.linkonce.sb2.*)
 *(.rel.bss .rel.bss.* .rel.gnu.linkonce.b.*)
 *(.rela.bss .rela.bss.* .rela.gnu.linkonce.b.*)
 *(.rel.plt)
 *(.rela.plt)
 *(.rel.dyn)
 *(.init)
 *(.plt)
 *(.text .stub .text.* .gnu.linkonce.t.*)
 .text          0x010001bc       0x3c ../lab2_cruisecontrol_bsp//obj/HAL/src/crt0.o
                0x010001bc                _start
 .text          0x010001f8     0x1098 obj/default/cruise_skeleton.o
                0x010001f8                buttons_pressed
                0x01000220                switches_pressed
                0x01000244                alarm_handler
                0x01000274                int2seven
                0x010002b0                show_velocity_on_sevenseg
                0x010003a0                show_target_velocity
                0x0100044c                show_position
                0x010004cc                adjust_position
                0x010005d8                adjust_velocity
                0x01000718                TmrCallback
                0x01000750                VehicleTask
                0x01000a44                ControlTask
                0x01000e38                SwitchIO
                0x01000ef8                ButtonsIO
                0x01000fdc                StartTask
                0x01001214                main
 .text          0x01001290       0x98 /opt/altera/13.0sp1/nios2eds/bin/gnu/H-i686-pc-linux-gnu/bin/../lib/gcc/nios2-elf/4.1.2/mno-hw-mul/libgcc.a(_si_to_sf.o)
                0x01001290                __floatsisf
 .text          0x01001328       0x54 /opt/altera/13.0sp1/nios2eds/bin/gnu/H-i686-pc-linux-gnu/bin/../lib/gcc/nios2-elf/4.1.2/mno-hw-mul/libgcc.a(_sf_to_df.o)
                0x01001328                __extendsfdf2
 .text          0x0100137c      0x504 /opt/altera/13.0sp1/nios2eds/bin/gnu/H-i686-pc-linux-gnu/bin/../lib/gcc/nios2-elf/4.1.2/mno-hw-mul/libgcc.a(_addsub_df.o)
                0x0100178c                __subdf3
                0x0100180c                __adddf3
 .text          0x01001880      0x258 /opt/altera/13.0sp1/nios2eds/bin/gnu/H-i686-pc-linux-gnu/bin/../lib/gcc/nios2-elf/4.1.2/mno-hw-mul/libgcc.a(_div_df.o)
                0x01001880                __divdf3
 .text          0x01001ad8       0xf8 /opt/altera/13.0sp1/nios2eds/bin/gnu/H-i686-pc-linux-gnu/bin/../lib/gcc/nios2-elf/4.1.2/mno-hw-mul/libgcc.a(_si_to_df.o)
                0x01001ad8                __floatsidf
 .text          0x01001bd0       0xd8 /opt/altera/13.0sp1/nios2eds/bin/gnu/H-i686-pc-linux-gnu/bin/../lib/gcc/nios2-elf/4.1.2/mno-hw-mul/libgcc.a(_df_to_si.o)
                0x01001bd0                __fixdfsi
 .text          0x01001ca8       0x38 /opt/altera/13.0sp1/nios2eds/bin/gnu/H-i686-pc-linux-gnu/bin/../lib/gcc/nios2-elf/4.1.2/mno-hw-mul/libgcc.a(_make_df.o)
                0x01001ca8                __make_dp
 .text          0x01001ce0        0x0 /opt/altera/13.0sp1/nios2eds/bin/gnu/H-i686-pc-linux-gnu/bin/../lib/gcc/nios2-elf/4.1.2/mno-hw-mul/libgcc.a(_thenan_df.o)
 .text          0x01001ce0      0x14c /opt/altera/13.0sp1/nios2eds/bin/gnu/H-i686-pc-linux-gnu/bin/../lib/gcc/nios2-elf/4.1.2/mno-hw-mul/libgcc.a(lib2-divmod.o)
                0x01001d5c                __divsi3
                0x01001dbc                __modsi3
                0x01001e1c                __udivsi3
                0x01001e24                __umodsi3
 .text          0x01001e2c       0x38 /opt/altera/13.0sp1/nios2eds/bin/gnu/H-i686-pc-linux-gnu/bin/../lib/gcc/nios2-elf/4.1.2/mno-hw-mul/libgcc.a(lib2-mul.o)
                0x01001e2c                __mulsi3
 .text          0x01001e64       0x80 /opt/altera/13.0sp1/nios2eds/bin/gnu/H-i686-pc-linux-gnu/bin/../lib/gcc/nios2-elf/4.1.2/mno-hw-mul/libgcc.a(_clzsi2.o)
                0x01001e64                __clzsi2
 .text          0x01001ee4      0x160 /opt/altera/13.0sp1/nios2eds/bin/gnu/H-i686-pc-linux-gnu/bin/../lib/gcc/nios2-elf/4.1.2/mno-hw-mul/libgcc.a(_pack_sf.o)
                0x01001ee4                __pack_f
 .text          0x01002044       0xc8 /opt/altera/13.0sp1/nios2eds/bin/gnu/H-i686-pc-linux-gnu/bin/../lib/gcc/nios2-elf/4.1.2/mno-hw-mul/libgcc.a(_unpack_sf.o)
                0x01002044                __unpack_f
 .text          0x0100210c      0x314 /opt/altera/13.0sp1/nios2eds/bin/gnu/H-i686-pc-linux-gnu/bin/../lib/gcc/nios2-elf/4.1.2/mno-hw-mul/libgcc.a(_pack_df.o)
                0x0100210c                __pack_d
 .text          0x01002420      0x138 /opt/altera/13.0sp1/nios2eds/bin/gnu/H-i686-pc-linux-gnu/bin/../lib/gcc/nios2-elf/4.1.2/mno-hw-mul/libgcc.a(_unpack_df.o)
                0x01002420                __unpack_d
 .text          0x01002558        0x0 /opt/altera/13.0sp1/nios2eds/bin/gnu/H-i686-pc-linux-gnu/bin/../lib/gcc/nios2-elf/4.1.2/mno-hw-mul/libgcc.a(_clz.o)
 .text          0x01002558       0x78 /opt/altera/13.0sp1/nios2eds/bin/gnu/H-i686-pc-linux-gnu/bin/../lib/gcc/nios2-elf/4.1.2/../../../../nios2-elf/lib/mno-hw-mul/libc.a(lib_a-printf.o)
                0x01002558                printf
                0x0100259c                _printf_r
 .text          0x010025d0       0xb4 /opt/altera/13.0sp1/nios2eds/bin/gnu/H-i686-pc-linux-gnu/bin/../lib/gcc/nios2-elf/4.1.2/../../../../nios2-elf/lib/mno-hw-mul/libc.a(lib_a-puts.o)
                0x010025d0                _puts_r
                0x01002670                puts
 .text          0x01002684       0x74 /opt/altera/13.0sp1/nios2eds/bin/gnu/H-i686-pc-linux-gnu/bin/../lib/gcc/nios2-elf/4.1.2/../../../../nios2-elf/lib/mno-hw-mul/libc.a(lib_a-strlen.o)
                0x01002684                strlen
 .text          0x010026f8     0x1f40 /opt/altera/13.0sp1/nios2eds/bin/gnu/H-i686-pc-linux-gnu/bin/../lib/gcc/nios2-elf/4.1.2/../../../../nios2-elf/lib/mno-hw-mul/libc.a(lib_a-vfprintf.o)
                0x01002750                ___vfprintf_internal_r
                0x01004614                __vfprintf_internal
 .text          0x01004638      0x13c /opt/altera/13.0sp1/nios2eds/bin/gnu/H-i686-pc-linux-gnu/bin/../lib/gcc/nios2-elf/4.1.2/../../../../nios2-elf/lib/mno-hw-mul/libc.a(lib_a-wsetup.o)
                0x01004638                __swsetup_r
 .text          0x01004774     0x17f8 /opt/altera/13.0sp1/nios2eds/bin/gnu/H-i686-pc-linux-gnu/bin/../lib/gcc/nios2-elf/4.1.2/../../../../nios2-elf/lib/mno-hw-mul/libc.a(lib_a-dtoa.o)
                0x010049b8                _dtoa_r
 .text          0x01005f6c      0x230 /opt/altera/13.0sp1/nios2eds/bin/gnu/H-i686-pc-linux-gnu/bin/../lib/gcc/nios2-elf/4.1.2/../../../../nios2-elf/lib/mno-hw-mul/libc.a(lib_a-fflush.o)
                0x01005f6c                _fflush_r
                0x01006168                fflush
 .text          0x0100619c      0x2f4 /opt/altera/13.0sp1/nios2eds/bin/gnu/H-i686-pc-linux-gnu/bin/../lib/gcc/nios2-elf/4.1.2/../../../../nios2-elf/lib/mno-hw-mul/libc.a(lib_a-findfp.o)
                0x010061f4                __sfp_lock_acquire
                0x010061f8                __sfp_lock_release
                0x010061fc                __sinit_lock_acquire
                0x01006200                __sinit_lock_release
                0x01006204                __sinit
                0x010062b8                __fp_unlock_all
                0x010062d0                __fp_lock_all
                0x010062e8                _cleanup_r
                0x010062f4                _cleanup
                0x01006304                __sfmoreglue
                0x010063a0                __sfp
 .text          0x01006490      0x440 /opt/altera/13.0sp1/nios2eds/bin/gnu/H-i686-pc-linux-gnu/bin/../lib/gcc/nios2-elf/4.1.2/../../../../nios2-elf/lib/mno-hw-mul/libc.a(lib_a-freer.o)
                0x01006490                _malloc_trim_r
                0x010065bc                _free_r
 .text          0x010068d0      0x49c /opt/altera/13.0sp1/nios2eds/bin/gnu/H-i686-pc-linux-gnu/bin/../lib/gcc/nios2-elf/4.1.2/../../../../nios2-elf/lib/mno-hw-mul/libc.a(lib_a-fvwrite.o)
                0x010068d0                __sfvwrite_r
 .text          0x01006d6c      0x180 /opt/altera/13.0sp1/nios2eds/bin/gnu/H-i686-pc-linux-gnu/bin/../lib/gcc/nios2-elf/4.1.2/../../../../nios2-elf/lib/mno-hw-mul/libc.a(lib_a-fwalk.o)
                0x01006d6c                _fwalk_reent
                0x01006e34                _fwalk
 .text          0x01006eec        0x0 /opt/altera/13.0sp1/nios2eds/bin/gnu/H-i686-pc-linux-gnu/bin/../lib/gcc/nios2-elf/4.1.2/../../../../nios2-elf/lib/mno-hw-mul/libc.a(lib_a-impure.o)
 .text          0x01006eec       0xc4 /opt/altera/13.0sp1/nios2eds/bin/gnu/H-i686-pc-linux-gnu/bin/../lib/gcc/nios2-elf/4.1.2/../../../../nios2-elf/lib/mno-hw-mul/libc.a(lib_a-locale.o)
                0x01006eec                __locale_charset
                0x01006ef4                _localeconv_r
                0x01006f00                localeconv
                0x01006f10                _setlocale_r
                0x01006f94                setlocale
 .text          0x01006fb0      0x194 /opt/altera/13.0sp1/nios2eds/bin/gnu/H-i686-pc-linux-gnu/bin/../lib/gcc/nios2-elf/4.1.2/../../../../nios2-elf/lib/mno-hw-mul/libc.a(lib_a-makebuf.o)
                0x01006fb0                __smakebuf_r
 .text          0x01007144      0x740 /opt/altera/13.0sp1/nios2eds/bin/gnu/H-i686-pc-linux-gnu/bin/../lib/gcc/nios2-elf/4.1.2/../../../../nios2-elf/lib/mno-hw-mul/libc.a(lib_a-mallocr.o)
                0x01007144                _malloc_r
 .text          0x01007884       0xe4 /opt/altera/13.0sp1/nios2eds/bin/gnu/H-i686-pc-linux-gnu/bin/../lib/gcc/nios2-elf/4.1.2/../../../../nios2-elf/lib/mno-hw-mul/libc.a(lib_a-memchr.o)
                0x01007884                memchr
 .text          0x01007968       0xa0 /opt/altera/13.0sp1/nios2eds/bin/gnu/H-i686-pc-linux-gnu/bin/../lib/gcc/nios2-elf/4.1.2/../../../../nios2-elf/lib/mno-hw-mul/libc.a(lib_a-memcpy.o)
                0x01007968                memcpy
 .text          0x01007a08       0xe0 /opt/altera/13.0sp1/nios2eds/bin/gnu/H-i686-pc-linux-gnu/bin/../lib/gcc/nios2-elf/4.1.2/../../../../nios2-elf/lib/mno-hw-mul/libc.a(lib_a-memmove.o)
                0x01007a08                memmove
 .text          0x01007ae8       0x98 /opt/altera/13.0sp1/nios2eds/bin/gnu/H-i686-pc-linux-gnu/bin/../lib/gcc/nios2-elf/4.1.2/../../../../nios2-elf/lib/mno-hw-mul/libc.a(lib_a-memset.o)
                0x01007ae8                memset
 .text          0x01007b80     0x108c /opt/altera/13.0sp1/nios2eds/bin/gnu/H-i686-pc-linux-gnu/bin/../lib/gcc/nios2-elf/4.1.2/../../../../nios2-elf/lib/mno-hw-mul/libc.a(lib_a-mprec.o)
                0x01007b80                _Bfree
                0x01007ba8                __hi0bits
                0x01007c18                __lo0bits
                0x01007cdc                __mcmp
                0x01007d3c                __ulp
                0x01007dbc                __b2d
                0x01007edc                __ratio
                0x01007f8c                _mprec_log10
                0x01008020                __copybits
                0x01008078                __any_on
                0x01008100                _Balloc
                0x010081bc                __d2b
                0x01008338                __mdiff
                0x010084c4                __lshift
                0x01008610                __multiply
                0x01008864                __i2b
                0x010088a0                __multadd
                0x010089cc                __pow5mult
                0x01008aec                __s2b
 .text          0x01008c0c      0x5f4 /opt/altera/13.0sp1/nios2eds/bin/gnu/H-i686-pc-linux-gnu/bin/../lib/gcc/nios2-elf/4.1.2/../../../../nios2-elf/lib/mno-hw-mul/libc.a(lib_a-reallocr.o)
                0x01008c0c                _realloc_r
 .text          0x01009200       0x40 /opt/altera/13.0sp1/nios2eds/bin/gnu/H-i686-pc-linux-gnu/bin/../lib/gcc/nios2-elf/4.1.2/../../../../nios2-elf/lib/mno-hw-mul/libc.a(lib_a-s_isinfd.o)
                0x01009200                __isinfd
 .text          0x01009240       0x30 /opt/altera/13.0sp1/nios2eds/bin/gnu/H-i686-pc-linux-gnu/bin/../lib/gcc/nios2-elf/4.1.2/../../../../nios2-elf/lib/mno-hw-mul/libc.a(lib_a-s_isnand.o)
                0x01009240                __isnand
 .text          0x01009270       0x70 /opt/altera/13.0sp1/nios2eds/bin/gnu/H-i686-pc-linux-gnu/bin/../lib/gcc/nios2-elf/4.1.2/../../../../nios2-elf/lib/mno-hw-mul/libc.a(lib_a-sbrkr.o)
                0x01009270                _sbrk_r
 .text          0x010092e0      0x14c /opt/altera/13.0sp1/nios2eds/bin/gnu/H-i686-pc-linux-gnu/bin/../lib/gcc/nios2-elf/4.1.2/../../../../nios2-elf/lib/mno-hw-mul/libc.a(lib_a-stdio.o)
                0x010092e0                __sclose
                0x010092e8                __sseek
                0x01009350                __swrite
                0x010093cc                __sread
 .text          0x0100942c       0xbc /opt/altera/13.0sp1/nios2eds/bin/gnu/H-i686-pc-linux-gnu/bin/../lib/gcc/nios2-elf/4.1.2/../../../../nios2-elf/lib/mno-hw-mul/libc.a(lib_a-strcmp.o)
                0x0100942c                strcmp
 .text          0x010094e8       0x78 /opt/altera/13.0sp1/nios2eds/bin/gnu/H-i686-pc-linux-gnu/bin/../lib/gcc/nios2-elf/4.1.2/../../../../nios2-elf/lib/mno-hw-mul/libc.a(lib_a-writer.o)
                0x010094e8                _write_r
 .text          0x01009560       0xc8 /opt/altera/13.0sp1/nios2eds/bin/gnu/H-i686-pc-linux-gnu/bin/../lib/gcc/nios2-elf/4.1.2/../../../../nios2-elf/lib/mno-hw-mul/libc.a(lib_a-callocr.o)
                0x01009560                _calloc_r
 .text          0x01009628       0x70 /opt/altera/13.0sp1/nios2eds/bin/gnu/H-i686-pc-linux-gnu/bin/../lib/gcc/nios2-elf/4.1.2/../../../../nios2-elf/lib/mno-hw-mul/libc.a(lib_a-closer.o)
                0x01009628                _close_r
 .text          0x01009698      0x124 /opt/altera/13.0sp1/nios2eds/bin/gnu/H-i686-pc-linux-gnu/bin/../lib/gcc/nios2-elf/4.1.2/../../../../nios2-elf/lib/mno-hw-mul/libc.a(lib_a-fclose.o)
                0x01009698                _fclose_r
                0x010097a8                fclose
 .text          0x010097bc       0x74 /opt/altera/13.0sp1/nios2eds/bin/gnu/H-i686-pc-linux-gnu/bin/../lib/gcc/nios2-elf/4.1.2/../../../../nios2-elf/lib/mno-hw-mul/libc.a(lib_a-fstatr.o)
                0x010097bc                _fstat_r
 .text          0x01009830        0x0 /opt/altera/13.0sp1/nios2eds/bin/gnu/H-i686-pc-linux-gnu/bin/../lib/gcc/nios2-elf/4.1.2/../../../../nios2-elf/lib/mno-hw-mul/libc.a(lib_a-int_errno.o)
 .text          0x01009830       0x70 /opt/altera/13.0sp1/nios2eds/bin/gnu/H-i686-pc-linux-gnu/bin/../lib/gcc/nios2-elf/4.1.2/../../../../nios2-elf/lib/mno-hw-mul/libc.a(lib_a-isattyr.o)
                0x01009830                _isatty_r
 .text          0x010098a0       0x78 /opt/altera/13.0sp1/nios2eds/bin/gnu/H-i686-pc-linux-gnu/bin/../lib/gcc/nios2-elf/4.1.2/../../../../nios2-elf/lib/mno-hw-mul/libc.a(lib_a-lseekr.o)
                0x010098a0                _lseek_r
 .text          0x01009918       0x78 /opt/altera/13.0sp1/nios2eds/bin/gnu/H-i686-pc-linux-gnu/bin/../lib/gcc/nios2-elf/4.1.2/../../../../nios2-elf/lib/mno-hw-mul/libc.a(lib_a-readr.o)
                0x01009918                _read_r
 .text          0x01009990      0x66c /opt/altera/13.0sp1/nios2eds/bin/gnu/H-i686-pc-linux-gnu/bin/../lib/gcc/nios2-elf/4.1.2/mno-hw-mul/libgcc.a(_udivdi3.o)
                0x01009990                __udivdi3
 .text          0x01009ffc      0x660 /opt/altera/13.0sp1/nios2eds/bin/gnu/H-i686-pc-linux-gnu/bin/../lib/gcc/nios2-elf/4.1.2/mno-hw-mul/libgcc.a(_umoddi3.o)
                0x01009ffc                __umoddi3
 .text          0x0100a65c      0x3c4 /opt/altera/13.0sp1/nios2eds/bin/gnu/H-i686-pc-linux-gnu/bin/../lib/gcc/nios2-elf/4.1.2/mno-hw-mul/libgcc.a(_mul_df.o)
                0x0100a65c                __muldf3
 .text          0x0100aa20       0x88 /opt/altera/13.0sp1/nios2eds/bin/gnu/H-i686-pc-linux-gnu/bin/../lib/gcc/nios2-elf/4.1.2/mno-hw-mul/libgcc.a(_eq_df.o)
                0x0100aa20                __eqdf2
 .text          0x0100aaa8       0x88 /opt/altera/13.0sp1/nios2eds/bin/gnu/H-i686-pc-linux-gnu/bin/../lib/gcc/nios2-elf/4.1.2/mno-hw-mul/libgcc.a(_ne_df.o)
                0x0100aaa8                __nedf2
 .text          0x0100ab30       0x88 /opt/altera/13.0sp1/nios2eds/bin/gnu/H-i686-pc-linux-gnu/bin/../lib/gcc/nios2-elf/4.1.2/mno-hw-mul/libgcc.a(_gt_df.o)
                0x0100ab30                __gtdf2
 .text          0x0100abb8       0x88 /opt/altera/13.0sp1/nios2eds/bin/gnu/H-i686-pc-linux-gnu/bin/../lib/gcc/nios2-elf/4.1.2/mno-hw-mul/libgcc.a(_ge_df.o)
                0x0100abb8                __gedf2
 .text          0x0100ac40       0x88 /opt/altera/13.0sp1/nios2eds/bin/gnu/H-i686-pc-linux-gnu/bin/../lib/gcc/nios2-elf/4.1.2/mno-hw-mul/libgcc.a(_lt_df.o)
                0x0100ac40                __ltdf2
 .text          0x0100acc8      0x194 /opt/altera/13.0sp1/nios2eds/bin/gnu/H-i686-pc-linux-gnu/bin/../lib/gcc/nios2-elf/4.1.2/mno-hw-mul/libgcc.a(_usi_to_df.o)
                0x0100acc8                __floatunsidf
 .text          0x0100ae5c      0x124 /opt/altera/13.0sp1/nios2eds/bin/gnu/H-i686-pc-linux-gnu/bin/../lib/gcc/nios2-elf/4.1.2/mno-hw-mul/libgcc.a(_muldi3.o)
                0x0100ae5c                __muldi3
 .text          0x0100af80       0xc8 /opt/altera/13.0sp1/nios2eds/bin/gnu/H-i686-pc-linux-gnu/bin/../lib/gcc/nios2-elf/4.1.2/mno-hw-mul/libgcc.a(_fpcmp_parts_df.o)
                0x0100af80                __fpcmp_parts_d
 .text          0x0100b048      0x154 ../lab2_cruisecontrol_bsp//libucosii_bsp.a(alt_alarm_start.o)
                0x0100b048                alt_alarm_start
 .text          0x0100b19c      0x160 ../lab2_cruisecontrol_bsp//libucosii_bsp.a(alt_close.o)
                0x0100b19c                close
 .text          0x0100b2fc       0x2c ../lab2_cruisecontrol_bsp//libucosii_bsp.a(alt_dev.o)
 .text          0x0100b328        0x0 ../lab2_cruisecontrol_bsp//libucosii_bsp.a(alt_errno.o)
 .text          0x0100b328      0x138 ../lab2_cruisecontrol_bsp//libucosii_bsp.a(alt_fstat.o)
                0x0100b328                fstat
 .text          0x0100b460      0x124 ../lab2_cruisecontrol_bsp//libucosii_bsp.a(alt_isatty.o)
                0x0100b460                isatty
 .text          0x0100b584       0xec ../lab2_cruisecontrol_bsp//libucosii_bsp.a(alt_load.o)
                0x0100b584                alt_load
 .text          0x0100b670      0x154 ../lab2_cruisecontrol_bsp//libucosii_bsp.a(alt_lseek.o)
                0x0100b670                lseek
 .text          0x0100b7c4       0xc8 ../lab2_cruisecontrol_bsp//libucosii_bsp.a(alt_main.o)
                0x0100b7c4                alt_main
 .text          0x0100b88c      0x184 ../lab2_cruisecontrol_bsp//libucosii_bsp.a(alt_read.o)
                0x0100b88c                read
 .text          0x0100ba10       0x78 ../lab2_cruisecontrol_bsp//libucosii_bsp.a(alt_release_fd.o)
                0x0100ba10                alt_release_fd
 .text          0x0100ba88       0xbc ../lab2_cruisecontrol_bsp//libucosii_bsp.a(alt_sbrk.o)
                0x0100ba88                sbrk
 .text          0x0100bb44      0x1a8 ../lab2_cruisecontrol_bsp//libucosii_bsp.a(alt_tick.o)
                0x0100bb44                alt_alarm_stop
                0x0100bbdc                alt_tick
 .text          0x0100bcec      0x184 ../lab2_cruisecontrol_bsp//libucosii_bsp.a(alt_write.o)
                0x0100bcec                write
 .text          0x0100be70      0x108 ../lab2_cruisecontrol_bsp//libucosii_bsp.a(alt_env_lock.o)
                0x0100be70                __env_lock
                0x0100bf1c                __env_unlock
 .text          0x0100bf78      0x1d8 ../lab2_cruisecontrol_bsp//libucosii_bsp.a(alt_malloc_lock.o)
                0x0100bf78                __malloc_lock
                0x0100c080                __malloc_unlock
 .text          0x0100c150     0x212c ../lab2_cruisecontrol_bsp//libucosii_bsp.a(os_core.o)
                0x0100c150                OSEventNameGet
                0x0100c280                OSEventNameSet
                0x0100c3c4                OSEventPendMulti
                0x0100ca78                OSInit
                0x0100cad0                OSIntEnter
                0x0100cb4c                OSIntExit
                0x0100cc4c                OSSchedLock
                0x0100ccd8                OSSchedUnlock
                0x0100cdbc                OSStart
                0x0100ce2c                OSStatInit
                0x0100ced8                OSTimeTick
                0x0100d118                OSVersion
                0x0100d138                OS_Dummy
                0x0100d154                OS_EventTaskRdy
                0x0100d2e8                OS_EventTaskWait
                0x0100d3f8                OS_EventTaskWaitMulti
                0x0100d54c                OS_EventTaskRemove
                0x0100d604                OS_EventTaskRemoveMulti
                0x0100d708                OS_EventWaitListInit
                0x0100dad4                OS_MemClr
                0x0100db28                OS_MemCopy
                0x0100db94                OS_Sched
                0x0100dcd8                OS_StrCopy
                0x0100dd58                OS_StrLen
                0x0100ddb0                OS_TaskIdle
                0x0100de0c                OS_TaskStat
                0x0100ded4                OS_TaskStatStkChk
                0x0100df9c                OS_TCBInit
 .text          0x0100e27c      0x1ec ../lab2_cruisecontrol_bsp//libucosii_bsp.a(os_dbg.o)
                0x0100e27c                OSDebugInit
 .text          0x0100e468     0x193c ../lab2_cruisecontrol_bsp//libucosii_bsp.a(os_flag.o)
                0x0100e468                OSFlagAccept
                0x0100e79c                OSFlagCreate
                0x0100e8d8                OSFlagDel
                0x0100eb80                OSFlagNameGet
                0x0100ecc4                OSFlagNameSet
                0x0100ee18                OSFlagPend
                0x0100f45c                OSFlagPendGetFlagsRdy
                0x0100f4c4                OSFlagPost
                0x0100f86c                OSFlagQuery
                0x0100fb04                OS_FlagInit
                0x0100fcf8                OS_FlagUnlink
 .text          0x0100fda4      0xc8c ../lab2_cruisecontrol_bsp//libucosii_bsp.a(os_mbox.o)
                0x0100fda4                OSMboxAccept
                0x0100fe48                OSMboxCreate
                0x0100ff5c                OSMboxDel
                0x010101fc                OSMboxPend
                0x010104c4                OSMboxPendAbort
                0x01010640                OSMboxPost
                0x01010774                OSMboxPostOpt
                0x01010900                OSMboxQuery
 .text          0x01010a30      0x80c ../lab2_cruisecontrol_bsp//libucosii_bsp.a(os_mem.o)
                0x01010a30                OSMemCreate
                0x01010c4c                OSMemGet
                0x01010d50                OSMemNameGet
                0x01010e5c                OSMemNameSet
                0x01010f7c                OSMemPut
                0x0101106c                OSMemQuery
                0x01011168                OS_MemInit
 .text          0x0101123c     0x1334 ../lab2_cruisecontrol_bsp//libucosii_bsp.a(os_q.o)
                0x0101123c                OSQAccept
                0x01011390                OSQCreate
                0x010115a4                OSQDel
                0x010118a4                OSQFlush
                0x0101196c                OSQPend
                0x01011c8c                OSQPendAbort
                0x01011e08                OSQPost
                0x01011f88                OSQPostFront
                0x01012110                OSQPostOpt
                0x01012344                OSQQuery
                0x010124c4                OS_QInit
 .text          0x01012570      0xbc8 ../lab2_cruisecontrol_bsp//libucosii_bsp.a(os_sem.o)
                0x01012570                OSSemAccept
                0x01012630                OSSemCreate
                0x01012744                OSSemDel
                0x010129e4                OSSemPend
                0x01012c60                OSSemPendAbort
                0x01012ddc                OSSemPost
                0x01012f04                OSSemQuery
                0x01013034                OSSemSet
 .text          0x01013138     0x1a40 ../lab2_cruisecontrol_bsp//libucosii_bsp.a(os_task.o)
                0x01013138                OSTaskChangePrio
                0x010136ac                OSTaskCreate
                0x01013880                OSTaskCreateExt
                0x01013a80                OSTaskDel
                0x01013e8c                OSTaskDelReq
                0x01013ffc                OSTaskNameGet
                0x010141b4                OSTaskNameSet
                0x01014378                OSTaskResume
                0x01014590                OSTaskStkChk
                0x0101478c                OSTaskSuspend
                0x010149b8                OSTaskQuery
                0x01014afc                OS_TaskStkClr
 .text          0x01014b78      0x67c ../lab2_cruisecontrol_bsp//libucosii_bsp.a(os_time.o)
                0x01014b78                OSTimeDly
                0x01014cc4                OSTimeDlyHMSM
                0x01014f1c                OSTimeDlyResume
                0x0101512c                OSTimeGet
                0x01015190                OSTimeSet
 .text          0x010151f4     0x1350 ../lab2_cruisecontrol_bsp//libucosii_bsp.a(os_tmr.o)
                0x010151f4                OSTmrCreate
                0x010153d8                OSTmrDel
                0x01015550                OSTmrNameGet
                0x010156bc                OSTmrRemainGet
                0x010158b8                OSTmrStateGet
                0x010159b4                OSTmrStart
                0x01015b34                OSTmrStop
                0x01015d60                OSTmrSignal
                0x01015f28                OSTmr_Init
 .text          0x01016544       0xe8 ../lab2_cruisecontrol_bsp//libucosii_bsp.a(alt_sys_init.o)
                0x01016544                alt_irq_init
                0x01016578                alt_sys_init
 .text          0x0101662c      0x148 ../lab2_cruisecontrol_bsp//libucosii_bsp.a(altera_avalon_jtag_uart_fd.o)
                0x0101662c                altera_avalon_jtag_uart_read_fd
                0x01016684                altera_avalon_jtag_uart_write_fd
                0x010166dc                altera_avalon_jtag_uart_close_fd
                0x01016724                altera_avalon_jtag_uart_ioctl_fd
 .text          0x01016774      0x584 ../lab2_cruisecontrol_bsp//libucosii_bsp.a(altera_avalon_jtag_uart_init.o)
                0x01016774                altera_avalon_jtag_uart_init
                0x01016c84                altera_avalon_jtag_uart_close
 .text          0x01016cf8       0xf4 ../lab2_cruisecontrol_bsp//libucosii_bsp.a(altera_avalon_jtag_uart_ioctl.o)
                0x01016cf8                altera_avalon_jtag_uart_ioctl
 .text          0x01016dec      0x2c0 ../lab2_cruisecontrol_bsp//libucosii_bsp.a(altera_avalon_jtag_uart_read.o)
                0x01016dec                altera_avalon_jtag_uart_read
 .text          0x010170ac      0x2dc ../lab2_cruisecontrol_bsp//libucosii_bsp.a(altera_avalon_jtag_uart_write.o)
                0x010170ac                altera_avalon_jtag_uart_write
 .text          0x01017388      0x100 ../lab2_cruisecontrol_bsp//libucosii_bsp.a(altera_avalon_timer_sc.o)
                0x010173f8                alt_avalon_timer_sc_init
 .text          0x01017488      0x530 ../lab2_cruisecontrol_bsp//libucosii_bsp.a(altera_up_avalon_character_lcd.o)
                0x01017488                get_DDRAM_addr
                0x01017504                alt_up_character_lcd_send_cmd
                0x01017538                alt_up_character_lcd_init
                0x0101756c                alt_up_character_lcd_open_dev
                0x010175ac                alt_up_character_lcd_write
                0x01017624                alt_up_character_lcd_string
                0x0101769c                alt_up_character_lcd_write_fd
                0x010176e8                alt_up_character_lcd_set_cursor_pos
                0x01017760                alt_up_character_lcd_shift_cursor
                0x01017810                alt_up_character_lcd_shift_display
                0x010178c0                alt_up_character_lcd_erase_pos
                0x01017950                alt_up_character_lcd_cursor_off
                0x01017984                alt_up_character_lcd_cursor_blink_on
 .text          0x010179b8       0x1c ../lab2_cruisecontrol_bsp//libucosii_bsp.a(alt_dcache_flush_all.o)
                0x010179b8                alt_dcache_flush_all
 .text          0x010179d4      0x114 ../lab2_cruisecontrol_bsp//libucosii_bsp.a(alt_dev_llist_insert.o)
                0x010179d4                alt_dev_llist_insert
 .text          0x01017ae8       0x64 ../lab2_cruisecontrol_bsp//libucosii_bsp.a(alt_do_ctors.o)
                0x01017ae8                _do_ctors
 .text          0x01017b4c       0x64 ../lab2_cruisecontrol_bsp//libucosii_bsp.a(alt_do_dtors.o)
                0x01017b4c                _do_dtors
 .text          0x01017bb0       0x94 ../lab2_cruisecontrol_bsp//libucosii_bsp.a(alt_find_dev.o)
                0x01017bb0                alt_find_dev
 .text          0x01017c44       0x1c ../lab2_cruisecontrol_bsp//libucosii_bsp.a(alt_icache_flush_all.o)
                0x01017c44                alt_icache_flush_all
 .text          0x01017c60      0x1d4 ../lab2_cruisecontrol_bsp//libucosii_bsp.a(alt_iic.o)
                0x01017c60                alt_ic_isr_register
                0x01017cb0                alt_ic_irq_enable
                0x01017d4c                alt_ic_irq_disable
                0x01017dec                alt_ic_irq_enabled
 .text          0x01017e34       0xf8 ../lab2_cruisecontrol_bsp//libucosii_bsp.a(alt_iic_isr_register.o)
                0x01017e34                alt_iic_isr_register
 .text          0x01017f2c      0x150 ../lab2_cruisecontrol_bsp//libucosii_bsp.a(alt_io_redirect.o)
                0x01018004                alt_io_redirect
 .text          0x0101807c        0x0 ../lab2_cruisecontrol_bsp//libucosii_bsp.a(alt_irq_entry.o)
 .text          0x0101807c        0x0 ../lab2_cruisecontrol_bsp//libucosii_bsp.a(alt_irq_handler.o)
 .text          0x0101807c        0x0 ../lab2_cruisecontrol_bsp//libucosii_bsp.a(alt_irq_vars.o)
 .text          0x0101807c      0x2e4 ../lab2_cruisecontrol_bsp//libucosii_bsp.a(alt_open.o)
                0x01018174                open
 .text          0x01018360       0x20 ../lab2_cruisecontrol_bsp//libucosii_bsp.a(altera_nios2_qsys_irq.o)
                0x01018360                altera_nios2_qsys_irq_init
 .text          0x01018380       0xd0 ../lab2_cruisecontrol_bsp//libucosii_bsp.a(os_cpu_a.o)
                0x01018380                OSCtxSw
                0x01018380                OSIntCtxSw
                0x0101840c                OSStartHighRdy
                0x0101842c                OSStartTsk
 .text          0x01018450      0x46c ../lab2_cruisecontrol_bsp//libucosii_bsp.a(os_cpu_c.o)
                0x01018450                OSTaskStkInit
                0x01018760                OSTaskCreateHook
                0x01018780                OSTaskDelHook
                0x010187a0                OSTaskSwHook
                0x010187bc                OSTaskStatHook
                0x010187d8                OSTimeTickHook
                0x01018844                OSInitHookBegin
                0x01018864                OSInitHookEnd
                0x01018880                OSTaskIdleHook
                0x0101889c                OSTCBInitHook
 .text          0x010188bc        0x0 ../lab2_cruisecontrol_bsp//libucosii_bsp.a(alt_exception_entry.o)
 .text          0x010188bc      0x120 ../lab2_cruisecontrol_bsp//libucosii_bsp.a(alt_find_file.o)
                0x010188bc                alt_find_file
 .text          0x010189dc      0x104 ../lab2_cruisecontrol_bsp//libucosii_bsp.a(alt_get_fd.o)
                0x010189dc                alt_get_fd
 .text          0x01018ae0       0x14 /opt/altera/13.0sp1/nios2eds/bin/gnu/H-i686-pc-linux-gnu/bin/../lib/gcc/nios2-elf/4.1.2/../../../../nios2-elf/lib/mno-hw-mul/libc.a(lib_a-atexit.o)
                0x01018ae0                atexit
 .text          0x01018af4       0x38 /opt/altera/13.0sp1/nios2eds/bin/gnu/H-i686-pc-linux-gnu/bin/../lib/gcc/nios2-elf/4.1.2/../../../../nios2-elf/lib/mno-hw-mul/libc.a(lib_a-exit.o)
                0x01018af4                exit
 .text          0x01018b2c       0x74 /opt/altera/13.0sp1/nios2eds/bin/gnu/H-i686-pc-linux-gnu/bin/../lib/gcc/nios2-elf/4.1.2/../../../../nios2-elf/lib/mno-hw-mul/libc.a(lib_a-memcmp.o)
                0x01018b2c                memcmp
 .text          0x01018ba0      0x134 /opt/altera/13.0sp1/nios2eds/bin/gnu/H-i686-pc-linux-gnu/bin/../lib/gcc/nios2-elf/4.1.2/../../../../nios2-elf/lib/mno-hw-mul/libc.a(lib_a-__atexit.o)
                0x01018ba0                __register_exitproc
 .text          0x01018cd4      0x1b4 /opt/altera/13.0sp1/nios2eds/bin/gnu/H-i686-pc-linux-gnu/bin/../lib/gcc/nios2-elf/4.1.2/../../../../nios2-elf/lib/mno-hw-mul/libc.a(lib_a-__call_atexit.o)
                0x01018cd8                __call_exitprocs
 .text          0x01018e88       0xa4 /opt/altera/13.0sp1/nios2eds/bin/gnu/H-i686-pc-linux-gnu/bin/../lib/gcc/nios2-elf/4.1.2/mno-hw-mul/libgcc.a(_fixunsdfsi.o)
                0x01018e88                __fixunsdfsi
 .text          0x01018f2c       0x6c ../lab2_cruisecontrol_bsp//libucosii_bsp.a(alt_exit.o)
                0x01018f6c                _exit
 *(.gnu.warning.*)
 *(.fini)
                0x01018f98                PROVIDE (__etext, ABSOLUTE (.))
                0x01018f98                PROVIDE (_etext, ABSOLUTE (.))
                0x01018f98                PROVIDE (etext, ABSOLUTE (.))
 *(.eh_frame_hdr)
                0x01018f98                . = ALIGN (0x4)
                0x01018f98                PROVIDE (__preinit_array_start, ABSOLUTE (.))
 *(.preinit_array)
                0x01018f98                PROVIDE (__preinit_array_end, ABSOLUTE (.))
                0x01018f98                PROVIDE (__init_array_start, ABSOLUTE (.))
 *(.init_array)
                0x01018f98                PROVIDE (__init_array_end, ABSOLUTE (.))
                0x01018f98                PROVIDE (__fini_array_start, ABSOLUTE (.))
 *(.fini_array)
                0x01018f98                PROVIDE (__fini_array_end, ABSOLUTE (.))
 *(.eh_frame)
 *(.gcc_except_table)
 *(.dynamic)
                0x01018f98                PROVIDE (__CTOR_LIST__, ABSOLUTE (.))
 *(.ctors)
 *(SORT(.ctors.*))
 .ctors.65535   0x01018f98        0x4 /opt/altera/13.0sp1/nios2eds/bin/gnu/H-i686-pc-linux-gnu/bin/../lib/gcc/nios2-elf/4.1.2/../../../../nios2-elf/lib/mno-hw-mul/libc.a(lib_a-__call_atexit.o)
                0x01018f9c                PROVIDE (__CTOR_END__, ABSOLUTE (.))
                0x01018f9c                PROVIDE (__DTOR_LIST__, ABSOLUTE (.))
 *(.dtors)
 *(SORT(.dtors.*))
                0x01018f9c                PROVIDE (__DTOR_END__, ABSOLUTE (.))
 *(.jcr)
                0x01018f9c                . = ALIGN (0x4)

.rodata         0x01018f9c      0x5c4
                0x01018f9c                PROVIDE (__ram_rodata_start, ABSOLUTE (.))
                0x01018f9c                . = ALIGN (0x4)
 *(.rodata .rodata.* .gnu.linkonce.r.*)
 .rodata        0x01018f9c      0x114 obj/default/cruise_skeleton.o
 .rodata        0x010190b0       0x14 /opt/altera/13.0sp1/nios2eds/bin/gnu/H-i686-pc-linux-gnu/bin/../lib/gcc/nios2-elf/4.1.2/mno-hw-mul/libgcc.a(_thenan_df.o)
                0x010190b0                __thenan_df
 .rodata        0x010190c4      0x100 /opt/altera/13.0sp1/nios2eds/bin/gnu/H-i686-pc-linux-gnu/bin/../lib/gcc/nios2-elf/4.1.2/mno-hw-mul/libgcc.a(_clz.o)
                0x010190c4                __clz_tab
 .rodata.str1.4
                0x010191c4        0x2 /opt/altera/13.0sp1/nios2eds/bin/gnu/H-i686-pc-linux-gnu/bin/../lib/gcc/nios2-elf/4.1.2/../../../../nios2-elf/lib/mno-hw-mul/libc.a(lib_a-puts.o)
                                  0x4 (size before relaxing)
 *fill*         0x010191c6        0x2 00
 .rodata.str1.4
                0x010191c8       0x5e /opt/altera/13.0sp1/nios2eds/bin/gnu/H-i686-pc-linux-gnu/bin/../lib/gcc/nios2-elf/4.1.2/../../../../nios2-elf/lib/mno-hw-mul/libc.a(lib_a-vfprintf.o)
                                 0x60 (size before relaxing)
 .rodata        0x01019226       0x20 /opt/altera/13.0sp1/nios2eds/bin/gnu/H-i686-pc-linux-gnu/bin/../lib/gcc/nios2-elf/4.1.2/../../../../nios2-elf/lib/mno-hw-mul/libc.a(lib_a-vfprintf.o)
 *fill*         0x01019246        0x2 00
 .rodata.str1.4
                0x01019248       0x10 /opt/altera/13.0sp1/nios2eds/bin/gnu/H-i686-pc-linux-gnu/bin/../lib/gcc/nios2-elf/4.1.2/../../../../nios2-elf/lib/mno-hw-mul/libc.a(lib_a-dtoa.o)
                                 0x14 (size before relaxing)
 .rodata.str1.4
                0x01019258        0x2 /opt/altera/13.0sp1/nios2eds/bin/gnu/H-i686-pc-linux-gnu/bin/../lib/gcc/nios2-elf/4.1.2/../../../../nios2-elf/lib/mno-hw-mul/libc.a(lib_a-impure.o)
                                  0x4 (size before relaxing)
 *fill*         0x0101925a        0x2 00
 .rodata.str1.4
                0x0101925c       0x10 /opt/altera/13.0sp1/nios2eds/bin/gnu/H-i686-pc-linux-gnu/bin/../lib/gcc/nios2-elf/4.1.2/../../../../nios2-elf/lib/mno-hw-mul/libc.a(lib_a-locale.o)
                                 0x18 (size before relaxing)
 .rodata        0x0101926c       0x30 /opt/altera/13.0sp1/nios2eds/bin/gnu/H-i686-pc-linux-gnu/bin/../lib/gcc/nios2-elf/4.1.2/../../../../nios2-elf/lib/mno-hw-mul/libc.a(lib_a-locale.o)
 .rodata        0x0101929c      0x124 /opt/altera/13.0sp1/nios2eds/bin/gnu/H-i686-pc-linux-gnu/bin/../lib/gcc/nios2-elf/4.1.2/../../../../nios2-elf/lib/mno-hw-mul/libc.a(lib_a-mprec.o)
                0x0101929c                __mprec_tens
                0x01019364                __mprec_bigtens
                0x0101938c                __mprec_tinytens
 .rodata        0x010193c0        0xc ../lab2_cruisecontrol_bsp//libucosii_bsp.a(alt_dev.o)
 .rodata        0x010193cc       0x14 ../lab2_cruisecontrol_bsp//libucosii_bsp.a(alt_main.o)
 .rodata        0x010193e0      0x120 ../lab2_cruisecontrol_bsp//libucosii_bsp.a(os_core.o)
                0x010193e0                OSUnMapTbl
 .rodata        0x01019500       0x38 ../lab2_cruisecontrol_bsp//libucosii_bsp.a(os_tmr.o)
 .rodata        0x01019538       0x24 ../lab2_cruisecontrol_bsp//libucosii_bsp.a(alt_sys_init.o)
 .rodata        0x0101955c        0x4 ../lab2_cruisecontrol_bsp//libucosii_bsp.a(os_cpu_c.o)
 *(.rodata1)
                0x01019560                . = ALIGN (0x4)
                0x01019560                PROVIDE (__ram_rodata_end, ABSOLUTE (.))
                0x01018f9c                PROVIDE (__flash_rodata_start, LOADADDR (.rodata))

.rwdata         0x01019560     0x1b50 load address 0x0101b0b0
                0x01019560                PROVIDE (__ram_rwdata_start, ABSOLUTE (.))
                0x01019560                . = ALIGN (0x4)
 *(.got.plt)
 *(.got)
 *(.data1)
 *(.data .data.* .gnu.linkonce.d.*)
 .data          0x01019560        0x0 ../lab2_cruisecontrol_bsp//obj/HAL/src/crt0.o
 .data          0x01019560       0x2c obj/default/cruise_skeleton.o
 .data          0x0101958c        0x0 /opt/altera/13.0sp1/nios2eds/bin/gnu/H-i686-pc-linux-gnu/bin/../lib/gcc/nios2-elf/4.1.2/mno-hw-mul/libgcc.a(_si_to_sf.o)
 .data          0x0101958c        0x0 /opt/altera/13.0sp1/nios2eds/bin/gnu/H-i686-pc-linux-gnu/bin/../lib/gcc/nios2-elf/4.1.2/mno-hw-mul/libgcc.a(_sf_to_df.o)
 .data          0x0101958c        0x0 /opt/altera/13.0sp1/nios2eds/bin/gnu/H-i686-pc-linux-gnu/bin/../lib/gcc/nios2-elf/4.1.2/mno-hw-mul/libgcc.a(_addsub_df.o)
 .data          0x0101958c        0x0 /opt/altera/13.0sp1/nios2eds/bin/gnu/H-i686-pc-linux-gnu/bin/../lib/gcc/nios2-elf/4.1.2/mno-hw-mul/libgcc.a(_div_df.o)
 .data          0x0101958c        0x0 /opt/altera/13.0sp1/nios2eds/bin/gnu/H-i686-pc-linux-gnu/bin/../lib/gcc/nios2-elf/4.1.2/mno-hw-mul/libgcc.a(_si_to_df.o)
 .data          0x0101958c        0x0 /opt/altera/13.0sp1/nios2eds/bin/gnu/H-i686-pc-linux-gnu/bin/../lib/gcc/nios2-elf/4.1.2/mno-hw-mul/libgcc.a(_df_to_si.o)
 .data          0x0101958c        0x0 /opt/altera/13.0sp1/nios2eds/bin/gnu/H-i686-pc-linux-gnu/bin/../lib/gcc/nios2-elf/4.1.2/mno-hw-mul/libgcc.a(_make_df.o)
 .data          0x0101958c        0x0 /opt/altera/13.0sp1/nios2eds/bin/gnu/H-i686-pc-linux-gnu/bin/../lib/gcc/nios2-elf/4.1.2/mno-hw-mul/libgcc.a(_thenan_df.o)
 .data          0x0101958c        0x0 /opt/altera/13.0sp1/nios2eds/bin/gnu/H-i686-pc-linux-gnu/bin/../lib/gcc/nios2-elf/4.1.2/mno-hw-mul/libgcc.a(lib2-divmod.o)
 .data          0x0101958c        0x0 /opt/altera/13.0sp1/nios2eds/bin/gnu/H-i686-pc-linux-gnu/bin/../lib/gcc/nios2-elf/4.1.2/mno-hw-mul/libgcc.a(lib2-mul.o)
 .data          0x0101958c        0x0 /opt/altera/13.0sp1/nios2eds/bin/gnu/H-i686-pc-linux-gnu/bin/../lib/gcc/nios2-elf/4.1.2/mno-hw-mul/libgcc.a(_clzsi2.o)
 .data          0x0101958c        0x0 /opt/altera/13.0sp1/nios2eds/bin/gnu/H-i686-pc-linux-gnu/bin/../lib/gcc/nios2-elf/4.1.2/mno-hw-mul/libgcc.a(_pack_sf.o)
 .data          0x0101958c        0x0 /opt/altera/13.0sp1/nios2eds/bin/gnu/H-i686-pc-linux-gnu/bin/../lib/gcc/nios2-elf/4.1.2/mno-hw-mul/libgcc.a(_unpack_sf.o)
 .data          0x0101958c        0x0 /opt/altera/13.0sp1/nios2eds/bin/gnu/H-i686-pc-linux-gnu/bin/../lib/gcc/nios2-elf/4.1.2/mno-hw-mul/libgcc.a(_pack_df.o)
 .data          0x0101958c        0x0 /opt/altera/13.0sp1/nios2eds/bin/gnu/H-i686-pc-linux-gnu/bin/../lib/gcc/nios2-elf/4.1.2/mno-hw-mul/libgcc.a(_unpack_df.o)
 .data          0x0101958c        0x0 /opt/altera/13.0sp1/nios2eds/bin/gnu/H-i686-pc-linux-gnu/bin/../lib/gcc/nios2-elf/4.1.2/mno-hw-mul/libgcc.a(_clz.o)
 .data          0x0101958c        0x0 /opt/altera/13.0sp1/nios2eds/bin/gnu/H-i686-pc-linux-gnu/bin/../lib/gcc/nios2-elf/4.1.2/../../../../nios2-elf/lib/mno-hw-mul/libc.a(lib_a-printf.o)
 .data          0x0101958c        0x0 /opt/altera/13.0sp1/nios2eds/bin/gnu/H-i686-pc-linux-gnu/bin/../lib/gcc/nios2-elf/4.1.2/../../../../nios2-elf/lib/mno-hw-mul/libc.a(lib_a-puts.o)
 .data          0x0101958c        0x0 /opt/altera/13.0sp1/nios2eds/bin/gnu/H-i686-pc-linux-gnu/bin/../lib/gcc/nios2-elf/4.1.2/../../../../nios2-elf/lib/mno-hw-mul/libc.a(lib_a-strlen.o)
 .data          0x0101958c        0x0 /opt/altera/13.0sp1/nios2eds/bin/gnu/H-i686-pc-linux-gnu/bin/../lib/gcc/nios2-elf/4.1.2/../../../../nios2-elf/lib/mno-hw-mul/libc.a(lib_a-vfprintf.o)
 .data          0x0101958c        0x0 /opt/altera/13.0sp1/nios2eds/bin/gnu/H-i686-pc-linux-gnu/bin/../lib/gcc/nios2-elf/4.1.2/../../../../nios2-elf/lib/mno-hw-mul/libc.a(lib_a-wsetup.o)
 .data          0x0101958c        0x0 /opt/altera/13.0sp1/nios2eds/bin/gnu/H-i686-pc-linux-gnu/bin/../lib/gcc/nios2-elf/4.1.2/../../../../nios2-elf/lib/mno-hw-mul/libc.a(lib_a-dtoa.o)
 .data          0x0101958c        0x0 /opt/altera/13.0sp1/nios2eds/bin/gnu/H-i686-pc-linux-gnu/bin/../lib/gcc/nios2-elf/4.1.2/../../../../nios2-elf/lib/mno-hw-mul/libc.a(lib_a-fflush.o)
 .data          0x0101958c        0x0 /opt/altera/13.0sp1/nios2eds/bin/gnu/H-i686-pc-linux-gnu/bin/../lib/gcc/nios2-elf/4.1.2/../../../../nios2-elf/lib/mno-hw-mul/libc.a(lib_a-findfp.o)
 .data          0x0101958c        0x0 /opt/altera/13.0sp1/nios2eds/bin/gnu/H-i686-pc-linux-gnu/bin/../lib/gcc/nios2-elf/4.1.2/../../../../nios2-elf/lib/mno-hw-mul/libc.a(lib_a-freer.o)
 .data          0x0101958c        0x0 /opt/altera/13.0sp1/nios2eds/bin/gnu/H-i686-pc-linux-gnu/bin/../lib/gcc/nios2-elf/4.1.2/../../../../nios2-elf/lib/mno-hw-mul/libc.a(lib_a-fvwrite.o)
 .data          0x0101958c        0x0 /opt/altera/13.0sp1/nios2eds/bin/gnu/H-i686-pc-linux-gnu/bin/../lib/gcc/nios2-elf/4.1.2/../../../../nios2-elf/lib/mno-hw-mul/libc.a(lib_a-fwalk.o)
 .data          0x0101958c      0x400 /opt/altera/13.0sp1/nios2eds/bin/gnu/H-i686-pc-linux-gnu/bin/../lib/gcc/nios2-elf/4.1.2/../../../../nios2-elf/lib/mno-hw-mul/libc.a(lib_a-impure.o)
 .data          0x0101998c        0xc /opt/altera/13.0sp1/nios2eds/bin/gnu/H-i686-pc-linux-gnu/bin/../lib/gcc/nios2-elf/4.1.2/../../../../nios2-elf/lib/mno-hw-mul/libc.a(lib_a-locale.o)
                0x0101998c                __lc_ctype
 .data          0x01019998        0x0 /opt/altera/13.0sp1/nios2eds/bin/gnu/H-i686-pc-linux-gnu/bin/../lib/gcc/nios2-elf/4.1.2/../../../../nios2-elf/lib/mno-hw-mul/libc.a(lib_a-makebuf.o)
 .data          0x01019998      0x408 /opt/altera/13.0sp1/nios2eds/bin/gnu/H-i686-pc-linux-gnu/bin/../lib/gcc/nios2-elf/4.1.2/../../../../nios2-elf/lib/mno-hw-mul/libc.a(lib_a-mallocr.o)
                0x01019998                __malloc_av_
 .data          0x01019da0        0x0 /opt/altera/13.0sp1/nios2eds/bin/gnu/H-i686-pc-linux-gnu/bin/../lib/gcc/nios2-elf/4.1.2/../../../../nios2-elf/lib/mno-hw-mul/libc.a(lib_a-memchr.o)
 .data          0x01019da0        0x0 /opt/altera/13.0sp1/nios2eds/bin/gnu/H-i686-pc-linux-gnu/bin/../lib/gcc/nios2-elf/4.1.2/../../../../nios2-elf/lib/mno-hw-mul/libc.a(lib_a-memcpy.o)
 .data          0x01019da0        0x0 /opt/altera/13.0sp1/nios2eds/bin/gnu/H-i686-pc-linux-gnu/bin/../lib/gcc/nios2-elf/4.1.2/../../../../nios2-elf/lib/mno-hw-mul/libc.a(lib_a-memmove.o)
 .data          0x01019da0        0x0 /opt/altera/13.0sp1/nios2eds/bin/gnu/H-i686-pc-linux-gnu/bin/../lib/gcc/nios2-elf/4.1.2/../../../../nios2-elf/lib/mno-hw-mul/libc.a(lib_a-memset.o)
 .data          0x01019da0        0x0 /opt/altera/13.0sp1/nios2eds/bin/gnu/H-i686-pc-linux-gnu/bin/../lib/gcc/nios2-elf/4.1.2/../../../../nios2-elf/lib/mno-hw-mul/libc.a(lib_a-mprec.o)
 .data          0x01019da0        0x0 /opt/altera/13.0sp1/nios2eds/bin/gnu/H-i686-pc-linux-gnu/bin/../lib/gcc/nios2-elf/4.1.2/../../../../nios2-elf/lib/mno-hw-mul/libc.a(lib_a-reallocr.o)
 .data          0x01019da0        0x0 /opt/altera/13.0sp1/nios2eds/bin/gnu/H-i686-pc-linux-gnu/bin/../lib/gcc/nios2-elf/4.1.2/../../../../nios2-elf/lib/mno-hw-mul/libc.a(lib_a-s_isinfd.o)
 .data          0x01019da0        0x0 /opt/altera/13.0sp1/nios2eds/bin/gnu/H-i686-pc-linux-gnu/bin/../lib/gcc/nios2-elf/4.1.2/../../../../nios2-elf/lib/mno-hw-mul/libc.a(lib_a-s_isnand.o)
 .data          0x01019da0        0x0 /opt/altera/13.0sp1/nios2eds/bin/gnu/H-i686-pc-linux-gnu/bin/../lib/gcc/nios2-elf/4.1.2/../../../../nios2-elf/lib/mno-hw-mul/libc.a(lib_a-sbrkr.o)
 .data          0x01019da0        0x0 /opt/altera/13.0sp1/nios2eds/bin/gnu/H-i686-pc-linux-gnu/bin/../lib/gcc/nios2-elf/4.1.2/../../../../nios2-elf/lib/mno-hw-mul/libc.a(lib_a-stdio.o)
 .data          0x01019da0        0x0 /opt/altera/13.0sp1/nios2eds/bin/gnu/H-i686-pc-linux-gnu/bin/../lib/gcc/nios2-elf/4.1.2/../../../../nios2-elf/lib/mno-hw-mul/libc.a(lib_a-strcmp.o)
 .data          0x01019da0        0x0 /opt/altera/13.0sp1/nios2eds/bin/gnu/H-i686-pc-linux-gnu/bin/../lib/gcc/nios2-elf/4.1.2/../../../../nios2-elf/lib/mno-hw-mul/libc.a(lib_a-writer.o)
 .data          0x01019da0        0x0 /opt/altera/13.0sp1/nios2eds/bin/gnu/H-i686-pc-linux-gnu/bin/../lib/gcc/nios2-elf/4.1.2/../../../../nios2-elf/lib/mno-hw-mul/libc.a(lib_a-callocr.o)
 .data          0x01019da0        0x0 /opt/altera/13.0sp1/nios2eds/bin/gnu/H-i686-pc-linux-gnu/bin/../lib/gcc/nios2-elf/4.1.2/../../../../nios2-elf/lib/mno-hw-mul/libc.a(lib_a-closer.o)
 .data          0x01019da0        0x0 /opt/altera/13.0sp1/nios2eds/bin/gnu/H-i686-pc-linux-gnu/bin/../lib/gcc/nios2-elf/4.1.2/../../../../nios2-elf/lib/mno-hw-mul/libc.a(lib_a-fclose.o)
 .data          0x01019da0        0x0 /opt/altera/13.0sp1/nios2eds/bin/gnu/H-i686-pc-linux-gnu/bin/../lib/gcc/nios2-elf/4.1.2/../../../../nios2-elf/lib/mno-hw-mul/libc.a(lib_a-fstatr.o)
 .data          0x01019da0        0x0 /opt/altera/13.0sp1/nios2eds/bin/gnu/H-i686-pc-linux-gnu/bin/../lib/gcc/nios2-elf/4.1.2/../../../../nios2-elf/lib/mno-hw-mul/libc.a(lib_a-int_errno.o)
 .data          0x01019da0        0x0 /opt/altera/13.0sp1/nios2eds/bin/gnu/H-i686-pc-linux-gnu/bin/../lib/gcc/nios2-elf/4.1.2/../../../../nios2-elf/lib/mno-hw-mul/libc.a(lib_a-isattyr.o)
 .data          0x01019da0        0x0 /opt/altera/13.0sp1/nios2eds/bin/gnu/H-i686-pc-linux-gnu/bin/../lib/gcc/nios2-elf/4.1.2/../../../../nios2-elf/lib/mno-hw-mul/libc.a(lib_a-lseekr.o)
 .data          0x01019da0        0x0 /opt/altera/13.0sp1/nios2eds/bin/gnu/H-i686-pc-linux-gnu/bin/../lib/gcc/nios2-elf/4.1.2/../../../../nios2-elf/lib/mno-hw-mul/libc.a(lib_a-readr.o)
 .data          0x01019da0        0x0 /opt/altera/13.0sp1/nios2eds/bin/gnu/H-i686-pc-linux-gnu/bin/../lib/gcc/nios2-elf/4.1.2/mno-hw-mul/libgcc.a(_udivdi3.o)
 .data          0x01019da0        0x0 /opt/altera/13.0sp1/nios2eds/bin/gnu/H-i686-pc-linux-gnu/bin/../lib/gcc/nios2-elf/4.1.2/mno-hw-mul/libgcc.a(_umoddi3.o)
 .data          0x01019da0        0x0 /opt/altera/13.0sp1/nios2eds/bin/gnu/H-i686-pc-linux-gnu/bin/../lib/gcc/nios2-elf/4.1.2/mno-hw-mul/libgcc.a(_mul_df.o)
 .data          0x01019da0        0x0 /opt/altera/13.0sp1/nios2eds/bin/gnu/H-i686-pc-linux-gnu/bin/../lib/gcc/nios2-elf/4.1.2/mno-hw-mul/libgcc.a(_eq_df.o)
 .data          0x01019da0        0x0 /opt/altera/13.0sp1/nios2eds/bin/gnu/H-i686-pc-linux-gnu/bin/../lib/gcc/nios2-elf/4.1.2/mno-hw-mul/libgcc.a(_ne_df.o)
 .data          0x01019da0        0x0 /opt/altera/13.0sp1/nios2eds/bin/gnu/H-i686-pc-linux-gnu/bin/../lib/gcc/nios2-elf/4.1.2/mno-hw-mul/libgcc.a(_gt_df.o)
 .data          0x01019da0        0x0 /opt/altera/13.0sp1/nios2eds/bin/gnu/H-i686-pc-linux-gnu/bin/../lib/gcc/nios2-elf/4.1.2/mno-hw-mul/libgcc.a(_ge_df.o)
 .data          0x01019da0        0x0 /opt/altera/13.0sp1/nios2eds/bin/gnu/H-i686-pc-linux-gnu/bin/../lib/gcc/nios2-elf/4.1.2/mno-hw-mul/libgcc.a(_lt_df.o)
 .data          0x01019da0        0x0 /opt/altera/13.0sp1/nios2eds/bin/gnu/H-i686-pc-linux-gnu/bin/../lib/gcc/nios2-elf/4.1.2/mno-hw-mul/libgcc.a(_usi_to_df.o)
 .data          0x01019da0        0x0 /opt/altera/13.0sp1/nios2eds/bin/gnu/H-i686-pc-linux-gnu/bin/../lib/gcc/nios2-elf/4.1.2/mno-hw-mul/libgcc.a(_muldi3.o)
 .data          0x01019da0        0x0 /opt/altera/13.0sp1/nios2eds/bin/gnu/H-i686-pc-linux-gnu/bin/../lib/gcc/nios2-elf/4.1.2/mno-hw-mul/libgcc.a(_fpcmp_parts_df.o)
 .data          0x01019da0        0x0 ../lab2_cruisecontrol_bsp//libucosii_bsp.a(alt_alarm_start.o)
 .data          0x01019da0        0x0 ../lab2_cruisecontrol_bsp//libucosii_bsp.a(alt_close.o)
 .data          0x01019da0      0x1a8 ../lab2_cruisecontrol_bsp//libucosii_bsp.a(alt_dev.o)
                0x01019da0                alt_dev_null
                0x01019dc8                alt_fd_list
 .data          0x01019f48        0x0 ../lab2_cruisecontrol_bsp//libucosii_bsp.a(alt_errno.o)
 .data          0x01019f48        0x0 ../lab2_cruisecontrol_bsp//libucosii_bsp.a(alt_fstat.o)
 .data          0x01019f48        0x0 ../lab2_cruisecontrol_bsp//libucosii_bsp.a(alt_isatty.o)
 .data          0x01019f48        0x0 ../lab2_cruisecontrol_bsp//libucosii_bsp.a(alt_load.o)
 .data          0x01019f48        0x0 ../lab2_cruisecontrol_bsp//libucosii_bsp.a(alt_lseek.o)
 .data          0x01019f48        0x0 ../lab2_cruisecontrol_bsp//libucosii_bsp.a(alt_main.o)
 .data          0x01019f48        0x0 ../lab2_cruisecontrol_bsp//libucosii_bsp.a(alt_read.o)
 .data          0x01019f48        0x0 ../lab2_cruisecontrol_bsp//libucosii_bsp.a(alt_release_fd.o)
 .data          0x01019f48        0x0 ../lab2_cruisecontrol_bsp//libucosii_bsp.a(alt_sbrk.o)
 .data          0x01019f48        0x0 ../lab2_cruisecontrol_bsp//libucosii_bsp.a(alt_tick.o)
 .data          0x01019f48        0x0 ../lab2_cruisecontrol_bsp//libucosii_bsp.a(alt_write.o)
 .data          0x01019f48        0x0 ../lab2_cruisecontrol_bsp//libucosii_bsp.a(alt_env_lock.o)
 .data          0x01019f48        0x0 ../lab2_cruisecontrol_bsp//libucosii_bsp.a(alt_malloc_lock.o)
 .data          0x01019f48        0x0 ../lab2_cruisecontrol_bsp//libucosii_bsp.a(os_core.o)
 .data          0x01019f48        0x0 ../lab2_cruisecontrol_bsp//libucosii_bsp.a(os_dbg.o)
 .data          0x01019f48        0x0 ../lab2_cruisecontrol_bsp//libucosii_bsp.a(os_flag.o)
 .data          0x01019f48        0x0 ../lab2_cruisecontrol_bsp//libucosii_bsp.a(os_mbox.o)
 .data          0x01019f48        0x0 ../lab2_cruisecontrol_bsp//libucosii_bsp.a(os_mem.o)
 .data          0x01019f48        0x0 ../lab2_cruisecontrol_bsp//libucosii_bsp.a(os_q.o)
 .data          0x01019f48        0x0 ../lab2_cruisecontrol_bsp//libucosii_bsp.a(os_sem.o)
 .data          0x01019f48        0x0 ../lab2_cruisecontrol_bsp//libucosii_bsp.a(os_task.o)
 .data          0x01019f48        0x0 ../lab2_cruisecontrol_bsp//libucosii_bsp.a(os_time.o)
 .data          0x01019f48        0x0 ../lab2_cruisecontrol_bsp//libucosii_bsp.a(os_tmr.o)
 .data          0x01019f48     0x1098 ../lab2_cruisecontrol_bsp//libucosii_bsp.a(alt_sys_init.o)
 .data          0x0101afe0        0x0 ../lab2_cruisecontrol_bsp//libucosii_bsp.a(altera_avalon_jtag_uart_fd.o)
 .data          0x0101afe0        0x0 ../lab2_cruisecontrol_bsp//libucosii_bsp.a(altera_avalon_jtag_uart_init.o)
 .data          0x0101afe0        0x0 ../lab2_cruisecontrol_bsp//libucosii_bsp.a(altera_avalon_jtag_uart_ioctl.o)
 .data          0x0101afe0        0x0 ../lab2_cruisecontrol_bsp//libucosii_bsp.a(altera_avalon_jtag_uart_read.o)
 .data          0x0101afe0        0x0 ../lab2_cruisecontrol_bsp//libucosii_bsp.a(altera_avalon_jtag_uart_write.o)
 .data          0x0101afe0        0x0 ../lab2_cruisecontrol_bsp//libucosii_bsp.a(altera_avalon_timer_sc.o)
 .data          0x0101afe0        0x0 ../lab2_cruisecontrol_bsp//libucosii_bsp.a(altera_up_avalon_character_lcd.o)
 .data          0x0101afe0        0x0 ../lab2_cruisecontrol_bsp//libucosii_bsp.a(alt_dcache_flush_all.o)
 .data          0x0101afe0        0x0 ../lab2_cruisecontrol_bsp//libucosii_bsp.a(alt_dev_llist_insert.o)
 .data          0x0101afe0        0x0 ../lab2_cruisecontrol_bsp//libucosii_bsp.a(alt_do_ctors.o)
 .data          0x0101afe0        0x0 ../lab2_cruisecontrol_bsp//libucosii_bsp.a(alt_do_dtors.o)
 .data          0x0101afe0        0x0 ../lab2_cruisecontrol_bsp//libucosii_bsp.a(alt_find_dev.o)
 .data          0x0101afe0        0x0 ../lab2_cruisecontrol_bsp//libucosii_bsp.a(alt_icache_flush_all.o)
 .data          0x0101afe0        0x0 ../lab2_cruisecontrol_bsp//libucosii_bsp.a(alt_iic.o)
 .data          0x0101afe0        0x0 ../lab2_cruisecontrol_bsp//libucosii_bsp.a(alt_iic_isr_register.o)
 .data          0x0101afe0        0x0 ../lab2_cruisecontrol_bsp//libucosii_bsp.a(alt_io_redirect.o)
 .data          0x0101afe0        0x0 ../lab2_cruisecontrol_bsp//libucosii_bsp.a(alt_irq_entry.o)
 .data          0x0101afe0        0x0 ../lab2_cruisecontrol_bsp//libucosii_bsp.a(alt_irq_handler.o)
 .data          0x0101afe0        0x0 ../lab2_cruisecontrol_bsp//libucosii_bsp.a(alt_irq_vars.o)
 .data          0x0101afe0        0x0 ../lab2_cruisecontrol_bsp//libucosii_bsp.a(alt_open.o)
 .data          0x0101afe0        0x0 ../lab2_cruisecontrol_bsp//libucosii_bsp.a(altera_nios2_qsys_irq.o)
 .data          0x0101afe0        0x0 ../lab2_cruisecontrol_bsp//libucosii_bsp.a(os_cpu_a.o)
 .data          0x0101afe0        0x0 ../lab2_cruisecontrol_bsp//libucosii_bsp.a(os_cpu_c.o)
 .data          0x0101afe0        0x0 ../lab2_cruisecontrol_bsp//libucosii_bsp.a(alt_exception_entry.o)
 .data          0x0101afe0        0x0 ../lab2_cruisecontrol_bsp//libucosii_bsp.a(alt_find_file.o)
 .data          0x0101afe0        0x0 ../lab2_cruisecontrol_bsp//libucosii_bsp.a(alt_get_fd.o)
 .data          0x0101afe0        0x0 /opt/altera/13.0sp1/nios2eds/bin/gnu/H-i686-pc-linux-gnu/bin/../lib/gcc/nios2-elf/4.1.2/../../../../nios2-elf/lib/mno-hw-mul/libc.a(lib_a-atexit.o)
 .data          0x0101afe0        0x0 /opt/altera/13.0sp1/nios2eds/bin/gnu/H-i686-pc-linux-gnu/bin/../lib/gcc/nios2-elf/4.1.2/../../../../nios2-elf/lib/mno-hw-mul/libc.a(lib_a-exit.o)
 .data          0x0101afe0        0x0 /opt/altera/13.0sp1/nios2eds/bin/gnu/H-i686-pc-linux-gnu/bin/../lib/gcc/nios2-elf/4.1.2/../../../../nios2-elf/lib/mno-hw-mul/libc.a(lib_a-memcmp.o)
 .data          0x0101afe0        0x0 /opt/altera/13.0sp1/nios2eds/bin/gnu/H-i686-pc-linux-gnu/bin/../lib/gcc/nios2-elf/4.1.2/../../../../nios2-elf/lib/mno-hw-mul/libc.a(lib_a-__atexit.o)
 .data          0x0101afe0        0x0 /opt/altera/13.0sp1/nios2eds/bin/gnu/H-i686-pc-linux-gnu/bin/../lib/gcc/nios2-elf/4.1.2/../../../../nios2-elf/lib/mno-hw-mul/libc.a(lib_a-__call_atexit.o)
 .data          0x0101afe0        0x0 /opt/altera/13.0sp1/nios2eds/bin/gnu/H-i686-pc-linux-gnu/bin/../lib/gcc/nios2-elf/4.1.2/mno-hw-mul/libgcc.a(_fixunsdfsi.o)
 .data          0x0101afe0        0x0 ../lab2_cruisecontrol_bsp//libucosii_bsp.a(alt_exit.o)
                0x01022fe0                _gp = ABSOLUTE ((. + 0x8000))
                0x01022fe0                PROVIDE (gp, _gp)
 *(.rwdata .rwdata.*)
 *(.sdata .sdata.* .gnu.linkonce.s.*)
 .sdata         0x0101afe0       0x14 obj/default/cruise_skeleton.o
                0x0101afe0                gas_pedal
                0x0101afe4                brake_pedal
                0x0101afe8                top_gear
                0x0101afec                engine
                0x0101aff0                cruise_control
 .sdata         0x0101aff4        0x8 /opt/altera/13.0sp1/nios2eds/bin/gnu/H-i686-pc-linux-gnu/bin/../lib/gcc/nios2-elf/4.1.2/../../../../nios2-elf/lib/mno-hw-mul/libc.a(lib_a-impure.o)
                0x0101aff4                _impure_ptr
                0x0101aff8                _global_impure_ptr
 .sdata         0x0101affc        0x8 /opt/altera/13.0sp1/nios2eds/bin/gnu/H-i686-pc-linux-gnu/bin/../lib/gcc/nios2-elf/4.1.2/../../../../nios2-elf/lib/mno-hw-mul/libc.a(lib_a-locale.o)
                0x0101affc                __mb_cur_max
 .sdata         0x0101b004        0x8 /opt/altera/13.0sp1/nios2eds/bin/gnu/H-i686-pc-linux-gnu/bin/../lib/gcc/nios2-elf/4.1.2/../../../../nios2-elf/lib/mno-hw-mul/libc.a(lib_a-mallocr.o)
                0x0101b004                __malloc_trim_threshold
                0x0101b008                __malloc_sbrk_base
 .sdata         0x0101b00c       0x14 ../lab2_cruisecontrol_bsp//libucosii_bsp.a(alt_dev.o)
                0x0101b00c                alt_fs_list
                0x0101b014                alt_dev_list
                0x0101b01c                alt_max_fd
 .sdata         0x0101b020        0x4 ../lab2_cruisecontrol_bsp//libucosii_bsp.a(alt_errno.o)
                0x0101b020                alt_errno
 .sdata         0x0101b024        0x4 ../lab2_cruisecontrol_bsp//libucosii_bsp.a(alt_sbrk.o)
 .sdata         0x0101b028        0x8 ../lab2_cruisecontrol_bsp//libucosii_bsp.a(alt_tick.o)
                0x0101b028                alt_alarm_list
 .sdata         0x0101b030        0x4 ../lab2_cruisecontrol_bsp//libucosii_bsp.a(alt_env_lock.o)
 .sdata         0x0101b034        0x4 ../lab2_cruisecontrol_bsp//libucosii_bsp.a(alt_malloc_lock.o)
 .sdata         0x0101b038       0x74 ../lab2_cruisecontrol_bsp//libucosii_bsp.a(os_dbg.o)
                0x0101b038                OSDebugEn
                0x0101b03c                OSEndiannessTest
                0x0101b040                OSEventEn
                0x0101b042                OSEventMax
                0x0101b044                OSEventNameSize
                0x0101b046                OSEventSize
                0x0101b048                OSEventTblSize
                0x0101b04a                OSEventMultiEn
                0x0101b04c                OSFlagEn
                0x0101b04e                OSFlagGrpSize
                0x0101b050                OSFlagNodeSize
                0x0101b052                OSFlagWidth
                0x0101b054                OSFlagMax
                0x0101b056                OSFlagNameSize
                0x0101b058                OSLowestPrio
                0x0101b05a                OSMboxEn
                0x0101b05c                OSMemEn
                0x0101b05e                OSMemMax
                0x0101b060                OSMemNameSize
                0x0101b062                OSMemSize
                0x0101b064                OSMemTblSize
                0x0101b066                OSMutexEn
                0x0101b068                OSPtrSize
                0x0101b06a                OSQEn
                0x0101b06c                OSQMax
                0x0101b06e                OSQSize
                0x0101b070                OSRdyTblSize
                0x0101b072                OSSemEn
                0x0101b074                OSStkWidth
                0x0101b076                OSTaskCreateEn
                0x0101b078                OSTaskCreateExtEn
                0x0101b07a                OSTaskDelEn
                0x0101b07c                OSTaskIdleStkSize
                0x0101b07e                OSTaskProfileEn
                0x0101b080                OSTaskMax
                0x0101b082                OSTaskNameSize
                0x0101b084                OSTaskStatEn
                0x0101b086                OSTaskStatStkSize
                0x0101b088                OSTaskStatStkChkEn
                0x0101b08a                OSTaskSwHookEn
                0x0101b08c                OSTCBPrioTblMax
                0x0101b08e                OSTCBSize
                0x0101b090                OSTicksPerSec
                0x0101b092                OSTimeTickHookEn
                0x0101b094                OSVersionNbr
                0x0101b096                OSTmrEn
                0x0101b098                OSTmrCfgMax
                0x0101b09a                OSTmrCfgNameSize
                0x0101b09c                OSTmrCfgWheelSize
                0x0101b09e                OSTmrCfgTicksPerSec
                0x0101b0a0                OSTmrSize
                0x0101b0a2                OSTmrTblSize
                0x0101b0a4                OSTmrWheelSize
                0x0101b0a6                OSTmrWheelTblSize
                0x0101b0a8                OSDataSize
 .sdata         0x0101b0ac        0x4 ../lab2_cruisecontrol_bsp//libucosii_bsp.a(alt_irq_vars.o)
                0x0101b0ac                alt_priority_mask
 *(.sdata2 .sdata2.* .gnu.linkonce.s2.*)
                0x0101b0b0                . = ALIGN (0x4)
                0x0101b0b0                _edata = ABSOLUTE (.)
                0x0101b0b0                PROVIDE (edata, ABSOLUTE (.))
                0x0101b0b0                PROVIDE (__ram_rwdata_end, ABSOLUTE (.))
                0x0101b0b0                PROVIDE (__flash_rwdata_start, LOADADDR (.rwdata))

.bss            0x0101cc00     0xe120
                0x0101cc00                __bss_start = ABSOLUTE (.)
                0x0101cc00                PROVIDE (__sbss_start, ABSOLUTE (.))
                0x0101cc00                PROVIDE (___sbss_start, ABSOLUTE (.))
 *(.dynsbss)
 *(.sbss .sbss.* .gnu.linkonce.sb.*)
 .sbss          0x0101cc00       0x10 obj/default/cruise_skeleton.o
                0x0101cc00                led_green
                0x0101cc04                led_red
                0x0101cc08                ENGINE
                0x0101cc09                TOP_GEAR
                0x0101cc0a                GAS_PEDAL
                0x0101cc0b                BRAKE_PEDAL
                0x0101cc0c                CRUISE_CONTROL
 .sbss          0x0101cc10       0x18 obj/default/cruise_skeleton.o
                0x0101cc10                task_prio
                0x0101cc14                Mbox_Throttle
                0x0101cc18                Mbox_Velocity
                0x0101cc1c                Timer
                0x0101cc20                delay
                0x0101cc24                Sem_Timer
 .sbss          0x0101cc28        0xc /opt/altera/13.0sp1/nios2eds/bin/gnu/H-i686-pc-linux-gnu/bin/../lib/gcc/nios2-elf/4.1.2/../../../../nios2-elf/lib/mno-hw-mul/libc.a(lib_a-locale.o)
                0x0101cc28                __nlocale_changed
                0x0101cc2c                __mlocale_changed
                0x0101cc30                _PathLocale
 .sbss          0x0101cc34        0xc /opt/altera/13.0sp1/nios2eds/bin/gnu/H-i686-pc-linux-gnu/bin/../lib/gcc/nios2-elf/4.1.2/../../../../nios2-elf/lib/mno-hw-mul/libc.a(lib_a-mallocr.o)
                0x0101cc34                __malloc_top_pad
                0x0101cc38                __malloc_max_sbrked_mem
                0x0101cc3c                __malloc_max_total_mem
 .sbss          0x0101cc40        0x4 /opt/altera/13.0sp1/nios2eds/bin/gnu/H-i686-pc-linux-gnu/bin/../lib/gcc/nios2-elf/4.1.2/../../../../nios2-elf/lib/mno-hw-mul/libc.a(lib_a-int_errno.o)
                0x0101cc40                errno
 .sbss          0x0101cc44        0x4 ../lab2_cruisecontrol_bsp//libucosii_bsp.a(alt_dev.o)
                0x0101cc44                alt_fd_list_lock
 .sbss          0x0101cc48        0xc ../lab2_cruisecontrol_bsp//libucosii_bsp.a(alt_main.o)
                0x0101cc48                alt_argc
                0x0101cc4c                alt_argv
                0x0101cc50                alt_envp
 .sbss          0x0101cc54        0x8 ../lab2_cruisecontrol_bsp//libucosii_bsp.a(alt_tick.o)
                0x0101cc54                _alt_tick_rate
                0x0101cc58                _alt_nticks
 .sbss          0x0101cc5c        0x8 ../lab2_cruisecontrol_bsp//libucosii_bsp.a(alt_env_lock.o)
                0x0101cc60                alt_envsem
 .sbss          0x0101cc64        0x8 ../lab2_cruisecontrol_bsp//libucosii_bsp.a(alt_malloc_lock.o)
                0x0101cc68                alt_heapsem
 .sbss          0x0101cc6c       0x68 ../lab2_cruisecontrol_bsp//libucosii_bsp.a(os_core.o)
                0x0101cc6c                OSTmrFreeList
                0x0101cc70                OSLockNesting
                0x0101cc74                OSTmrSemSignal
                0x0101cc78                OSRunning
                0x0101cc7c                OSIdleCtr
                0x0101cc80                OSTmrUsed
                0x0101cc82                OSPrioHighRdy
                0x0101cc83                OSPrioCur
                0x0101cc84                OSTCBList
                0x0101cc88                OSTickStepState
                0x0101cc8c                OSCtxSwCtr
                0x0101cc90                OSTmrFree
                0x0101cc94                OSIdleCtrMax
                0x0101cc98                OSTCBFreeList
                0x0101cc9c                OSCPUUsage
                0x0101cc9d                OSTaskCtr
                0x0101cca0                OSMemFreeList
                0x0101cca4                OSTCBHighRdy
                0x0101cca8                OSQFreeList
                0x0101ccac                OSRdyGrp
                0x0101ccad                OSRdyTbl
                0x0101ccb0                OSEventFreeList
                0x0101ccb4                OSIntNesting
                0x0101ccb8                OSTCBCur
                0x0101ccbc                OSTmrTime
                0x0101ccc0                OSTime
                0x0101ccc4                OSTmrSem
                0x0101ccc8                OSFlagFreeList
                0x0101cccc                OSStatRdy
                0x0101ccd0                OSIdleCtrRun
 .sbss          0x0101ccd4        0x4 ../lab2_cruisecontrol_bsp//libucosii_bsp.a(alt_irq_vars.o)
                0x0101ccd4                alt_irq_active
 .sbss          0x0101ccd8        0x2 ../lab2_cruisecontrol_bsp//libucosii_bsp.a(os_cpu_c.o)
 *(.sbss2 .sbss2.* .gnu.linkonce.sb2.*)
 *(.scommon)
                0x0101ccda                PROVIDE (__sbss_end, ABSOLUTE (.))
                0x0101ccda                PROVIDE (___sbss_end, ABSOLUTE (.))
 *(.dynbss)
 *(.bss .bss.* .gnu.linkonce.b.*)
 .bss           0x0101ccda        0x0 ../lab2_cruisecontrol_bsp//obj/HAL/src/crt0.o
 *fill*         0x0101ccda        0x2 00
 .bss           0x0101ccdc       0x18 obj/default/cruise_skeleton.o
 .bss           0x0101ccf4        0x0 /opt/altera/13.0sp1/nios2eds/bin/gnu/H-i686-pc-linux-gnu/bin/../lib/gcc/nios2-elf/4.1.2/mno-hw-mul/libgcc.a(_si_to_sf.o)
 .bss           0x0101ccf4        0x0 /opt/altera/13.0sp1/nios2eds/bin/gnu/H-i686-pc-linux-gnu/bin/../lib/gcc/nios2-elf/4.1.2/mno-hw-mul/libgcc.a(_sf_to_df.o)
 .bss           0x0101ccf4        0x0 /opt/altera/13.0sp1/nios2eds/bin/gnu/H-i686-pc-linux-gnu/bin/../lib/gcc/nios2-elf/4.1.2/mno-hw-mul/libgcc.a(_addsub_df.o)
 .bss           0x0101ccf4        0x0 /opt/altera/13.0sp1/nios2eds/bin/gnu/H-i686-pc-linux-gnu/bin/../lib/gcc/nios2-elf/4.1.2/mno-hw-mul/libgcc.a(_div_df.o)
 .bss           0x0101ccf4        0x0 /opt/altera/13.0sp1/nios2eds/bin/gnu/H-i686-pc-linux-gnu/bin/../lib/gcc/nios2-elf/4.1.2/mno-hw-mul/libgcc.a(_si_to_df.o)
 .bss           0x0101ccf4        0x0 /opt/altera/13.0sp1/nios2eds/bin/gnu/H-i686-pc-linux-gnu/bin/../lib/gcc/nios2-elf/4.1.2/mno-hw-mul/libgcc.a(_df_to_si.o)
 .bss           0x0101ccf4        0x0 /opt/altera/13.0sp1/nios2eds/bin/gnu/H-i686-pc-linux-gnu/bin/../lib/gcc/nios2-elf/4.1.2/mno-hw-mul/libgcc.a(_make_df.o)
 .bss           0x0101ccf4        0x0 /opt/altera/13.0sp1/nios2eds/bin/gnu/H-i686-pc-linux-gnu/bin/../lib/gcc/nios2-elf/4.1.2/mno-hw-mul/libgcc.a(_thenan_df.o)
 .bss           0x0101ccf4        0x0 /opt/altera/13.0sp1/nios2eds/bin/gnu/H-i686-pc-linux-gnu/bin/../lib/gcc/nios2-elf/4.1.2/mno-hw-mul/libgcc.a(lib2-divmod.o)
 .bss           0x0101ccf4        0x0 /opt/altera/13.0sp1/nios2eds/bin/gnu/H-i686-pc-linux-gnu/bin/../lib/gcc/nios2-elf/4.1.2/mno-hw-mul/libgcc.a(lib2-mul.o)
 .bss           0x0101ccf4        0x0 /opt/altera/13.0sp1/nios2eds/bin/gnu/H-i686-pc-linux-gnu/bin/../lib/gcc/nios2-elf/4.1.2/mno-hw-mul/libgcc.a(_clzsi2.o)
 .bss           0x0101ccf4        0x0 /opt/altera/13.0sp1/nios2eds/bin/gnu/H-i686-pc-linux-gnu/bin/../lib/gcc/nios2-elf/4.1.2/mno-hw-mul/libgcc.a(_pack_sf.o)
 .bss           0x0101ccf4        0x0 /opt/altera/13.0sp1/nios2eds/bin/gnu/H-i686-pc-linux-gnu/bin/../lib/gcc/nios2-elf/4.1.2/mno-hw-mul/libgcc.a(_unpack_sf.o)
 .bss           0x0101ccf4        0x0 /opt/altera/13.0sp1/nios2eds/bin/gnu/H-i686-pc-linux-gnu/bin/../lib/gcc/nios2-elf/4.1.2/mno-hw-mul/libgcc.a(_pack_df.o)
 .bss           0x0101ccf4        0x0 /opt/altera/13.0sp1/nios2eds/bin/gnu/H-i686-pc-linux-gnu/bin/../lib/gcc/nios2-elf/4.1.2/mno-hw-mul/libgcc.a(_unpack_df.o)
 .bss           0x0101ccf4        0x0 /opt/altera/13.0sp1/nios2eds/bin/gnu/H-i686-pc-linux-gnu/bin/../lib/gcc/nios2-elf/4.1.2/mno-hw-mul/libgcc.a(_clz.o)
 .bss           0x0101ccf4        0x0 /opt/altera/13.0sp1/nios2eds/bin/gnu/H-i686-pc-linux-gnu/bin/../lib/gcc/nios2-elf/4.1.2/../../../../nios2-elf/lib/mno-hw-mul/libc.a(lib_a-printf.o)
 .bss           0x0101ccf4        0x0 /opt/altera/13.0sp1/nios2eds/bin/gnu/H-i686-pc-linux-gnu/bin/../lib/gcc/nios2-elf/4.1.2/../../../../nios2-elf/lib/mno-hw-mul/libc.a(lib_a-puts.o)
 .bss           0x0101ccf4        0x0 /opt/altera/13.0sp1/nios2eds/bin/gnu/H-i686-pc-linux-gnu/bin/../lib/gcc/nios2-elf/4.1.2/../../../../nios2-elf/lib/mno-hw-mul/libc.a(lib_a-strlen.o)
 .bss           0x0101ccf4        0x0 /opt/altera/13.0sp1/nios2eds/bin/gnu/H-i686-pc-linux-gnu/bin/../lib/gcc/nios2-elf/4.1.2/../../../../nios2-elf/lib/mno-hw-mul/libc.a(lib_a-vfprintf.o)
 .bss           0x0101ccf4        0x0 /opt/altera/13.0sp1/nios2eds/bin/gnu/H-i686-pc-linux-gnu/bin/../lib/gcc/nios2-elf/4.1.2/../../../../nios2-elf/lib/mno-hw-mul/libc.a(lib_a-wsetup.o)
 .bss           0x0101ccf4        0x0 /opt/altera/13.0sp1/nios2eds/bin/gnu/H-i686-pc-linux-gnu/bin/../lib/gcc/nios2-elf/4.1.2/../../../../nios2-elf/lib/mno-hw-mul/libc.a(lib_a-dtoa.o)
 .bss           0x0101ccf4        0x0 /opt/altera/13.0sp1/nios2eds/bin/gnu/H-i686-pc-linux-gnu/bin/../lib/gcc/nios2-elf/4.1.2/../../../../nios2-elf/lib/mno-hw-mul/libc.a(lib_a-fflush.o)
 .bss           0x0101ccf4        0x0 /opt/altera/13.0sp1/nios2eds/bin/gnu/H-i686-pc-linux-gnu/bin/../lib/gcc/nios2-elf/4.1.2/../../../../nios2-elf/lib/mno-hw-mul/libc.a(lib_a-findfp.o)
 .bss           0x0101ccf4        0x0 /opt/altera/13.0sp1/nios2eds/bin/gnu/H-i686-pc-linux-gnu/bin/../lib/gcc/nios2-elf/4.1.2/../../../../nios2-elf/lib/mno-hw-mul/libc.a(lib_a-freer.o)
 .bss           0x0101ccf4        0x0 /opt/altera/13.0sp1/nios2eds/bin/gnu/H-i686-pc-linux-gnu/bin/../lib/gcc/nios2-elf/4.1.2/../../../../nios2-elf/lib/mno-hw-mul/libc.a(lib_a-fvwrite.o)
 .bss           0x0101ccf4        0x0 /opt/altera/13.0sp1/nios2eds/bin/gnu/H-i686-pc-linux-gnu/bin/../lib/gcc/nios2-elf/4.1.2/../../../../nios2-elf/lib/mno-hw-mul/libc.a(lib_a-fwalk.o)
 .bss           0x0101ccf4        0x0 /opt/altera/13.0sp1/nios2eds/bin/gnu/H-i686-pc-linux-gnu/bin/../lib/gcc/nios2-elf/4.1.2/../../../../nios2-elf/lib/mno-hw-mul/libc.a(lib_a-impure.o)
 .bss           0x0101ccf4        0x0 /opt/altera/13.0sp1/nios2eds/bin/gnu/H-i686-pc-linux-gnu/bin/../lib/gcc/nios2-elf/4.1.2/../../../../nios2-elf/lib/mno-hw-mul/libc.a(lib_a-locale.o)
 .bss           0x0101ccf4        0x0 /opt/altera/13.0sp1/nios2eds/bin/gnu/H-i686-pc-linux-gnu/bin/../lib/gcc/nios2-elf/4.1.2/../../../../nios2-elf/lib/mno-hw-mul/libc.a(lib_a-makebuf.o)
 .bss           0x0101ccf4       0x28 /opt/altera/13.0sp1/nios2eds/bin/gnu/H-i686-pc-linux-gnu/bin/../lib/gcc/nios2-elf/4.1.2/../../../../nios2-elf/lib/mno-hw-mul/libc.a(lib_a-mallocr.o)
                0x0101ccf4                __malloc_current_mallinfo
 .bss           0x0101cd1c        0x0 /opt/altera/13.0sp1/nios2eds/bin/gnu/H-i686-pc-linux-gnu/bin/../lib/gcc/nios2-elf/4.1.2/../../../../nios2-elf/lib/mno-hw-mul/libc.a(lib_a-memchr.o)
 .bss           0x0101cd1c        0x0 /opt/altera/13.0sp1/nios2eds/bin/gnu/H-i686-pc-linux-gnu/bin/../lib/gcc/nios2-elf/4.1.2/../../../../nios2-elf/lib/mno-hw-mul/libc.a(lib_a-memcpy.o)
 .bss           0x0101cd1c        0x0 /opt/altera/13.0sp1/nios2eds/bin/gnu/H-i686-pc-linux-gnu/bin/../lib/gcc/nios2-elf/4.1.2/../../../../nios2-elf/lib/mno-hw-mul/libc.a(lib_a-memmove.o)
 .bss           0x0101cd1c        0x0 /opt/altera/13.0sp1/nios2eds/bin/gnu/H-i686-pc-linux-gnu/bin/../lib/gcc/nios2-elf/4.1.2/../../../../nios2-elf/lib/mno-hw-mul/libc.a(lib_a-memset.o)
 .bss           0x0101cd1c        0x0 /opt/altera/13.0sp1/nios2eds/bin/gnu/H-i686-pc-linux-gnu/bin/../lib/gcc/nios2-elf/4.1.2/../../../../nios2-elf/lib/mno-hw-mul/libc.a(lib_a-mprec.o)
 .bss           0x0101cd1c        0x0 /opt/altera/13.0sp1/nios2eds/bin/gnu/H-i686-pc-linux-gnu/bin/../lib/gcc/nios2-elf/4.1.2/../../../../nios2-elf/lib/mno-hw-mul/libc.a(lib_a-reallocr.o)
 .bss           0x0101cd1c        0x0 /opt/altera/13.0sp1/nios2eds/bin/gnu/H-i686-pc-linux-gnu/bin/../lib/gcc/nios2-elf/4.1.2/../../../../nios2-elf/lib/mno-hw-mul/libc.a(lib_a-s_isinfd.o)
 .bss           0x0101cd1c        0x0 /opt/altera/13.0sp1/nios2eds/bin/gnu/H-i686-pc-linux-gnu/bin/../lib/gcc/nios2-elf/4.1.2/../../../../nios2-elf/lib/mno-hw-mul/libc.a(lib_a-s_isnand.o)
 .bss           0x0101cd1c        0x0 /opt/altera/13.0sp1/nios2eds/bin/gnu/H-i686-pc-linux-gnu/bin/../lib/gcc/nios2-elf/4.1.2/../../../../nios2-elf/lib/mno-hw-mul/libc.a(lib_a-sbrkr.o)
 .bss           0x0101cd1c        0x0 /opt/altera/13.0sp1/nios2eds/bin/gnu/H-i686-pc-linux-gnu/bin/../lib/gcc/nios2-elf/4.1.2/../../../../nios2-elf/lib/mno-hw-mul/libc.a(lib_a-stdio.o)
 .bss           0x0101cd1c        0x0 /opt/altera/13.0sp1/nios2eds/bin/gnu/H-i686-pc-linux-gnu/bin/../lib/gcc/nios2-elf/4.1.2/../../../../nios2-elf/lib/mno-hw-mul/libc.a(lib_a-strcmp.o)
 .bss           0x0101cd1c        0x0 /opt/altera/13.0sp1/nios2eds/bin/gnu/H-i686-pc-linux-gnu/bin/../lib/gcc/nios2-elf/4.1.2/../../../../nios2-elf/lib/mno-hw-mul/libc.a(lib_a-writer.o)
 .bss           0x0101cd1c        0x0 /opt/altera/13.0sp1/nios2eds/bin/gnu/H-i686-pc-linux-gnu/bin/../lib/gcc/nios2-elf/4.1.2/../../../../nios2-elf/lib/mno-hw-mul/libc.a(lib_a-callocr.o)
 .bss           0x0101cd1c        0x0 /opt/altera/13.0sp1/nios2eds/bin/gnu/H-i686-pc-linux-gnu/bin/../lib/gcc/nios2-elf/4.1.2/../../../../nios2-elf/lib/mno-hw-mul/libc.a(lib_a-closer.o)
 .bss           0x0101cd1c        0x0 /opt/altera/13.0sp1/nios2eds/bin/gnu/H-i686-pc-linux-gnu/bin/../lib/gcc/nios2-elf/4.1.2/../../../../nios2-elf/lib/mno-hw-mul/libc.a(lib_a-fclose.o)
 .bss           0x0101cd1c        0x0 /opt/altera/13.0sp1/nios2eds/bin/gnu/H-i686-pc-linux-gnu/bin/../lib/gcc/nios2-elf/4.1.2/../../../../nios2-elf/lib/mno-hw-mul/libc.a(lib_a-fstatr.o)
 .bss           0x0101cd1c        0x0 /opt/altera/13.0sp1/nios2eds/bin/gnu/H-i686-pc-linux-gnu/bin/../lib/gcc/nios2-elf/4.1.2/../../../../nios2-elf/lib/mno-hw-mul/libc.a(lib_a-int_errno.o)
 .bss           0x0101cd1c        0x0 /opt/altera/13.0sp1/nios2eds/bin/gnu/H-i686-pc-linux-gnu/bin/../lib/gcc/nios2-elf/4.1.2/../../../../nios2-elf/lib/mno-hw-mul/libc.a(lib_a-isattyr.o)
 .bss           0x0101cd1c        0x0 /opt/altera/13.0sp1/nios2eds/bin/gnu/H-i686-pc-linux-gnu/bin/../lib/gcc/nios2-elf/4.1.2/../../../../nios2-elf/lib/mno-hw-mul/libc.a(lib_a-lseekr.o)
 .bss           0x0101cd1c        0x0 /opt/altera/13.0sp1/nios2eds/bin/gnu/H-i686-pc-linux-gnu/bin/../lib/gcc/nios2-elf/4.1.2/../../../../nios2-elf/lib/mno-hw-mul/libc.a(lib_a-readr.o)
 .bss           0x0101cd1c        0x0 /opt/altera/13.0sp1/nios2eds/bin/gnu/H-i686-pc-linux-gnu/bin/../lib/gcc/nios2-elf/4.1.2/mno-hw-mul/libgcc.a(_udivdi3.o)
 .bss           0x0101cd1c        0x0 /opt/altera/13.0sp1/nios2eds/bin/gnu/H-i686-pc-linux-gnu/bin/../lib/gcc/nios2-elf/4.1.2/mno-hw-mul/libgcc.a(_umoddi3.o)
 .bss           0x0101cd1c        0x0 /opt/altera/13.0sp1/nios2eds/bin/gnu/H-i686-pc-linux-gnu/bin/../lib/gcc/nios2-elf/4.1.2/mno-hw-mul/libgcc.a(_mul_df.o)
 .bss           0x0101cd1c        0x0 /opt/altera/13.0sp1/nios2eds/bin/gnu/H-i686-pc-linux-gnu/bin/../lib/gcc/nios2-elf/4.1.2/mno-hw-mul/libgcc.a(_eq_df.o)
 .bss           0x0101cd1c        0x0 /opt/altera/13.0sp1/nios2eds/bin/gnu/H-i686-pc-linux-gnu/bin/../lib/gcc/nios2-elf/4.1.2/mno-hw-mul/libgcc.a(_ne_df.o)
 .bss           0x0101cd1c        0x0 /opt/altera/13.0sp1/nios2eds/bin/gnu/H-i686-pc-linux-gnu/bin/../lib/gcc/nios2-elf/4.1.2/mno-hw-mul/libgcc.a(_gt_df.o)
 .bss           0x0101cd1c        0x0 /opt/altera/13.0sp1/nios2eds/bin/gnu/H-i686-pc-linux-gnu/bin/../lib/gcc/nios2-elf/4.1.2/mno-hw-mul/libgcc.a(_ge_df.o)
 .bss           0x0101cd1c        0x0 /opt/altera/13.0sp1/nios2eds/bin/gnu/H-i686-pc-linux-gnu/bin/../lib/gcc/nios2-elf/4.1.2/mno-hw-mul/libgcc.a(_lt_df.o)
 .bss           0x0101cd1c        0x0 /opt/altera/13.0sp1/nios2eds/bin/gnu/H-i686-pc-linux-gnu/bin/../lib/gcc/nios2-elf/4.1.2/mno-hw-mul/libgcc.a(_usi_to_df.o)
 .bss           0x0101cd1c        0x0 /opt/altera/13.0sp1/nios2eds/bin/gnu/H-i686-pc-linux-gnu/bin/../lib/gcc/nios2-elf/4.1.2/mno-hw-mul/libgcc.a(_muldi3.o)
 .bss           0x0101cd1c        0x0 /opt/altera/13.0sp1/nios2eds/bin/gnu/H-i686-pc-linux-gnu/bin/../lib/gcc/nios2-elf/4.1.2/mno-hw-mul/libgcc.a(_fpcmp_parts_df.o)
 .bss           0x0101cd1c        0x0 ../lab2_cruisecontrol_bsp//libucosii_bsp.a(alt_alarm_start.o)
 .bss           0x0101cd1c        0x0 ../lab2_cruisecontrol_bsp//libucosii_bsp.a(alt_close.o)
 .bss           0x0101cd1c        0x0 ../lab2_cruisecontrol_bsp//libucosii_bsp.a(alt_dev.o)
 .bss           0x0101cd1c        0x0 ../lab2_cruisecontrol_bsp//libucosii_bsp.a(alt_errno.o)
 .bss           0x0101cd1c        0x0 ../lab2_cruisecontrol_bsp//libucosii_bsp.a(alt_fstat.o)
 .bss           0x0101cd1c        0x0 ../lab2_cruisecontrol_bsp//libucosii_bsp.a(alt_isatty.o)
 .bss           0x0101cd1c        0x0 ../lab2_cruisecontrol_bsp//libucosii_bsp.a(alt_load.o)
 .bss           0x0101cd1c        0x0 ../lab2_cruisecontrol_bsp//libucosii_bsp.a(alt_lseek.o)
 .bss           0x0101cd1c        0x0 ../lab2_cruisecontrol_bsp//libucosii_bsp.a(alt_main.o)
 .bss           0x0101cd1c        0x0 ../lab2_cruisecontrol_bsp//libucosii_bsp.a(alt_read.o)
 .bss           0x0101cd1c        0x0 ../lab2_cruisecontrol_bsp//libucosii_bsp.a(alt_release_fd.o)
 .bss           0x0101cd1c        0x0 ../lab2_cruisecontrol_bsp//libucosii_bsp.a(alt_sbrk.o)
 .bss           0x0101cd1c        0x0 ../lab2_cruisecontrol_bsp//libucosii_bsp.a(alt_tick.o)
 .bss           0x0101cd1c        0x0 ../lab2_cruisecontrol_bsp//libucosii_bsp.a(alt_write.o)
 .bss           0x0101cd1c        0x0 ../lab2_cruisecontrol_bsp//libucosii_bsp.a(alt_env_lock.o)
 .bss           0x0101cd1c        0x0 ../lab2_cruisecontrol_bsp//libucosii_bsp.a(alt_malloc_lock.o)
 .bss           0x0101cd1c        0x0 ../lab2_cruisecontrol_bsp//libucosii_bsp.a(os_core.o)
 .bss           0x0101cd1c        0x0 ../lab2_cruisecontrol_bsp//libucosii_bsp.a(os_dbg.o)
 .bss           0x0101cd1c        0x0 ../lab2_cruisecontrol_bsp//libucosii_bsp.a(os_flag.o)
 .bss           0x0101cd1c        0x0 ../lab2_cruisecontrol_bsp//libucosii_bsp.a(os_mbox.o)
 .bss           0x0101cd1c        0x0 ../lab2_cruisecontrol_bsp//libucosii_bsp.a(os_mem.o)
 .bss           0x0101cd1c        0x0 ../lab2_cruisecontrol_bsp//libucosii_bsp.a(os_q.o)
 .bss           0x0101cd1c        0x0 ../lab2_cruisecontrol_bsp//libucosii_bsp.a(os_sem.o)
 .bss           0x0101cd1c        0x0 ../lab2_cruisecontrol_bsp//libucosii_bsp.a(os_task.o)
 .bss           0x0101cd1c        0x0 ../lab2_cruisecontrol_bsp//libucosii_bsp.a(os_time.o)
 .bss           0x0101cd1c        0x0 ../lab2_cruisecontrol_bsp//libucosii_bsp.a(os_tmr.o)
 .bss           0x0101cd1c        0x0 ../lab2_cruisecontrol_bsp//libucosii_bsp.a(alt_sys_init.o)
 .bss           0x0101cd1c        0x0 ../lab2_cruisecontrol_bsp//libucosii_bsp.a(altera_avalon_jtag_uart_fd.o)
 .bss           0x0101cd1c        0x0 ../lab2_cruisecontrol_bsp//libucosii_bsp.a(altera_avalon_jtag_uart_init.o)
 .bss           0x0101cd1c        0x0 ../lab2_cruisecontrol_bsp//libucosii_bsp.a(altera_avalon_jtag_uart_ioctl.o)
 .bss           0x0101cd1c        0x0 ../lab2_cruisecontrol_bsp//libucosii_bsp.a(altera_avalon_jtag_uart_read.o)
 .bss           0x0101cd1c        0x0 ../lab2_cruisecontrol_bsp//libucosii_bsp.a(altera_avalon_jtag_uart_write.o)
 .bss           0x0101cd1c        0x0 ../lab2_cruisecontrol_bsp//libucosii_bsp.a(altera_avalon_timer_sc.o)
 .bss           0x0101cd1c        0x0 ../lab2_cruisecontrol_bsp//libucosii_bsp.a(altera_up_avalon_character_lcd.o)
 .bss           0x0101cd1c        0x0 ../lab2_cruisecontrol_bsp//libucosii_bsp.a(alt_dcache_flush_all.o)
 .bss           0x0101cd1c        0x0 ../lab2_cruisecontrol_bsp//libucosii_bsp.a(alt_dev_llist_insert.o)
 .bss           0x0101cd1c        0x0 ../lab2_cruisecontrol_bsp//libucosii_bsp.a(alt_do_ctors.o)
 .bss           0x0101cd1c        0x0 ../lab2_cruisecontrol_bsp//libucosii_bsp.a(alt_do_dtors.o)
 .bss           0x0101cd1c        0x0 ../lab2_cruisecontrol_bsp//libucosii_bsp.a(alt_find_dev.o)
 .bss           0x0101cd1c        0x0 ../lab2_cruisecontrol_bsp//libucosii_bsp.a(alt_icache_flush_all.o)
 .bss           0x0101cd1c        0x0 ../lab2_cruisecontrol_bsp//libucosii_bsp.a(alt_iic.o)
 .bss           0x0101cd1c        0x0 ../lab2_cruisecontrol_bsp//libucosii_bsp.a(alt_iic_isr_register.o)
 .bss           0x0101cd1c        0x0 ../lab2_cruisecontrol_bsp//libucosii_bsp.a(alt_io_redirect.o)
 .bss           0x0101cd1c        0x0 ../lab2_cruisecontrol_bsp//libucosii_bsp.a(alt_irq_entry.o)
 .bss           0x0101cd1c        0x0 ../lab2_cruisecontrol_bsp//libucosii_bsp.a(alt_irq_handler.o)
 .bss           0x0101cd1c        0x0 ../lab2_cruisecontrol_bsp//libucosii_bsp.a(alt_irq_vars.o)
 .bss           0x0101cd1c        0x0 ../lab2_cruisecontrol_bsp//libucosii_bsp.a(alt_open.o)
 .bss           0x0101cd1c        0x0 ../lab2_cruisecontrol_bsp//libucosii_bsp.a(altera_nios2_qsys_irq.o)
 .bss           0x0101cd1c        0x0 ../lab2_cruisecontrol_bsp//libucosii_bsp.a(os_cpu_a.o)
 .bss           0x0101cd1c        0x0 ../lab2_cruisecontrol_bsp//libucosii_bsp.a(os_cpu_c.o)
 .bss           0x0101cd1c        0x0 ../lab2_cruisecontrol_bsp//libucosii_bsp.a(alt_exception_entry.o)
 .bss           0x0101cd1c        0x0 ../lab2_cruisecontrol_bsp//libucosii_bsp.a(alt_find_file.o)
 .bss           0x0101cd1c        0x0 ../lab2_cruisecontrol_bsp//libucosii_bsp.a(alt_get_fd.o)
 .bss           0x0101cd1c        0x0 /opt/altera/13.0sp1/nios2eds/bin/gnu/H-i686-pc-linux-gnu/bin/../lib/gcc/nios2-elf/4.1.2/../../../../nios2-elf/lib/mno-hw-mul/libc.a(lib_a-atexit.o)
 .bss           0x0101cd1c        0x0 /opt/altera/13.0sp1/nios2eds/bin/gnu/H-i686-pc-linux-gnu/bin/../lib/gcc/nios2-elf/4.1.2/../../../../nios2-elf/lib/mno-hw-mul/libc.a(lib_a-exit.o)
 .bss           0x0101cd1c        0x0 /opt/altera/13.0sp1/nios2eds/bin/gnu/H-i686-pc-linux-gnu/bin/../lib/gcc/nios2-elf/4.1.2/../../../../nios2-elf/lib/mno-hw-mul/libc.a(lib_a-memcmp.o)
 .bss           0x0101cd1c        0x0 /opt/altera/13.0sp1/nios2eds/bin/gnu/H-i686-pc-linux-gnu/bin/../lib/gcc/nios2-elf/4.1.2/../../../../nios2-elf/lib/mno-hw-mul/libc.a(lib_a-__atexit.o)
 .bss           0x0101cd1c        0x0 /opt/altera/13.0sp1/nios2eds/bin/gnu/H-i686-pc-linux-gnu/bin/../lib/gcc/nios2-elf/4.1.2/../../../../nios2-elf/lib/mno-hw-mul/libc.a(lib_a-__call_atexit.o)
 .bss           0x0101cd1c        0x0 /opt/altera/13.0sp1/nios2eds/bin/gnu/H-i686-pc-linux-gnu/bin/../lib/gcc/nios2-elf/4.1.2/mno-hw-mul/libgcc.a(_fixunsdfsi.o)
 .bss           0x0101cd1c        0x0 ../lab2_cruisecontrol_bsp//libucosii_bsp.a(alt_exit.o)
 *(COMMON)
 COMMON         0x0101cd1c     0xa000 obj/default/cruise_skeleton.o
                0x0101cd1c                SwitchIO_Stack
                0x0101ed1c                ControlTask_Stack
                0x01020d1c                VehicleTask_Stack
                0x01022d1c                ButtonsIO_Stack
                0x01024d1c                StartTask_Stack
 COMMON         0x01026d1c     0x3d74 ../lab2_cruisecontrol_bsp//libucosii_bsp.a(os_core.o)
                0x01026d1c                OSTmrWheelTbl
                0x01026d2c                OSFlagTbl
                0x0102709c                OSTmrTbl
                0x010273dc                OSMemTbl
                0x0102800c                OSTaskStatStk
                0x0102880c                OSQTbl
                0x010289ec                OSTmrTaskStk
                0x010291ec                OSTaskIdleStk
                0x010299ec                OSEventTbl
                0x0102a52c                OSTCBTbl
                0x0102aa3c                OSTCBPrioTbl
 COMMON         0x0102aa90      0x100 ../lab2_cruisecontrol_bsp//libucosii_bsp.a(alt_irq_handler.o)
                0x0102aa90                alt_irq
 COMMON         0x0102ab90      0x190 /opt/altera/13.0sp1/nios2eds/bin/gnu/H-i686-pc-linux-gnu/bin/../lib/gcc/nios2-elf/4.1.2/../../../../nios2-elf/lib/mno-hw-mul/libc.a(lib_a-atexit.o)
                0x0102ab90                _atexit0
                0x0102ad20                . = ALIGN (0x4)
                0x0102ad20                __bss_end = ABSOLUTE (.)

.onchip_memory  0x00000000        0x0 load address 0x0102ad20
                0x00000000                PROVIDE (_alt_partition_onchip_memory_start, ABSOLUTE (.))
 *(.onchip_memory. onchip_memory.*)
                0x00000000                . = ALIGN (0x4)
                0x00000000                PROVIDE (_alt_partition_onchip_memory_end, ABSOLUTE (.))
                0x0102ad20                PROVIDE (_alt_partition_onchip_memory_load_addr, LOADADDR (.onchip_memory))

.sram           0x00100000        0x0 load address 0x0102ad20
                0x00100000                PROVIDE (_alt_partition_sram_start, ABSOLUTE (.))
 *(.sram. sram.*)
                0x00100000                . = ALIGN (0x4)
                0x00100000                PROVIDE (_alt_partition_sram_end, ABSOLUTE (.))
                0x0102ad20                PROVIDE (_alt_partition_sram_load_addr, LOADADDR (.sram))

.sdram          0x0102ad20        0x0
                0x0102ad20                PROVIDE (_alt_partition_sdram_start, ABSOLUTE (.))
 *(.sdram. sdram.*)
                0x0102ad20                . = ALIGN (0x4)
                0x0102ad20                PROVIDE (_alt_partition_sdram_end, ABSOLUTE (.))
                0x0102ad20                _end = ABSOLUTE (.)
                0x0102ad20                end = ABSOLUTE (.)
                0x0102ad20                __alt_stack_base = ABSOLUTE (.)
                0x0102ad20                PROVIDE (_alt_partition_sdram_load_addr, LOADADDR (.sdram))

.stab
 *(.stab)

.stabstr
 *(.stabstr)

.stab.excl
 *(.stab.excl)

.stab.exclstr
 *(.stab.exclstr)

.stab.index
 *(.stab.index)

.stab.indexstr
 *(.stab.indexstr)

.comment        0x00000000       0x26
 *(.comment)
 .comment       0x00000000       0x26 obj/default/cruise_skeleton.o
                                 0x27 (size before relaxing)
 .comment       0x00000000       0x27 /opt/altera/13.0sp1/nios2eds/bin/gnu/H-i686-pc-linux-gnu/bin/../lib/gcc/nios2-elf/4.1.2/mno-hw-mul/libgcc.a(_si_to_sf.o)
 .comment       0x00000000       0x27 /opt/altera/13.0sp1/nios2eds/bin/gnu/H-i686-pc-linux-gnu/bin/../lib/gcc/nios2-elf/4.1.2/mno-hw-mul/libgcc.a(_sf_to_df.o)
 .comment       0x00000000       0x27 /opt/altera/13.0sp1/nios2eds/bin/gnu/H-i686-pc-linux-gnu/bin/../lib/gcc/nios2-elf/4.1.2/mno-hw-mul/libgcc.a(_addsub_df.o)
 .comment       0x00000000       0x27 /opt/altera/13.0sp1/nios2eds/bin/gnu/H-i686-pc-linux-gnu/bin/../lib/gcc/nios2-elf/4.1.2/mno-hw-mul/libgcc.a(_div_df.o)
 .comment       0x00000000       0x27 /opt/altera/13.0sp1/nios2eds/bin/gnu/H-i686-pc-linux-gnu/bin/../lib/gcc/nios2-elf/4.1.2/mno-hw-mul/libgcc.a(_si_to_df.o)
 .comment       0x00000000       0x27 /opt/altera/13.0sp1/nios2eds/bin/gnu/H-i686-pc-linux-gnu/bin/../lib/gcc/nios2-elf/4.1.2/mno-hw-mul/libgcc.a(_df_to_si.o)
 .comment       0x00000000       0x27 /opt/altera/13.0sp1/nios2eds/bin/gnu/H-i686-pc-linux-gnu/bin/../lib/gcc/nios2-elf/4.1.2/mno-hw-mul/libgcc.a(_make_df.o)
 .comment       0x00000000       0x27 /opt/altera/13.0sp1/nios2eds/bin/gnu/H-i686-pc-linux-gnu/bin/../lib/gcc/nios2-elf/4.1.2/mno-hw-mul/libgcc.a(_thenan_df.o)
 .comment       0x00000000       0x27 /opt/altera/13.0sp1/nios2eds/bin/gnu/H-i686-pc-linux-gnu/bin/../lib/gcc/nios2-elf/4.1.2/mno-hw-mul/libgcc.a(lib2-divmod.o)
 .comment       0x00000000       0x27 /opt/altera/13.0sp1/nios2eds/bin/gnu/H-i686-pc-linux-gnu/bin/../lib/gcc/nios2-elf/4.1.2/mno-hw-mul/libgcc.a(lib2-mul.o)
 .comment       0x00000000       0x27 /opt/altera/13.0sp1/nios2eds/bin/gnu/H-i686-pc-linux-gnu/bin/../lib/gcc/nios2-elf/4.1.2/mno-hw-mul/libgcc.a(_clzsi2.o)
 .comment       0x00000000       0x27 /opt/altera/13.0sp1/nios2eds/bin/gnu/H-i686-pc-linux-gnu/bin/../lib/gcc/nios2-elf/4.1.2/mno-hw-mul/libgcc.a(_pack_sf.o)
 .comment       0x00000000       0x27 /opt/altera/13.0sp1/nios2eds/bin/gnu/H-i686-pc-linux-gnu/bin/../lib/gcc/nios2-elf/4.1.2/mno-hw-mul/libgcc.a(_unpack_sf.o)
 .comment       0x00000000       0x27 /opt/altera/13.0sp1/nios2eds/bin/gnu/H-i686-pc-linux-gnu/bin/../lib/gcc/nios2-elf/4.1.2/mno-hw-mul/libgcc.a(_pack_df.o)
 .comment       0x00000000       0x27 /opt/altera/13.0sp1/nios2eds/bin/gnu/H-i686-pc-linux-gnu/bin/../lib/gcc/nios2-elf/4.1.2/mno-hw-mul/libgcc.a(_unpack_df.o)
 .comment       0x00000000       0x27 /opt/altera/13.0sp1/nios2eds/bin/gnu/H-i686-pc-linux-gnu/bin/../lib/gcc/nios2-elf/4.1.2/mno-hw-mul/libgcc.a(_clz.o)
 .comment       0x00000000       0x27 /opt/altera/13.0sp1/nios2eds/bin/gnu/H-i686-pc-linux-gnu/bin/../lib/gcc/nios2-elf/4.1.2/../../../../nios2-elf/lib/mno-hw-mul/libc.a(lib_a-printf.o)
 .comment       0x00000000       0x27 /opt/altera/13.0sp1/nios2eds/bin/gnu/H-i686-pc-linux-gnu/bin/../lib/gcc/nios2-elf/4.1.2/../../../../nios2-elf/lib/mno-hw-mul/libc.a(lib_a-puts.o)
 .comment       0x00000000       0x27 /opt/altera/13.0sp1/nios2eds/bin/gnu/H-i686-pc-linux-gnu/bin/../lib/gcc/nios2-elf/4.1.2/../../../../nios2-elf/lib/mno-hw-mul/libc.a(lib_a-strlen.o)
 .comment       0x00000000       0x27 /opt/altera/13.0sp1/nios2eds/bin/gnu/H-i686-pc-linux-gnu/bin/../lib/gcc/nios2-elf/4.1.2/../../../../nios2-elf/lib/mno-hw-mul/libc.a(lib_a-vfprintf.o)
 .comment       0x00000000       0x27 /opt/altera/13.0sp1/nios2eds/bin/gnu/H-i686-pc-linux-gnu/bin/../lib/gcc/nios2-elf/4.1.2/../../../../nios2-elf/lib/mno-hw-mul/libc.a(lib_a-wsetup.o)
 .comment       0x00000000       0x27 /opt/altera/13.0sp1/nios2eds/bin/gnu/H-i686-pc-linux-gnu/bin/../lib/gcc/nios2-elf/4.1.2/../../../../nios2-elf/lib/mno-hw-mul/libc.a(lib_a-dtoa.o)
 .comment       0x00000000       0x27 /opt/altera/13.0sp1/nios2eds/bin/gnu/H-i686-pc-linux-gnu/bin/../lib/gcc/nios2-elf/4.1.2/../../../../nios2-elf/lib/mno-hw-mul/libc.a(lib_a-fflush.o)
 .comment       0x00000000       0x27 /opt/altera/13.0sp1/nios2eds/bin/gnu/H-i686-pc-linux-gnu/bin/../lib/gcc/nios2-elf/4.1.2/../../../../nios2-elf/lib/mno-hw-mul/libc.a(lib_a-findfp.o)
 .comment       0x00000000       0x27 /opt/altera/13.0sp1/nios2eds/bin/gnu/H-i686-pc-linux-gnu/bin/../lib/gcc/nios2-elf/4.1.2/../../../../nios2-elf/lib/mno-hw-mul/libc.a(lib_a-freer.o)
 .comment       0x00000000       0x27 /opt/altera/13.0sp1/nios2eds/bin/gnu/H-i686-pc-linux-gnu/bin/../lib/gcc/nios2-elf/4.1.2/../../../../nios2-elf/lib/mno-hw-mul/libc.a(lib_a-fvwrite.o)
 .comment       0x00000000       0x27 /opt/altera/13.0sp1/nios2eds/bin/gnu/H-i686-pc-linux-gnu/bin/../lib/gcc/nios2-elf/4.1.2/../../../../nios2-elf/lib/mno-hw-mul/libc.a(lib_a-fwalk.o)
 .comment       0x00000000       0x27 /opt/altera/13.0sp1/nios2eds/bin/gnu/H-i686-pc-linux-gnu/bin/../lib/gcc/nios2-elf/4.1.2/../../../../nios2-elf/lib/mno-hw-mul/libc.a(lib_a-impure.o)
 .comment       0x00000000       0x27 /opt/altera/13.0sp1/nios2eds/bin/gnu/H-i686-pc-linux-gnu/bin/../lib/gcc/nios2-elf/4.1.2/../../../../nios2-elf/lib/mno-hw-mul/libc.a(lib_a-locale.o)
 .comment       0x00000000       0x27 /opt/altera/13.0sp1/nios2eds/bin/gnu/H-i686-pc-linux-gnu/bin/../lib/gcc/nios2-elf/4.1.2/../../../../nios2-elf/lib/mno-hw-mul/libc.a(lib_a-makebuf.o)
 .comment       0x00000000       0x27 /opt/altera/13.0sp1/nios2eds/bin/gnu/H-i686-pc-linux-gnu/bin/../lib/gcc/nios2-elf/4.1.2/../../../../nios2-elf/lib/mno-hw-mul/libc.a(lib_a-mallocr.o)
 .comment       0x00000000       0x27 /opt/altera/13.0sp1/nios2eds/bin/gnu/H-i686-pc-linux-gnu/bin/../lib/gcc/nios2-elf/4.1.2/../../../../nios2-elf/lib/mno-hw-mul/libc.a(lib_a-memchr.o)
 .comment       0x00000000       0x27 /opt/altera/13.0sp1/nios2eds/bin/gnu/H-i686-pc-linux-gnu/bin/../lib/gcc/nios2-elf/4.1.2/../../../../nios2-elf/lib/mno-hw-mul/libc.a(lib_a-memcpy.o)
 .comment       0x00000000       0x27 /opt/altera/13.0sp1/nios2eds/bin/gnu/H-i686-pc-linux-gnu/bin/../lib/gcc/nios2-elf/4.1.2/../../../../nios2-elf/lib/mno-hw-mul/libc.a(lib_a-memmove.o)
 .comment       0x00000000       0x27 /opt/altera/13.0sp1/nios2eds/bin/gnu/H-i686-pc-linux-gnu/bin/../lib/gcc/nios2-elf/4.1.2/../../../../nios2-elf/lib/mno-hw-mul/libc.a(lib_a-memset.o)
 .comment       0x00000000       0x27 /opt/altera/13.0sp1/nios2eds/bin/gnu/H-i686-pc-linux-gnu/bin/../lib/gcc/nios2-elf/4.1.2/../../../../nios2-elf/lib/mno-hw-mul/libc.a(lib_a-mprec.o)
 .comment       0x00000000       0x27 /opt/altera/13.0sp1/nios2eds/bin/gnu/H-i686-pc-linux-gnu/bin/../lib/gcc/nios2-elf/4.1.2/../../../../nios2-elf/lib/mno-hw-mul/libc.a(lib_a-reallocr.o)
 .comment       0x00000000       0x27 /opt/altera/13.0sp1/nios2eds/bin/gnu/H-i686-pc-linux-gnu/bin/../lib/gcc/nios2-elf/4.1.2/../../../../nios2-elf/lib/mno-hw-mul/libc.a(lib_a-s_isinfd.o)
 .comment       0x00000000       0x27 /opt/altera/13.0sp1/nios2eds/bin/gnu/H-i686-pc-linux-gnu/bin/../lib/gcc/nios2-elf/4.1.2/../../../../nios2-elf/lib/mno-hw-mul/libc.a(lib_a-s_isnand.o)
 .comment       0x00000000       0x27 /opt/altera/13.0sp1/nios2eds/bin/gnu/H-i686-pc-linux-gnu/bin/../lib/gcc/nios2-elf/4.1.2/../../../../nios2-elf/lib/mno-hw-mul/libc.a(lib_a-sbrkr.o)
 .comment       0x00000000       0x27 /opt/altera/13.0sp1/nios2eds/bin/gnu/H-i686-pc-linux-gnu/bin/../lib/gcc/nios2-elf/4.1.2/../../../../nios2-elf/lib/mno-hw-mul/libc.a(lib_a-stdio.o)
 .comment       0x00000000       0x27 /opt/altera/13.0sp1/nios2eds/bin/gnu/H-i686-pc-linux-gnu/bin/../lib/gcc/nios2-elf/4.1.2/../../../../nios2-elf/lib/mno-hw-mul/libc.a(lib_a-strcmp.o)
 .comment       0x00000000       0x27 /opt/altera/13.0sp1/nios2eds/bin/gnu/H-i686-pc-linux-gnu/bin/../lib/gcc/nios2-elf/4.1.2/../../../../nios2-elf/lib/mno-hw-mul/libc.a(lib_a-writer.o)
 .comment       0x00000000       0x27 /opt/altera/13.0sp1/nios2eds/bin/gnu/H-i686-pc-linux-gnu/bin/../lib/gcc/nios2-elf/4.1.2/../../../../nios2-elf/lib/mno-hw-mul/libc.a(lib_a-callocr.o)
 .comment       0x00000000       0x27 /opt/altera/13.0sp1/nios2eds/bin/gnu/H-i686-pc-linux-gnu/bin/../lib/gcc/nios2-elf/4.1.2/../../../../nios2-elf/lib/mno-hw-mul/libc.a(lib_a-closer.o)
 .comment       0x00000000       0x27 /opt/altera/13.0sp1/nios2eds/bin/gnu/H-i686-pc-linux-gnu/bin/../lib/gcc/nios2-elf/4.1.2/../../../../nios2-elf/lib/mno-hw-mul/libc.a(lib_a-fclose.o)
 .comment       0x00000000       0x27 /opt/altera/13.0sp1/nios2eds/bin/gnu/H-i686-pc-linux-gnu/bin/../lib/gcc/nios2-elf/4.1.2/../../../../nios2-elf/lib/mno-hw-mul/libc.a(lib_a-fstatr.o)
 .comment       0x00000000       0x27 /opt/altera/13.0sp1/nios2eds/bin/gnu/H-i686-pc-linux-gnu/bin/../lib/gcc/nios2-elf/4.1.2/../../../../nios2-elf/lib/mno-hw-mul/libc.a(lib_a-int_errno.o)
 .comment       0x00000000       0x27 /opt/altera/13.0sp1/nios2eds/bin/gnu/H-i686-pc-linux-gnu/bin/../lib/gcc/nios2-elf/4.1.2/../../../../nios2-elf/lib/mno-hw-mul/libc.a(lib_a-isattyr.o)
 .comment       0x00000000       0x27 /opt/altera/13.0sp1/nios2eds/bin/gnu/H-i686-pc-linux-gnu/bin/../lib/gcc/nios2-elf/4.1.2/../../../../nios2-elf/lib/mno-hw-mul/libc.a(lib_a-lseekr.o)
 .comment       0x00000000       0x27 /opt/altera/13.0sp1/nios2eds/bin/gnu/H-i686-pc-linux-gnu/bin/../lib/gcc/nios2-elf/4.1.2/../../../../nios2-elf/lib/mno-hw-mul/libc.a(lib_a-readr.o)
 .comment       0x00000000       0x27 /opt/altera/13.0sp1/nios2eds/bin/gnu/H-i686-pc-linux-gnu/bin/../lib/gcc/nios2-elf/4.1.2/mno-hw-mul/libgcc.a(_udivdi3.o)
 .comment       0x00000000       0x27 /opt/altera/13.0sp1/nios2eds/bin/gnu/H-i686-pc-linux-gnu/bin/../lib/gcc/nios2-elf/4.1.2/mno-hw-mul/libgcc.a(_umoddi3.o)
 .comment       0x00000000       0x27 /opt/altera/13.0sp1/nios2eds/bin/gnu/H-i686-pc-linux-gnu/bin/../lib/gcc/nios2-elf/4.1.2/mno-hw-mul/libgcc.a(_mul_df.o)
 .comment       0x00000000       0x27 /opt/altera/13.0sp1/nios2eds/bin/gnu/H-i686-pc-linux-gnu/bin/../lib/gcc/nios2-elf/4.1.2/mno-hw-mul/libgcc.a(_eq_df.o)
 .comment       0x00000000       0x27 /opt/altera/13.0sp1/nios2eds/bin/gnu/H-i686-pc-linux-gnu/bin/../lib/gcc/nios2-elf/4.1.2/mno-hw-mul/libgcc.a(_ne_df.o)
 .comment       0x00000000       0x27 /opt/altera/13.0sp1/nios2eds/bin/gnu/H-i686-pc-linux-gnu/bin/../lib/gcc/nios2-elf/4.1.2/mno-hw-mul/libgcc.a(_gt_df.o)
 .comment       0x00000000       0x27 /opt/altera/13.0sp1/nios2eds/bin/gnu/H-i686-pc-linux-gnu/bin/../lib/gcc/nios2-elf/4.1.2/mno-hw-mul/libgcc.a(_ge_df.o)
 .comment       0x00000000       0x27 /opt/altera/13.0sp1/nios2eds/bin/gnu/H-i686-pc-linux-gnu/bin/../lib/gcc/nios2-elf/4.1.2/mno-hw-mul/libgcc.a(_lt_df.o)
 .comment       0x00000000       0x27 /opt/altera/13.0sp1/nios2eds/bin/gnu/H-i686-pc-linux-gnu/bin/../lib/gcc/nios2-elf/4.1.2/mno-hw-mul/libgcc.a(_usi_to_df.o)
 .comment       0x00000000       0x27 /opt/altera/13.0sp1/nios2eds/bin/gnu/H-i686-pc-linux-gnu/bin/../lib/gcc/nios2-elf/4.1.2/mno-hw-mul/libgcc.a(_muldi3.o)
 .comment       0x00000000       0x27 /opt/altera/13.0sp1/nios2eds/bin/gnu/H-i686-pc-linux-gnu/bin/../lib/gcc/nios2-elf/4.1.2/mno-hw-mul/libgcc.a(_fpcmp_parts_df.o)
 .comment       0x00000000       0x27 ../lab2_cruisecontrol_bsp//libucosii_bsp.a(alt_alarm_start.o)
 .comment       0x00000000       0x27 ../lab2_cruisecontrol_bsp//libucosii_bsp.a(alt_close.o)
 .comment       0x00000000       0x27 ../lab2_cruisecontrol_bsp//libucosii_bsp.a(alt_dev.o)
 .comment       0x00000000       0x27 ../lab2_cruisecontrol_bsp//libucosii_bsp.a(alt_errno.o)
 .comment       0x00000000       0x27 ../lab2_cruisecontrol_bsp//libucosii_bsp.a(alt_fstat.o)
 .comment       0x00000000       0x27 ../lab2_cruisecontrol_bsp//libucosii_bsp.a(alt_isatty.o)
 .comment       0x00000000       0x27 ../lab2_cruisecontrol_bsp//libucosii_bsp.a(alt_load.o)
 .comment       0x00000000       0x27 ../lab2_cruisecontrol_bsp//libucosii_bsp.a(alt_lseek.o)
 .comment       0x00000000       0x27 ../lab2_cruisecontrol_bsp//libucosii_bsp.a(alt_main.o)
 .comment       0x00000000       0x27 ../lab2_cruisecontrol_bsp//libucosii_bsp.a(alt_read.o)
 .comment       0x00000000       0x27 ../lab2_cruisecontrol_bsp//libucosii_bsp.a(alt_release_fd.o)
 .comment       0x00000000       0x27 ../lab2_cruisecontrol_bsp//libucosii_bsp.a(alt_sbrk.o)
 .comment       0x00000000       0x27 ../lab2_cruisecontrol_bsp//libucosii_bsp.a(alt_tick.o)
 .comment       0x00000000       0x27 ../lab2_cruisecontrol_bsp//libucosii_bsp.a(alt_write.o)
 .comment       0x00000000       0x27 ../lab2_cruisecontrol_bsp//libucosii_bsp.a(alt_env_lock.o)
 .comment       0x00000000       0x27 ../lab2_cruisecontrol_bsp//libucosii_bsp.a(alt_malloc_lock.o)
 .comment       0x00000000       0x27 ../lab2_cruisecontrol_bsp//libucosii_bsp.a(os_core.o)
 .comment       0x00000000       0x27 ../lab2_cruisecontrol_bsp//libucosii_bsp.a(os_dbg.o)
 .comment       0x00000000       0x27 ../lab2_cruisecontrol_bsp//libucosii_bsp.a(os_flag.o)
 .comment       0x00000000       0x27 ../lab2_cruisecontrol_bsp//libucosii_bsp.a(os_mbox.o)
 .comment       0x00000000       0x27 ../lab2_cruisecontrol_bsp//libucosii_bsp.a(os_mem.o)
 .comment       0x00000000       0x27 ../lab2_cruisecontrol_bsp//libucosii_bsp.a(os_q.o)
 .comment       0x00000000       0x27 ../lab2_cruisecontrol_bsp//libucosii_bsp.a(os_sem.o)
 .comment       0x00000000       0x27 ../lab2_cruisecontrol_bsp//libucosii_bsp.a(os_task.o)
 .comment       0x00000000       0x27 ../lab2_cruisecontrol_bsp//libucosii_bsp.a(os_time.o)
 .comment       0x00000000       0x27 ../lab2_cruisecontrol_bsp//libucosii_bsp.a(os_tmr.o)
 .comment       0x00000000       0x27 ../lab2_cruisecontrol_bsp//libucosii_bsp.a(alt_sys_init.o)
 .comment       0x00000000       0x27 ../lab2_cruisecontrol_bsp//libucosii_bsp.a(altera_avalon_jtag_uart_fd.o)
 .comment       0x00000000       0x27 ../lab2_cruisecontrol_bsp//libucosii_bsp.a(altera_avalon_jtag_uart_init.o)
 .comment       0x00000000       0x27 ../lab2_cruisecontrol_bsp//libucosii_bsp.a(altera_avalon_jtag_uart_ioctl.o)
 .comment       0x00000000       0x27 ../lab2_cruisecontrol_bsp//libucosii_bsp.a(altera_avalon_jtag_uart_read.o)
 .comment       0x00000000       0x27 ../lab2_cruisecontrol_bsp//libucosii_bsp.a(altera_avalon_jtag_uart_write.o)
 .comment       0x00000000       0x27 ../lab2_cruisecontrol_bsp//libucosii_bsp.a(altera_avalon_timer_sc.o)
 .comment       0x00000000       0x27 ../lab2_cruisecontrol_bsp//libucosii_bsp.a(altera_up_avalon_character_lcd.o)
 .comment       0x00000000       0x27 ../lab2_cruisecontrol_bsp//libucosii_bsp.a(alt_dcache_flush_all.o)
 .comment       0x00000000       0x27 ../lab2_cruisecontrol_bsp//libucosii_bsp.a(alt_dev_llist_insert.o)
 .comment       0x00000000       0x27 ../lab2_cruisecontrol_bsp//libucosii_bsp.a(alt_do_ctors.o)
 .comment       0x00000000       0x27 ../lab2_cruisecontrol_bsp//libucosii_bsp.a(alt_do_dtors.o)
 .comment       0x00000000       0x27 ../lab2_cruisecontrol_bsp//libucosii_bsp.a(alt_find_dev.o)
 .comment       0x00000000       0x27 ../lab2_cruisecontrol_bsp//libucosii_bsp.a(alt_icache_flush_all.o)
 .comment       0x00000000       0x27 ../lab2_cruisecontrol_bsp//libucosii_bsp.a(alt_iic.o)
 .comment       0x00000000       0x27 ../lab2_cruisecontrol_bsp//libucosii_bsp.a(alt_iic_isr_register.o)
 .comment       0x00000000       0x27 ../lab2_cruisecontrol_bsp//libucosii_bsp.a(alt_io_redirect.o)
 .comment       0x00000000       0x27 ../lab2_cruisecontrol_bsp//libucosii_bsp.a(alt_irq_handler.o)
 .comment       0x00000000       0x27 ../lab2_cruisecontrol_bsp//libucosii_bsp.a(alt_irq_vars.o)
 .comment       0x00000000       0x27 ../lab2_cruisecontrol_bsp//libucosii_bsp.a(alt_open.o)
 .comment       0x00000000       0x27 ../lab2_cruisecontrol_bsp//libucosii_bsp.a(altera_nios2_qsys_irq.o)
 .comment       0x00000000       0x27 ../lab2_cruisecontrol_bsp//libucosii_bsp.a(os_cpu_c.o)
 .comment       0x00000000       0x27 ../lab2_cruisecontrol_bsp//libucosii_bsp.a(alt_find_file.o)
 .comment       0x00000000       0x27 ../lab2_cruisecontrol_bsp//libucosii_bsp.a(alt_get_fd.o)
 .comment       0x00000000       0x27 /opt/altera/13.0sp1/nios2eds/bin/gnu/H-i686-pc-linux-gnu/bin/../lib/gcc/nios2-elf/4.1.2/../../../../nios2-elf/lib/mno-hw-mul/libc.a(lib_a-atexit.o)
 .comment       0x00000000       0x27 /opt/altera/13.0sp1/nios2eds/bin/gnu/H-i686-pc-linux-gnu/bin/../lib/gcc/nios2-elf/4.1.2/../../../../nios2-elf/lib/mno-hw-mul/libc.a(lib_a-exit.o)
 .comment       0x00000000       0x27 /opt/altera/13.0sp1/nios2eds/bin/gnu/H-i686-pc-linux-gnu/bin/../lib/gcc/nios2-elf/4.1.2/../../../../nios2-elf/lib/mno-hw-mul/libc.a(lib_a-memcmp.o)
 .comment       0x00000000       0x27 /opt/altera/13.0sp1/nios2eds/bin/gnu/H-i686-pc-linux-gnu/bin/../lib/gcc/nios2-elf/4.1.2/../../../../nios2-elf/lib/mno-hw-mul/libc.a(lib_a-__atexit.o)
 .comment       0x00000000       0x27 /opt/altera/13.0sp1/nios2eds/bin/gnu/H-i686-pc-linux-gnu/bin/../lib/gcc/nios2-elf/4.1.2/../../../../nios2-elf/lib/mno-hw-mul/libc.a(lib_a-__call_atexit.o)
 .comment       0x00000000       0x27 /opt/altera/13.0sp1/nios2eds/bin/gnu/H-i686-pc-linux-gnu/bin/../lib/gcc/nios2-elf/4.1.2/mno-hw-mul/libgcc.a(_fixunsdfsi.o)
 .comment       0x00000000       0x27 ../lab2_cruisecontrol_bsp//libucosii_bsp.a(alt_exit.o)

.debug
 *(.debug)

.line
 *(.line)

.debug_srcinfo
 *(.debug_srcinfo)

.debug_sfnames
 *(.debug_sfnames)

.debug_aranges  0x00000000      0xef8
 *(.debug_aranges)
 .debug_aranges
                0x00000000       0x28 ../lab2_cruisecontrol_bsp//obj/HAL/src/crt0.o
 .debug_aranges
                0x00000028       0x20 obj/default/cruise_skeleton.o
 .debug_aranges
                0x00000048       0x20 /opt/altera/13.0sp1/nios2eds/bin/gnu/H-i686-pc-linux-gnu/bin/../lib/gcc/nios2-elf/4.1.2/mno-hw-mul/libgcc.a(_si_to_sf.o)
 .debug_aranges
                0x00000068       0x20 /opt/altera/13.0sp1/nios2eds/bin/gnu/H-i686-pc-linux-gnu/bin/../lib/gcc/nios2-elf/4.1.2/mno-hw-mul/libgcc.a(_sf_to_df.o)
 .debug_aranges
                0x00000088       0x20 /opt/altera/13.0sp1/nios2eds/bin/gnu/H-i686-pc-linux-gnu/bin/../lib/gcc/nios2-elf/4.1.2/mno-hw-mul/libgcc.a(_addsub_df.o)
 .debug_aranges
                0x000000a8       0x20 /opt/altera/13.0sp1/nios2eds/bin/gnu/H-i686-pc-linux-gnu/bin/../lib/gcc/nios2-elf/4.1.2/mno-hw-mul/libgcc.a(_div_df.o)
 .debug_aranges
                0x000000c8       0x20 /opt/altera/13.0sp1/nios2eds/bin/gnu/H-i686-pc-linux-gnu/bin/../lib/gcc/nios2-elf/4.1.2/mno-hw-mul/libgcc.a(_si_to_df.o)
 .debug_aranges
                0x000000e8       0x20 /opt/altera/13.0sp1/nios2eds/bin/gnu/H-i686-pc-linux-gnu/bin/../lib/gcc/nios2-elf/4.1.2/mno-hw-mul/libgcc.a(_df_to_si.o)
 .debug_aranges
                0x00000108       0x20 /opt/altera/13.0sp1/nios2eds/bin/gnu/H-i686-pc-linux-gnu/bin/../lib/gcc/nios2-elf/4.1.2/mno-hw-mul/libgcc.a(_make_df.o)
 .debug_aranges
                0x00000128       0x20 /opt/altera/13.0sp1/nios2eds/bin/gnu/H-i686-pc-linux-gnu/bin/../lib/gcc/nios2-elf/4.1.2/mno-hw-mul/libgcc.a(lib2-divmod.o)
 .debug_aranges
                0x00000148       0x20 /opt/altera/13.0sp1/nios2eds/bin/gnu/H-i686-pc-linux-gnu/bin/../lib/gcc/nios2-elf/4.1.2/mno-hw-mul/libgcc.a(lib2-mul.o)
 .debug_aranges
                0x00000168       0x20 /opt/altera/13.0sp1/nios2eds/bin/gnu/H-i686-pc-linux-gnu/bin/../lib/gcc/nios2-elf/4.1.2/mno-hw-mul/libgcc.a(_clzsi2.o)
 .debug_aranges
                0x00000188       0x20 /opt/altera/13.0sp1/nios2eds/bin/gnu/H-i686-pc-linux-gnu/bin/../lib/gcc/nios2-elf/4.1.2/mno-hw-mul/libgcc.a(_pack_sf.o)
 .debug_aranges
                0x000001a8       0x20 /opt/altera/13.0sp1/nios2eds/bin/gnu/H-i686-pc-linux-gnu/bin/../lib/gcc/nios2-elf/4.1.2/mno-hw-mul/libgcc.a(_unpack_sf.o)
 .debug_aranges
                0x000001c8       0x20 /opt/altera/13.0sp1/nios2eds/bin/gnu/H-i686-pc-linux-gnu/bin/../lib/gcc/nios2-elf/4.1.2/mno-hw-mul/libgcc.a(_pack_df.o)
 .debug_aranges
                0x000001e8       0x20 /opt/altera/13.0sp1/nios2eds/bin/gnu/H-i686-pc-linux-gnu/bin/../lib/gcc/nios2-elf/4.1.2/mno-hw-mul/libgcc.a(_unpack_df.o)
 .debug_aranges
                0x00000208       0x20 /opt/altera/13.0sp1/nios2eds/bin/gnu/H-i686-pc-linux-gnu/bin/../lib/gcc/nios2-elf/4.1.2/../../../../nios2-elf/lib/mno-hw-mul/libc.a(lib_a-printf.o)
 .debug_aranges
                0x00000228       0x20 /opt/altera/13.0sp1/nios2eds/bin/gnu/H-i686-pc-linux-gnu/bin/../lib/gcc/nios2-elf/4.1.2/../../../../nios2-elf/lib/mno-hw-mul/libc.a(lib_a-puts.o)
 .debug_aranges
                0x00000248       0x20 /opt/altera/13.0sp1/nios2eds/bin/gnu/H-i686-pc-linux-gnu/bin/../lib/gcc/nios2-elf/4.1.2/../../../../nios2-elf/lib/mno-hw-mul/libc.a(lib_a-strlen.o)
 .debug_aranges
                0x00000268       0x20 /opt/altera/13.0sp1/nios2eds/bin/gnu/H-i686-pc-linux-gnu/bin/../lib/gcc/nios2-elf/4.1.2/../../../../nios2-elf/lib/mno-hw-mul/libc.a(lib_a-vfprintf.o)
 .debug_aranges
                0x00000288       0x20 /opt/altera/13.0sp1/nios2eds/bin/gnu/H-i686-pc-linux-gnu/bin/../lib/gcc/nios2-elf/4.1.2/../../../../nios2-elf/lib/mno-hw-mul/libc.a(lib_a-wsetup.o)
 .debug_aranges
                0x000002a8       0x20 /opt/altera/13.0sp1/nios2eds/bin/gnu/H-i686-pc-linux-gnu/bin/../lib/gcc/nios2-elf/4.1.2/../../../../nios2-elf/lib/mno-hw-mul/libc.a(lib_a-dtoa.o)
 .debug_aranges
                0x000002c8       0x20 /opt/altera/13.0sp1/nios2eds/bin/gnu/H-i686-pc-linux-gnu/bin/../lib/gcc/nios2-elf/4.1.2/../../../../nios2-elf/lib/mno-hw-mul/libc.a(lib_a-fflush.o)
 .debug_aranges
                0x000002e8       0x20 /opt/altera/13.0sp1/nios2eds/bin/gnu/H-i686-pc-linux-gnu/bin/../lib/gcc/nios2-elf/4.1.2/../../../../nios2-elf/lib/mno-hw-mul/libc.a(lib_a-findfp.o)
 .debug_aranges
                0x00000308       0x20 /opt/altera/13.0sp1/nios2eds/bin/gnu/H-i686-pc-linux-gnu/bin/../lib/gcc/nios2-elf/4.1.2/../../../../nios2-elf/lib/mno-hw-mul/libc.a(lib_a-freer.o)
 .debug_aranges
                0x00000328       0x20 /opt/altera/13.0sp1/nios2eds/bin/gnu/H-i686-pc-linux-gnu/bin/../lib/gcc/nios2-elf/4.1.2/../../../../nios2-elf/lib/mno-hw-mul/libc.a(lib_a-fvwrite.o)
 .debug_aranges
                0x00000348       0x20 /opt/altera/13.0sp1/nios2eds/bin/gnu/H-i686-pc-linux-gnu/bin/../lib/gcc/nios2-elf/4.1.2/../../../../nios2-elf/lib/mno-hw-mul/libc.a(lib_a-fwalk.o)
 .debug_aranges
                0x00000368       0x20 /opt/altera/13.0sp1/nios2eds/bin/gnu/H-i686-pc-linux-gnu/bin/../lib/gcc/nios2-elf/4.1.2/../../../../nios2-elf/lib/mno-hw-mul/libc.a(lib_a-locale.o)
 .debug_aranges
                0x00000388       0x20 /opt/altera/13.0sp1/nios2eds/bin/gnu/H-i686-pc-linux-gnu/bin/../lib/gcc/nios2-elf/4.1.2/../../../../nios2-elf/lib/mno-hw-mul/libc.a(lib_a-makebuf.o)
 .debug_aranges
                0x000003a8       0x20 /opt/altera/13.0sp1/nios2eds/bin/gnu/H-i686-pc-linux-gnu/bin/../lib/gcc/nios2-elf/4.1.2/../../../../nios2-elf/lib/mno-hw-mul/libc.a(lib_a-mallocr.o)
 .debug_aranges
                0x000003c8       0x20 /opt/altera/13.0sp1/nios2eds/bin/gnu/H-i686-pc-linux-gnu/bin/../lib/gcc/nios2-elf/4.1.2/../../../../nios2-elf/lib/mno-hw-mul/libc.a(lib_a-memchr.o)
 .debug_aranges
                0x000003e8       0x20 /opt/altera/13.0sp1/nios2eds/bin/gnu/H-i686-pc-linux-gnu/bin/../lib/gcc/nios2-elf/4.1.2/../../../../nios2-elf/lib/mno-hw-mul/libc.a(lib_a-memcpy.o)
 .debug_aranges
                0x00000408       0x20 /opt/altera/13.0sp1/nios2eds/bin/gnu/H-i686-pc-linux-gnu/bin/../lib/gcc/nios2-elf/4.1.2/../../../../nios2-elf/lib/mno-hw-mul/libc.a(lib_a-memmove.o)
 .debug_aranges
                0x00000428       0x20 /opt/altera/13.0sp1/nios2eds/bin/gnu/H-i686-pc-linux-gnu/bin/../lib/gcc/nios2-elf/4.1.2/../../../../nios2-elf/lib/mno-hw-mul/libc.a(lib_a-memset.o)
 .debug_aranges
                0x00000448       0x20 /opt/altera/13.0sp1/nios2eds/bin/gnu/H-i686-pc-linux-gnu/bin/../lib/gcc/nios2-elf/4.1.2/../../../../nios2-elf/lib/mno-hw-mul/libc.a(lib_a-mprec.o)
 .debug_aranges
                0x00000468       0x20 /opt/altera/13.0sp1/nios2eds/bin/gnu/H-i686-pc-linux-gnu/bin/../lib/gcc/nios2-elf/4.1.2/../../../../nios2-elf/lib/mno-hw-mul/libc.a(lib_a-reallocr.o)
 .debug_aranges
                0x00000488       0x20 /opt/altera/13.0sp1/nios2eds/bin/gnu/H-i686-pc-linux-gnu/bin/../lib/gcc/nios2-elf/4.1.2/../../../../nios2-elf/lib/mno-hw-mul/libc.a(lib_a-s_isinfd.o)
 .debug_aranges
                0x000004a8       0x20 /opt/altera/13.0sp1/nios2eds/bin/gnu/H-i686-pc-linux-gnu/bin/../lib/gcc/nios2-elf/4.1.2/../../../../nios2-elf/lib/mno-hw-mul/libc.a(lib_a-s_isnand.o)
 .debug_aranges
                0x000004c8       0x20 /opt/altera/13.0sp1/nios2eds/bin/gnu/H-i686-pc-linux-gnu/bin/../lib/gcc/nios2-elf/4.1.2/../../../../nios2-elf/lib/mno-hw-mul/libc.a(lib_a-sbrkr.o)
 .debug_aranges
                0x000004e8       0x20 /opt/altera/13.0sp1/nios2eds/bin/gnu/H-i686-pc-linux-gnu/bin/../lib/gcc/nios2-elf/4.1.2/../../../../nios2-elf/lib/mno-hw-mul/libc.a(lib_a-stdio.o)
 .debug_aranges
                0x00000508       0x20 /opt/altera/13.0sp1/nios2eds/bin/gnu/H-i686-pc-linux-gnu/bin/../lib/gcc/nios2-elf/4.1.2/../../../../nios2-elf/lib/mno-hw-mul/libc.a(lib_a-strcmp.o)
 .debug_aranges
                0x00000528       0x20 /opt/altera/13.0sp1/nios2eds/bin/gnu/H-i686-pc-linux-gnu/bin/../lib/gcc/nios2-elf/4.1.2/../../../../nios2-elf/lib/mno-hw-mul/libc.a(lib_a-writer.o)
 .debug_aranges
                0x00000548       0x20 /opt/altera/13.0sp1/nios2eds/bin/gnu/H-i686-pc-linux-gnu/bin/../lib/gcc/nios2-elf/4.1.2/../../../../nios2-elf/lib/mno-hw-mul/libc.a(lib_a-callocr.o)
 .debug_aranges
                0x00000568       0x20 /opt/altera/13.0sp1/nios2eds/bin/gnu/H-i686-pc-linux-gnu/bin/../lib/gcc/nios2-elf/4.1.2/../../../../nios2-elf/lib/mno-hw-mul/libc.a(lib_a-closer.o)
 .debug_aranges
                0x00000588       0x20 /opt/altera/13.0sp1/nios2eds/bin/gnu/H-i686-pc-linux-gnu/bin/../lib/gcc/nios2-elf/4.1.2/../../../../nios2-elf/lib/mno-hw-mul/libc.a(lib_a-fclose.o)
 .debug_aranges
                0x000005a8       0x20 /opt/altera/13.0sp1/nios2eds/bin/gnu/H-i686-pc-linux-gnu/bin/../lib/gcc/nios2-elf/4.1.2/../../../../nios2-elf/lib/mno-hw-mul/libc.a(lib_a-fstatr.o)
 .debug_aranges
                0x000005c8       0x20 /opt/altera/13.0sp1/nios2eds/bin/gnu/H-i686-pc-linux-gnu/bin/../lib/gcc/nios2-elf/4.1.2/../../../../nios2-elf/lib/mno-hw-mul/libc.a(lib_a-isattyr.o)
 .debug_aranges
                0x000005e8       0x20 /opt/altera/13.0sp1/nios2eds/bin/gnu/H-i686-pc-linux-gnu/bin/../lib/gcc/nios2-elf/4.1.2/../../../../nios2-elf/lib/mno-hw-mul/libc.a(lib_a-lseekr.o)
 .debug_aranges
                0x00000608       0x20 /opt/altera/13.0sp1/nios2eds/bin/gnu/H-i686-pc-linux-gnu/bin/../lib/gcc/nios2-elf/4.1.2/../../../../nios2-elf/lib/mno-hw-mul/libc.a(lib_a-readr.o)
 .debug_aranges
                0x00000628       0x20 /opt/altera/13.0sp1/nios2eds/bin/gnu/H-i686-pc-linux-gnu/bin/../lib/gcc/nios2-elf/4.1.2/mno-hw-mul/libgcc.a(_udivdi3.o)
 .debug_aranges
                0x00000648       0x20 /opt/altera/13.0sp1/nios2eds/bin/gnu/H-i686-pc-linux-gnu/bin/../lib/gcc/nios2-elf/4.1.2/mno-hw-mul/libgcc.a(_umoddi3.o)
 .debug_aranges
                0x00000668       0x20 /opt/altera/13.0sp1/nios2eds/bin/gnu/H-i686-pc-linux-gnu/bin/../lib/gcc/nios2-elf/4.1.2/mno-hw-mul/libgcc.a(_mul_df.o)
 .debug_aranges
                0x00000688       0x20 /opt/altera/13.0sp1/nios2eds/bin/gnu/H-i686-pc-linux-gnu/bin/../lib/gcc/nios2-elf/4.1.2/mno-hw-mul/libgcc.a(_eq_df.o)
 .debug_aranges
                0x000006a8       0x20 /opt/altera/13.0sp1/nios2eds/bin/gnu/H-i686-pc-linux-gnu/bin/../lib/gcc/nios2-elf/4.1.2/mno-hw-mul/libgcc.a(_ne_df.o)
 .debug_aranges
                0x000006c8       0x20 /opt/altera/13.0sp1/nios2eds/bin/gnu/H-i686-pc-linux-gnu/bin/../lib/gcc/nios2-elf/4.1.2/mno-hw-mul/libgcc.a(_gt_df.o)
 .debug_aranges
                0x000006e8       0x20 /opt/altera/13.0sp1/nios2eds/bin/gnu/H-i686-pc-linux-gnu/bin/../lib/gcc/nios2-elf/4.1.2/mno-hw-mul/libgcc.a(_ge_df.o)
 .debug_aranges
                0x00000708       0x20 /opt/altera/13.0sp1/nios2eds/bin/gnu/H-i686-pc-linux-gnu/bin/../lib/gcc/nios2-elf/4.1.2/mno-hw-mul/libgcc.a(_lt_df.o)
 .debug_aranges
                0x00000728       0x20 /opt/altera/13.0sp1/nios2eds/bin/gnu/H-i686-pc-linux-gnu/bin/../lib/gcc/nios2-elf/4.1.2/mno-hw-mul/libgcc.a(_usi_to_df.o)
 .debug_aranges
                0x00000748       0x20 /opt/altera/13.0sp1/nios2eds/bin/gnu/H-i686-pc-linux-gnu/bin/../lib/gcc/nios2-elf/4.1.2/mno-hw-mul/libgcc.a(_muldi3.o)
 .debug_aranges
                0x00000768       0x20 /opt/altera/13.0sp1/nios2eds/bin/gnu/H-i686-pc-linux-gnu/bin/../lib/gcc/nios2-elf/4.1.2/mno-hw-mul/libgcc.a(_fpcmp_parts_df.o)
 .debug_aranges
                0x00000788       0x20 ../lab2_cruisecontrol_bsp//libucosii_bsp.a(alt_alarm_start.o)
 .debug_aranges
                0x000007a8       0x20 ../lab2_cruisecontrol_bsp//libucosii_bsp.a(alt_close.o)
 .debug_aranges
                0x000007c8       0x20 ../lab2_cruisecontrol_bsp//libucosii_bsp.a(alt_dev.o)
 .debug_aranges
                0x000007e8       0x20 ../lab2_cruisecontrol_bsp//libucosii_bsp.a(alt_fstat.o)
 .debug_aranges
                0x00000808       0x20 ../lab2_cruisecontrol_bsp//libucosii_bsp.a(alt_isatty.o)
 .debug_aranges
                0x00000828       0x20 ../lab2_cruisecontrol_bsp//libucosii_bsp.a(alt_load.o)
 .debug_aranges
                0x00000848       0x20 ../lab2_cruisecontrol_bsp//libucosii_bsp.a(alt_lseek.o)
 .debug_aranges
                0x00000868       0x20 ../lab2_cruisecontrol_bsp//libucosii_bsp.a(alt_main.o)
 .debug_aranges
                0x00000888       0x20 ../lab2_cruisecontrol_bsp//libucosii_bsp.a(alt_read.o)
 .debug_aranges
                0x000008a8       0x20 ../lab2_cruisecontrol_bsp//libucosii_bsp.a(alt_release_fd.o)
 .debug_aranges
                0x000008c8       0x20 ../lab2_cruisecontrol_bsp//libucosii_bsp.a(alt_sbrk.o)
 .debug_aranges
                0x000008e8       0x20 ../lab2_cruisecontrol_bsp//libucosii_bsp.a(alt_tick.o)
 .debug_aranges
                0x00000908       0x20 ../lab2_cruisecontrol_bsp//libucosii_bsp.a(alt_write.o)
 .debug_aranges
                0x00000928       0x20 ../lab2_cruisecontrol_bsp//libucosii_bsp.a(alt_env_lock.o)
 .debug_aranges
                0x00000948       0x20 ../lab2_cruisecontrol_bsp//libucosii_bsp.a(alt_malloc_lock.o)
 .debug_aranges
                0x00000968       0x20 ../lab2_cruisecontrol_bsp//libucosii_bsp.a(os_core.o)
 .debug_aranges
                0x00000988       0x20 ../lab2_cruisecontrol_bsp//libucosii_bsp.a(os_dbg.o)
 .debug_aranges
                0x000009a8       0x20 ../lab2_cruisecontrol_bsp//libucosii_bsp.a(os_flag.o)
 .debug_aranges
                0x000009c8       0x20 ../lab2_cruisecontrol_bsp//libucosii_bsp.a(os_mbox.o)
 .debug_aranges
                0x000009e8       0x20 ../lab2_cruisecontrol_bsp//libucosii_bsp.a(os_mem.o)
 .debug_aranges
                0x00000a08       0x20 ../lab2_cruisecontrol_bsp//libucosii_bsp.a(os_q.o)
 .debug_aranges
                0x00000a28       0x20 ../lab2_cruisecontrol_bsp//libucosii_bsp.a(os_sem.o)
 .debug_aranges
                0x00000a48       0x20 ../lab2_cruisecontrol_bsp//libucosii_bsp.a(os_task.o)
 .debug_aranges
                0x00000a68       0x20 ../lab2_cruisecontrol_bsp//libucosii_bsp.a(os_time.o)
 .debug_aranges
                0x00000a88       0x20 ../lab2_cruisecontrol_bsp//libucosii_bsp.a(os_tmr.o)
 .debug_aranges
                0x00000aa8       0x20 ../lab2_cruisecontrol_bsp//libucosii_bsp.a(alt_sys_init.o)
 .debug_aranges
                0x00000ac8       0x20 ../lab2_cruisecontrol_bsp//libucosii_bsp.a(altera_avalon_jtag_uart_fd.o)
 .debug_aranges
                0x00000ae8       0x20 ../lab2_cruisecontrol_bsp//libucosii_bsp.a(altera_avalon_jtag_uart_init.o)
 .debug_aranges
                0x00000b08       0x20 ../lab2_cruisecontrol_bsp//libucosii_bsp.a(altera_avalon_jtag_uart_ioctl.o)
 .debug_aranges
                0x00000b28       0x20 ../lab2_cruisecontrol_bsp//libucosii_bsp.a(altera_avalon_jtag_uart_read.o)
 .debug_aranges
                0x00000b48       0x20 ../lab2_cruisecontrol_bsp//libucosii_bsp.a(altera_avalon_jtag_uart_write.o)
 .debug_aranges
                0x00000b68       0x20 ../lab2_cruisecontrol_bsp//libucosii_bsp.a(altera_avalon_timer_sc.o)
 .debug_aranges
                0x00000b88       0x20 ../lab2_cruisecontrol_bsp//libucosii_bsp.a(altera_up_avalon_character_lcd.o)
 .debug_aranges
                0x00000ba8       0x20 ../lab2_cruisecontrol_bsp//libucosii_bsp.a(alt_dcache_flush_all.o)
 .debug_aranges
                0x00000bc8       0x20 ../lab2_cruisecontrol_bsp//libucosii_bsp.a(alt_dev_llist_insert.o)
 .debug_aranges
                0x00000be8       0x20 ../lab2_cruisecontrol_bsp//libucosii_bsp.a(alt_do_ctors.o)
 .debug_aranges
                0x00000c08       0x20 ../lab2_cruisecontrol_bsp//libucosii_bsp.a(alt_do_dtors.o)
 .debug_aranges
                0x00000c28       0x20 ../lab2_cruisecontrol_bsp//libucosii_bsp.a(alt_find_dev.o)
 .debug_aranges
                0x00000c48       0x20 ../lab2_cruisecontrol_bsp//libucosii_bsp.a(alt_icache_flush_all.o)
 .debug_aranges
                0x00000c68       0x20 ../lab2_cruisecontrol_bsp//libucosii_bsp.a(alt_iic.o)
 .debug_aranges
                0x00000c88       0x20 ../lab2_cruisecontrol_bsp//libucosii_bsp.a(alt_iic_isr_register.o)
 .debug_aranges
                0x00000ca8       0x20 ../lab2_cruisecontrol_bsp//libucosii_bsp.a(alt_io_redirect.o)
 .debug_aranges
                0x00000cc8       0x30 ../lab2_cruisecontrol_bsp//libucosii_bsp.a(alt_irq_entry.o)
 .debug_aranges
                0x00000cf8       0x28 ../lab2_cruisecontrol_bsp//libucosii_bsp.a(alt_irq_handler.o)
 .debug_aranges
                0x00000d20       0x20 ../lab2_cruisecontrol_bsp//libucosii_bsp.a(alt_open.o)
 .debug_aranges
                0x00000d40       0x20 ../lab2_cruisecontrol_bsp//libucosii_bsp.a(altera_nios2_qsys_irq.o)
 .debug_aranges
                0x00000d60       0x20 ../lab2_cruisecontrol_bsp//libucosii_bsp.a(os_cpu_a.o)
 .debug_aranges
                0x00000d80       0x20 ../lab2_cruisecontrol_bsp//libucosii_bsp.a(os_cpu_c.o)
 .debug_aranges
                0x00000da0       0x38 ../lab2_cruisecontrol_bsp//libucosii_bsp.a(alt_exception_entry.o)
 .debug_aranges
                0x00000dd8       0x20 ../lab2_cruisecontrol_bsp//libucosii_bsp.a(alt_find_file.o)
 .debug_aranges
                0x00000df8       0x20 ../lab2_cruisecontrol_bsp//libucosii_bsp.a(alt_get_fd.o)
 .debug_aranges
                0x00000e18       0x20 /opt/altera/13.0sp1/nios2eds/bin/gnu/H-i686-pc-linux-gnu/bin/../lib/gcc/nios2-elf/4.1.2/../../../../nios2-elf/lib/mno-hw-mul/libc.a(lib_a-atexit.o)
 .debug_aranges
                0x00000e38       0x20 /opt/altera/13.0sp1/nios2eds/bin/gnu/H-i686-pc-linux-gnu/bin/../lib/gcc/nios2-elf/4.1.2/../../../../nios2-elf/lib/mno-hw-mul/libc.a(lib_a-exit.o)
 .debug_aranges
                0x00000e58       0x20 /opt/altera/13.0sp1/nios2eds/bin/gnu/H-i686-pc-linux-gnu/bin/../lib/gcc/nios2-elf/4.1.2/../../../../nios2-elf/lib/mno-hw-mul/libc.a(lib_a-memcmp.o)
 .debug_aranges
                0x00000e78       0x20 /opt/altera/13.0sp1/nios2eds/bin/gnu/H-i686-pc-linux-gnu/bin/../lib/gcc/nios2-elf/4.1.2/../../../../nios2-elf/lib/mno-hw-mul/libc.a(lib_a-__atexit.o)
 .debug_aranges
                0x00000e98       0x20 /opt/altera/13.0sp1/nios2eds/bin/gnu/H-i686-pc-linux-gnu/bin/../lib/gcc/nios2-elf/4.1.2/../../../../nios2-elf/lib/mno-hw-mul/libc.a(lib_a-__call_atexit.o)
 .debug_aranges
                0x00000eb8       0x20 /opt/altera/13.0sp1/nios2eds/bin/gnu/H-i686-pc-linux-gnu/bin/../lib/gcc/nios2-elf/4.1.2/mno-hw-mul/libgcc.a(_fixunsdfsi.o)
 .debug_aranges
                0x00000ed8       0x20 ../lab2_cruisecontrol_bsp//libucosii_bsp.a(alt_exit.o)

.debug_pubnames
                0x00000000     0x26ac
 *(.debug_pubnames)
 .debug_pubnames
                0x00000000      0x295 obj/default/cruise_skeleton.o
 .debug_pubnames
                0x00000295       0x22 /opt/altera/13.0sp1/nios2eds/bin/gnu/H-i686-pc-linux-gnu/bin/../lib/gcc/nios2-elf/4.1.2/mno-hw-mul/libgcc.a(_si_to_sf.o)
 .debug_pubnames
                0x000002b7       0x24 /opt/altera/13.0sp1/nios2eds/bin/gnu/H-i686-pc-linux-gnu/bin/../lib/gcc/nios2-elf/4.1.2/mno-hw-mul/libgcc.a(_sf_to_df.o)
 .debug_pubnames
                0x000002db       0x2c /opt/altera/13.0sp1/nios2eds/bin/gnu/H-i686-pc-linux-gnu/bin/../lib/gcc/nios2-elf/4.1.2/mno-hw-mul/libgcc.a(_addsub_df.o)
 .debug_pubnames
                0x00000307       0x1f /opt/altera/13.0sp1/nios2eds/bin/gnu/H-i686-pc-linux-gnu/bin/../lib/gcc/nios2-elf/4.1.2/mno-hw-mul/libgcc.a(_div_df.o)
 .debug_pubnames
                0x00000326       0x22 /opt/altera/13.0sp1/nios2eds/bin/gnu/H-i686-pc-linux-gnu/bin/../lib/gcc/nios2-elf/4.1.2/mno-hw-mul/libgcc.a(_si_to_df.o)
 .debug_pubnames
                0x00000348       0x20 /opt/altera/13.0sp1/nios2eds/bin/gnu/H-i686-pc-linux-gnu/bin/../lib/gcc/nios2-elf/4.1.2/mno-hw-mul/libgcc.a(_df_to_si.o)
 .debug_pubnames
                0x00000368       0x20 /opt/altera/13.0sp1/nios2eds/bin/gnu/H-i686-pc-linux-gnu/bin/../lib/gcc/nios2-elf/4.1.2/mno-hw-mul/libgcc.a(_make_df.o)
 .debug_pubnames
                0x00000388       0x22 /opt/altera/13.0sp1/nios2eds/bin/gnu/H-i686-pc-linux-gnu/bin/../lib/gcc/nios2-elf/4.1.2/mno-hw-mul/libgcc.a(_thenan_df.o)
 .debug_pubnames
                0x000003aa       0x48 /opt/altera/13.0sp1/nios2eds/bin/gnu/H-i686-pc-linux-gnu/bin/../lib/gcc/nios2-elf/4.1.2/mno-hw-mul/libgcc.a(lib2-divmod.o)
 .debug_pubnames
                0x000003f2       0x1f /opt/altera/13.0sp1/nios2eds/bin/gnu/H-i686-pc-linux-gnu/bin/../lib/gcc/nios2-elf/4.1.2/mno-hw-mul/libgcc.a(lib2-mul.o)
 .debug_pubnames
                0x00000411       0x1f /opt/altera/13.0sp1/nios2eds/bin/gnu/H-i686-pc-linux-gnu/bin/../lib/gcc/nios2-elf/4.1.2/mno-hw-mul/libgcc.a(_clzsi2.o)
 .debug_pubnames
                0x00000430       0x1f /opt/altera/13.0sp1/nios2eds/bin/gnu/H-i686-pc-linux-gnu/bin/../lib/gcc/nios2-elf/4.1.2/mno-hw-mul/libgcc.a(_pack_sf.o)
 .debug_pubnames
                0x0000044f       0x21 /opt/altera/13.0sp1/nios2eds/bin/gnu/H-i686-pc-linux-gnu/bin/../lib/gcc/nios2-elf/4.1.2/mno-hw-mul/libgcc.a(_unpack_sf.o)
 .debug_pubnames
                0x00000470       0x1f /opt/altera/13.0sp1/nios2eds/bin/gnu/H-i686-pc-linux-gnu/bin/../lib/gcc/nios2-elf/4.1.2/mno-hw-mul/libgcc.a(_pack_df.o)
 .debug_pubnames
                0x0000048f       0x21 /opt/altera/13.0sp1/nios2eds/bin/gnu/H-i686-pc-linux-gnu/bin/../lib/gcc/nios2-elf/4.1.2/mno-hw-mul/libgcc.a(_unpack_df.o)
 .debug_pubnames
                0x000004b0       0x20 /opt/altera/13.0sp1/nios2eds/bin/gnu/H-i686-pc-linux-gnu/bin/../lib/gcc/nios2-elf/4.1.2/mno-hw-mul/libgcc.a(_clz.o)
 .debug_pubnames
                0x000004d0       0x2b /opt/altera/13.0sp1/nios2eds/bin/gnu/H-i686-pc-linux-gnu/bin/../lib/gcc/nios2-elf/4.1.2/../../../../nios2-elf/lib/mno-hw-mul/libc.a(lib_a-printf.o)
 .debug_pubnames
                0x000004fb       0x27 /opt/altera/13.0sp1/nios2eds/bin/gnu/H-i686-pc-linux-gnu/bin/../lib/gcc/nios2-elf/4.1.2/../../../../nios2-elf/lib/mno-hw-mul/libc.a(lib_a-puts.o)
 .debug_pubnames
                0x00000522       0x1d /opt/altera/13.0sp1/nios2eds/bin/gnu/H-i686-pc-linux-gnu/bin/../lib/gcc/nios2-elf/4.1.2/../../../../nios2-elf/lib/mno-hw-mul/libc.a(lib_a-strlen.o)
 .debug_pubnames
                0x0000053f       0x45 /opt/altera/13.0sp1/nios2eds/bin/gnu/H-i686-pc-linux-gnu/bin/../lib/gcc/nios2-elf/4.1.2/../../../../nios2-elf/lib/mno-hw-mul/libc.a(lib_a-vfprintf.o)
 .debug_pubnames
                0x00000584       0x22 /opt/altera/13.0sp1/nios2eds/bin/gnu/H-i686-pc-linux-gnu/bin/../lib/gcc/nios2-elf/4.1.2/../../../../nios2-elf/lib/mno-hw-mul/libc.a(lib_a-wsetup.o)
 .debug_pubnames
                0x000005a6       0x1e /opt/altera/13.0sp1/nios2eds/bin/gnu/H-i686-pc-linux-gnu/bin/../lib/gcc/nios2-elf/4.1.2/../../../../nios2-elf/lib/mno-hw-mul/libc.a(lib_a-dtoa.o)
 .debug_pubnames
                0x000005c4       0x2b /opt/altera/13.0sp1/nios2eds/bin/gnu/H-i686-pc-linux-gnu/bin/../lib/gcc/nios2-elf/4.1.2/../../../../nios2-elf/lib/mno-hw-mul/libc.a(lib_a-fflush.o)
 .debug_pubnames
                0x000005ef       0xdb /opt/altera/13.0sp1/nios2eds/bin/gnu/H-i686-pc-linux-gnu/bin/../lib/gcc/nios2-elf/4.1.2/../../../../nios2-elf/lib/mno-hw-mul/libc.a(lib_a-findfp.o)
 .debug_pubnames
                0x000006ca       0x31 /opt/altera/13.0sp1/nios2eds/bin/gnu/H-i686-pc-linux-gnu/bin/../lib/gcc/nios2-elf/4.1.2/../../../../nios2-elf/lib/mno-hw-mul/libc.a(lib_a-freer.o)
 .debug_pubnames
                0x000006fb       0x23 /opt/altera/13.0sp1/nios2eds/bin/gnu/H-i686-pc-linux-gnu/bin/../lib/gcc/nios2-elf/4.1.2/../../../../nios2-elf/lib/mno-hw-mul/libc.a(lib_a-fvwrite.o)
 .debug_pubnames
                0x0000071e       0x2e /opt/altera/13.0sp1/nios2eds/bin/gnu/H-i686-pc-linux-gnu/bin/../lib/gcc/nios2-elf/4.1.2/../../../../nios2-elf/lib/mno-hw-mul/libc.a(lib_a-fwalk.o)
 .debug_pubnames
                0x0000074c       0x39 /opt/altera/13.0sp1/nios2eds/bin/gnu/H-i686-pc-linux-gnu/bin/../lib/gcc/nios2-elf/4.1.2/../../../../nios2-elf/lib/mno-hw-mul/libc.a(lib_a-impure.o)
 .debug_pubnames
                0x00000785       0xc3 /opt/altera/13.0sp1/nios2eds/bin/gnu/H-i686-pc-linux-gnu/bin/../lib/gcc/nios2-elf/4.1.2/../../../../nios2-elf/lib/mno-hw-mul/libc.a(lib_a-locale.o)
 .debug_pubnames
                0x00000848       0x23 /opt/altera/13.0sp1/nios2eds/bin/gnu/H-i686-pc-linux-gnu/bin/../lib/gcc/nios2-elf/4.1.2/../../../../nios2-elf/lib/mno-hw-mul/libc.a(lib_a-makebuf.o)
 .debug_pubnames
                0x0000086b       0xce /opt/altera/13.0sp1/nios2eds/bin/gnu/H-i686-pc-linux-gnu/bin/../lib/gcc/nios2-elf/4.1.2/../../../../nios2-elf/lib/mno-hw-mul/libc.a(lib_a-mallocr.o)
 .debug_pubnames
                0x00000939       0x1d /opt/altera/13.0sp1/nios2eds/bin/gnu/H-i686-pc-linux-gnu/bin/../lib/gcc/nios2-elf/4.1.2/../../../../nios2-elf/lib/mno-hw-mul/libc.a(lib_a-memchr.o)
 .debug_pubnames
                0x00000956       0x1d /opt/altera/13.0sp1/nios2eds/bin/gnu/H-i686-pc-linux-gnu/bin/../lib/gcc/nios2-elf/4.1.2/../../../../nios2-elf/lib/mno-hw-mul/libc.a(lib_a-memcpy.o)
 .debug_pubnames
                0x00000973       0x1e /opt/altera/13.0sp1/nios2eds/bin/gnu/H-i686-pc-linux-gnu/bin/../lib/gcc/nios2-elf/4.1.2/../../../../nios2-elf/lib/mno-hw-mul/libc.a(lib_a-memmove.o)
 .debug_pubnames
                0x00000991       0x1d /opt/altera/13.0sp1/nios2eds/bin/gnu/H-i686-pc-linux-gnu/bin/../lib/gcc/nios2-elf/4.1.2/../../../../nios2-elf/lib/mno-hw-mul/libc.a(lib_a-memset.o)
 .debug_pubnames
                0x000009ae      0x13a /opt/altera/13.0sp1/nios2eds/bin/gnu/H-i686-pc-linux-gnu/bin/../lib/gcc/nios2-elf/4.1.2/../../../../nios2-elf/lib/mno-hw-mul/libc.a(lib_a-mprec.o)
 .debug_pubnames
                0x00000ae8       0x21 /opt/altera/13.0sp1/nios2eds/bin/gnu/H-i686-pc-linux-gnu/bin/../lib/gcc/nios2-elf/4.1.2/../../../../nios2-elf/lib/mno-hw-mul/libc.a(lib_a-reallocr.o)
 .debug_pubnames
                0x00000b09       0x1f /opt/altera/13.0sp1/nios2eds/bin/gnu/H-i686-pc-linux-gnu/bin/../lib/gcc/nios2-elf/4.1.2/../../../../nios2-elf/lib/mno-hw-mul/libc.a(lib_a-s_isinfd.o)
 .debug_pubnames
                0x00000b28       0x1f /opt/altera/13.0sp1/nios2eds/bin/gnu/H-i686-pc-linux-gnu/bin/../lib/gcc/nios2-elf/4.1.2/../../../../nios2-elf/lib/mno-hw-mul/libc.a(lib_a-s_isnand.o)
 .debug_pubnames
                0x00000b47       0x1e /opt/altera/13.0sp1/nios2eds/bin/gnu/H-i686-pc-linux-gnu/bin/../lib/gcc/nios2-elf/4.1.2/../../../../nios2-elf/lib/mno-hw-mul/libc.a(lib_a-sbrkr.o)
 .debug_pubnames
                0x00000b65       0x44 /opt/altera/13.0sp1/nios2eds/bin/gnu/H-i686-pc-linux-gnu/bin/../lib/gcc/nios2-elf/4.1.2/../../../../nios2-elf/lib/mno-hw-mul/libc.a(lib_a-stdio.o)
 .debug_pubnames
                0x00000ba9       0x1d /opt/altera/13.0sp1/nios2eds/bin/gnu/H-i686-pc-linux-gnu/bin/../lib/gcc/nios2-elf/4.1.2/../../../../nios2-elf/lib/mno-hw-mul/libc.a(lib_a-strcmp.o)
 .debug_pubnames
                0x00000bc6       0x1f /opt/altera/13.0sp1/nios2eds/bin/gnu/H-i686-pc-linux-gnu/bin/../lib/gcc/nios2-elf/4.1.2/../../../../nios2-elf/lib/mno-hw-mul/libc.a(lib_a-writer.o)
 .debug_pubnames
                0x00000be5       0x20 /opt/altera/13.0sp1/nios2eds/bin/gnu/H-i686-pc-linux-gnu/bin/../lib/gcc/nios2-elf/4.1.2/../../../../nios2-elf/lib/mno-hw-mul/libc.a(lib_a-callocr.o)
 .debug_pubnames
                0x00000c05       0x1f /opt/altera/13.0sp1/nios2eds/bin/gnu/H-i686-pc-linux-gnu/bin/../lib/gcc/nios2-elf/4.1.2/../../../../nios2-elf/lib/mno-hw-mul/libc.a(lib_a-closer.o)
 .debug_pubnames
                0x00000c24       0x2b /opt/altera/13.0sp1/nios2eds/bin/gnu/H-i686-pc-linux-gnu/bin/../lib/gcc/nios2-elf/4.1.2/../../../../nios2-elf/lib/mno-hw-mul/libc.a(lib_a-fclose.o)
 .debug_pubnames
                0x00000c4f       0x1f /opt/altera/13.0sp1/nios2eds/bin/gnu/H-i686-pc-linux-gnu/bin/../lib/gcc/nios2-elf/4.1.2/../../../../nios2-elf/lib/mno-hw-mul/libc.a(lib_a-fstatr.o)
 .debug_pubnames
                0x00000c6e       0x1c /opt/altera/13.0sp1/nios2eds/bin/gnu/H-i686-pc-linux-gnu/bin/../lib/gcc/nios2-elf/4.1.2/../../../../nios2-elf/lib/mno-hw-mul/libc.a(lib_a-int_errno.o)
 .debug_pubnames
                0x00000c8a       0x20 /opt/altera/13.0sp1/nios2eds/bin/gnu/H-i686-pc-linux-gnu/bin/../lib/gcc/nios2-elf/4.1.2/../../../../nios2-elf/lib/mno-hw-mul/libc.a(lib_a-isattyr.o)
 .debug_pubnames
                0x00000caa       0x1f /opt/altera/13.0sp1/nios2eds/bin/gnu/H-i686-pc-linux-gnu/bin/../lib/gcc/nios2-elf/4.1.2/../../../../nios2-elf/lib/mno-hw-mul/libc.a(lib_a-lseekr.o)
 .debug_pubnames
                0x00000cc9       0x1e /opt/altera/13.0sp1/nios2eds/bin/gnu/H-i686-pc-linux-gnu/bin/../lib/gcc/nios2-elf/4.1.2/../../../../nios2-elf/lib/mno-hw-mul/libc.a(lib_a-readr.o)
 .debug_pubnames
                0x00000ce7       0x20 /opt/altera/13.0sp1/nios2eds/bin/gnu/H-i686-pc-linux-gnu/bin/../lib/gcc/nios2-elf/4.1.2/mno-hw-mul/libgcc.a(_udivdi3.o)
 .debug_pubnames
                0x00000d07       0x20 /opt/altera/13.0sp1/nios2eds/bin/gnu/H-i686-pc-linux-gnu/bin/../lib/gcc/nios2-elf/4.1.2/mno-hw-mul/libgcc.a(_umoddi3.o)
 .debug_pubnames
                0x00000d27       0x1f /opt/altera/13.0sp1/nios2eds/bin/gnu/H-i686-pc-linux-gnu/bin/../lib/gcc/nios2-elf/4.1.2/mno-hw-mul/libgcc.a(_mul_df.o)
 .debug_pubnames
                0x00000d46       0x1e /opt/altera/13.0sp1/nios2eds/bin/gnu/H-i686-pc-linux-gnu/bin/../lib/gcc/nios2-elf/4.1.2/mno-hw-mul/libgcc.a(_eq_df.o)
 .debug_pubnames
                0x00000d64       0x1e /opt/altera/13.0sp1/nios2eds/bin/gnu/H-i686-pc-linux-gnu/bin/../lib/gcc/nios2-elf/4.1.2/mno-hw-mul/libgcc.a(_ne_df.o)
 .debug_pubnames
                0x00000d82       0x1e /opt/altera/13.0sp1/nios2eds/bin/gnu/H-i686-pc-linux-gnu/bin/../lib/gcc/nios2-elf/4.1.2/mno-hw-mul/libgcc.a(_gt_df.o)
 .debug_pubnames
                0x00000da0       0x1e /opt/altera/13.0sp1/nios2eds/bin/gnu/H-i686-pc-linux-gnu/bin/../lib/gcc/nios2-elf/4.1.2/mno-hw-mul/libgcc.a(_ge_df.o)
 .debug_pubnames
                0x00000dbe       0x1e /opt/altera/13.0sp1/nios2eds/bin/gnu/H-i686-pc-linux-gnu/bin/../lib/gcc/nios2-elf/4.1.2/mno-hw-mul/libgcc.a(_lt_df.o)
 .debug_pubnames
                0x00000ddc       0x24 /opt/altera/13.0sp1/nios2eds/bin/gnu/H-i686-pc-linux-gnu/bin/../lib/gcc/nios2-elf/4.1.2/mno-hw-mul/libgcc.a(_usi_to_df.o)
 .debug_pubnames
                0x00000e00       0x1f /opt/altera/13.0sp1/nios2eds/bin/gnu/H-i686-pc-linux-gnu/bin/../lib/gcc/nios2-elf/4.1.2/mno-hw-mul/libgcc.a(_muldi3.o)
 .debug_pubnames
                0x00000e1f       0x26 /opt/altera/13.0sp1/nios2eds/bin/gnu/H-i686-pc-linux-gnu/bin/../lib/gcc/nios2-elf/4.1.2/mno-hw-mul/libgcc.a(_fpcmp_parts_df.o)
 .debug_pubnames
                0x00000e45       0x26 ../lab2_cruisecontrol_bsp//libucosii_bsp.a(alt_alarm_start.o)
 .debug_pubnames
                0x00000e6b       0x1c ../lab2_cruisecontrol_bsp//libucosii_bsp.a(alt_close.o)
 .debug_pubnames
                0x00000e87       0x78 ../lab2_cruisecontrol_bsp//libucosii_bsp.a(alt_dev.o)
 .debug_pubnames
                0x00000eff       0x20 ../lab2_cruisecontrol_bsp//libucosii_bsp.a(alt_errno.o)
 .debug_pubnames
                0x00000f1f       0x1c ../lab2_cruisecontrol_bsp//libucosii_bsp.a(alt_fstat.o)
 .debug_pubnames
                0x00000f3b       0x1d ../lab2_cruisecontrol_bsp//libucosii_bsp.a(alt_isatty.o)
 .debug_pubnames
                0x00000f58       0x1f ../lab2_cruisecontrol_bsp//libucosii_bsp.a(alt_load.o)
 .debug_pubnames
                0x00000f77       0x1c ../lab2_cruisecontrol_bsp//libucosii_bsp.a(alt_lseek.o)
 .debug_pubnames
                0x00000f93       0x46 ../lab2_cruisecontrol_bsp//libucosii_bsp.a(alt_main.o)
 .debug_pubnames
                0x00000fd9       0x1b ../lab2_cruisecontrol_bsp//libucosii_bsp.a(alt_read.o)
 .debug_pubnames
                0x00000ff4       0x25 ../lab2_cruisecontrol_bsp//libucosii_bsp.a(alt_release_fd.o)
 .debug_pubnames
                0x00001019       0x1b ../lab2_cruisecontrol_bsp//libucosii_bsp.a(alt_sbrk.o)
 .debug_pubnames
                0x00001034       0x68 ../lab2_cruisecontrol_bsp//libucosii_bsp.a(alt_tick.o)
 .debug_pubnames
                0x0000109c       0x1c ../lab2_cruisecontrol_bsp//libucosii_bsp.a(alt_write.o)
 .debug_pubnames
                0x000010b8       0x41 ../lab2_cruisecontrol_bsp//libucosii_bsp.a(alt_env_lock.o)
 .debug_pubnames
                0x000010f9       0x48 ../lab2_cruisecontrol_bsp//libucosii_bsp.a(alt_malloc_lock.o)
 .debug_pubnames
                0x00001141      0x484 ../lab2_cruisecontrol_bsp//libucosii_bsp.a(os_core.o)
 .debug_pubnames
                0x000015c5      0x3c5 ../lab2_cruisecontrol_bsp//libucosii_bsp.a(os_dbg.o)
 .debug_pubnames
                0x0000198a       0xd0 ../lab2_cruisecontrol_bsp//libucosii_bsp.a(os_flag.o)
 .debug_pubnames
                0x00001a5a       0x96 ../lab2_cruisecontrol_bsp//libucosii_bsp.a(os_mbox.o)
 .debug_pubnames
                0x00001af0       0x7c ../lab2_cruisecontrol_bsp//libucosii_bsp.a(os_mem.o)
 .debug_pubnames
                0x00001b6c       0xa9 ../lab2_cruisecontrol_bsp//libucosii_bsp.a(os_q.o)
 .debug_pubnames
                0x00001c15       0x8a ../lab2_cruisecontrol_bsp//libucosii_bsp.a(os_sem.o)
 .debug_pubnames
                0x00001c9f       0xe5 ../lab2_cruisecontrol_bsp//libucosii_bsp.a(os_task.o)
 .debug_pubnames
                0x00001d84       0x62 ../lab2_cruisecontrol_bsp//libucosii_bsp.a(os_time.o)
 .debug_pubnames
                0x00001de6       0xa1 ../lab2_cruisecontrol_bsp//libucosii_bsp.a(os_tmr.o)
 .debug_pubnames
                0x00001e87       0x34 ../lab2_cruisecontrol_bsp//libucosii_bsp.a(alt_sys_init.o)
 .debug_pubnames
                0x00001ebb       0xa5 ../lab2_cruisecontrol_bsp//libucosii_bsp.a(altera_avalon_jtag_uart_fd.o)
 .debug_pubnames
                0x00001f60       0x55 ../lab2_cruisecontrol_bsp//libucosii_bsp.a(altera_avalon_jtag_uart_init.o)
 .debug_pubnames
                0x00001fb5       0x34 ../lab2_cruisecontrol_bsp//libucosii_bsp.a(altera_avalon_jtag_uart_ioctl.o)
 .debug_pubnames
                0x00001fe9       0x33 ../lab2_cruisecontrol_bsp//libucosii_bsp.a(altera_avalon_jtag_uart_read.o)
 .debug_pubnames
                0x0000201c       0x34 ../lab2_cruisecontrol_bsp//libucosii_bsp.a(altera_avalon_jtag_uart_write.o)
 .debug_pubnames
                0x00002050       0x2f ../lab2_cruisecontrol_bsp//libucosii_bsp.a(altera_avalon_timer_sc.o)
 .debug_pubnames
                0x0000207f      0x1cd ../lab2_cruisecontrol_bsp//libucosii_bsp.a(altera_up_avalon_character_lcd.o)
 .debug_pubnames
                0x0000224c       0x2b ../lab2_cruisecontrol_bsp//libucosii_bsp.a(alt_dcache_flush_all.o)
 .debug_pubnames
                0x00002277       0x2b ../lab2_cruisecontrol_bsp//libucosii_bsp.a(alt_dev_llist_insert.o)
 .debug_pubnames
                0x000022a2       0x20 ../lab2_cruisecontrol_bsp//libucosii_bsp.a(alt_do_ctors.o)
 .debug_pubnames
                0x000022c2       0x20 ../lab2_cruisecontrol_bsp//libucosii_bsp.a(alt_do_dtors.o)
 .debug_pubnames
                0x000022e2       0x23 ../lab2_cruisecontrol_bsp//libucosii_bsp.a(alt_find_dev.o)
 .debug_pubnames
                0x00002305       0x2b ../lab2_cruisecontrol_bsp//libucosii_bsp.a(alt_icache_flush_all.o)
 .debug_pubnames
                0x00002330       0x6e ../lab2_cruisecontrol_bsp//libucosii_bsp.a(alt_iic.o)
 .debug_pubnames
                0x0000239e       0x2b ../lab2_cruisecontrol_bsp//libucosii_bsp.a(alt_iic_isr_register.o)
 .debug_pubnames
                0x000023c9       0x26 ../lab2_cruisecontrol_bsp//libucosii_bsp.a(alt_io_redirect.o)
 .debug_pubnames
                0x000023ef       0x32 ../lab2_cruisecontrol_bsp//libucosii_bsp.a(alt_irq_handler.o)
 .debug_pubnames
                0x00002421       0x3b ../lab2_cruisecontrol_bsp//libucosii_bsp.a(alt_irq_vars.o)
 .debug_pubnames
                0x0000245c       0x1b ../lab2_cruisecontrol_bsp//libucosii_bsp.a(alt_open.o)
 .debug_pubnames
                0x00002477       0x31 ../lab2_cruisecontrol_bsp//libucosii_bsp.a(altera_nios2_qsys_irq.o)
 .debug_pubnames
                0x000024a8       0xcd ../lab2_cruisecontrol_bsp//libucosii_bsp.a(os_cpu_c.o)
 .debug_pubnames
                0x00002575       0x24 ../lab2_cruisecontrol_bsp//libucosii_bsp.a(alt_find_file.o)
 .debug_pubnames
                0x00002599       0x21 ../lab2_cruisecontrol_bsp//libucosii_bsp.a(alt_get_fd.o)
 .debug_pubnames
                0x000025ba       0x2a /opt/altera/13.0sp1/nios2eds/bin/gnu/H-i686-pc-linux-gnu/bin/../lib/gcc/nios2-elf/4.1.2/../../../../nios2-elf/lib/mno-hw-mul/libc.a(lib_a-atexit.o)
 .debug_pubnames
                0x000025e4       0x1b /opt/altera/13.0sp1/nios2eds/bin/gnu/H-i686-pc-linux-gnu/bin/../lib/gcc/nios2-elf/4.1.2/../../../../nios2-elf/lib/mno-hw-mul/libc.a(lib_a-exit.o)
 .debug_pubnames
                0x000025ff       0x1d /opt/altera/13.0sp1/nios2eds/bin/gnu/H-i686-pc-linux-gnu/bin/../lib/gcc/nios2-elf/4.1.2/../../../../nios2-elf/lib/mno-hw-mul/libc.a(lib_a-memcmp.o)
 .debug_pubnames
                0x0000261c       0x2a /opt/altera/13.0sp1/nios2eds/bin/gnu/H-i686-pc-linux-gnu/bin/../lib/gcc/nios2-elf/4.1.2/../../../../nios2-elf/lib/mno-hw-mul/libc.a(lib_a-__atexit.o)
 .debug_pubnames
                0x00002646       0x27 /opt/altera/13.0sp1/nios2eds/bin/gnu/H-i686-pc-linux-gnu/bin/../lib/gcc/nios2-elf/4.1.2/../../../../nios2-elf/lib/mno-hw-mul/libc.a(lib_a-__call_atexit.o)
 .debug_pubnames
                0x0000266d       0x23 /opt/altera/13.0sp1/nios2eds/bin/gnu/H-i686-pc-linux-gnu/bin/../lib/gcc/nios2-elf/4.1.2/mno-hw-mul/libgcc.a(_fixunsdfsi.o)
 .debug_pubnames
                0x00002690       0x1c ../lab2_cruisecontrol_bsp//libucosii_bsp.a(alt_exit.o)

.debug_info     0x00000000    0x33974
 *(.debug_info .gnu.linkonce.wi.*)
 .debug_info    0x00000000       0xa3 ../lab2_cruisecontrol_bsp//obj/HAL/src/crt0.o
 .debug_info    0x000000a3      0xdd3 obj/default/cruise_skeleton.o
 .debug_info    0x00000e76      0x214 /opt/altera/13.0sp1/nios2eds/bin/gnu/H-i686-pc-linux-gnu/bin/../lib/gcc/nios2-elf/4.1.2/mno-hw-mul/libgcc.a(_si_to_sf.o)
 .debug_info    0x0000108a      0x245 /opt/altera/13.0sp1/nios2eds/bin/gnu/H-i686-pc-linux-gnu/bin/../lib/gcc/nios2-elf/4.1.2/mno-hw-mul/libgcc.a(_sf_to_df.o)
 .debug_info    0x000012cf      0x493 /opt/altera/13.0sp1/nios2eds/bin/gnu/H-i686-pc-linux-gnu/bin/../lib/gcc/nios2-elf/4.1.2/mno-hw-mul/libgcc.a(_addsub_df.o)
 .debug_info    0x00001762      0x39b /opt/altera/13.0sp1/nios2eds/bin/gnu/H-i686-pc-linux-gnu/bin/../lib/gcc/nios2-elf/4.1.2/mno-hw-mul/libgcc.a(_div_df.o)
 .debug_info    0x00001afd      0x218 /opt/altera/13.0sp1/nios2eds/bin/gnu/H-i686-pc-linux-gnu/bin/../lib/gcc/nios2-elf/4.1.2/mno-hw-mul/libgcc.a(_si_to_df.o)
 .debug_info    0x00001d15      0x2cd /opt/altera/13.0sp1/nios2eds/bin/gnu/H-i686-pc-linux-gnu/bin/../lib/gcc/nios2-elf/4.1.2/mno-hw-mul/libgcc.a(_df_to_si.o)
 .debug_info    0x00001fe2      0x1d6 /opt/altera/13.0sp1/nios2eds/bin/gnu/H-i686-pc-linux-gnu/bin/../lib/gcc/nios2-elf/4.1.2/mno-hw-mul/libgcc.a(_make_df.o)
 .debug_info    0x000021b8      0x164 /opt/altera/13.0sp1/nios2eds/bin/gnu/H-i686-pc-linux-gnu/bin/../lib/gcc/nios2-elf/4.1.2/mno-hw-mul/libgcc.a(_thenan_df.o)
 .debug_info    0x0000231c      0x21c /opt/altera/13.0sp1/nios2eds/bin/gnu/H-i686-pc-linux-gnu/bin/../lib/gcc/nios2-elf/4.1.2/mno-hw-mul/libgcc.a(lib2-divmod.o)
 .debug_info    0x00002538       0xf3 /opt/altera/13.0sp1/nios2eds/bin/gnu/H-i686-pc-linux-gnu/bin/../lib/gcc/nios2-elf/4.1.2/mno-hw-mul/libgcc.a(lib2-mul.o)
 .debug_info    0x0000262b      0x130 /opt/altera/13.0sp1/nios2eds/bin/gnu/H-i686-pc-linux-gnu/bin/../lib/gcc/nios2-elf/4.1.2/mno-hw-mul/libgcc.a(_clzsi2.o)
 .debug_info    0x0000275b      0x2f2 /opt/altera/13.0sp1/nios2eds/bin/gnu/H-i686-pc-linux-gnu/bin/../lib/gcc/nios2-elf/4.1.2/mno-hw-mul/libgcc.a(_pack_sf.o)
 .debug_info    0x00002a4d      0x25a /opt/altera/13.0sp1/nios2eds/bin/gnu/H-i686-pc-linux-gnu/bin/../lib/gcc/nios2-elf/4.1.2/mno-hw-mul/libgcc.a(_unpack_sf.o)
 .debug_info    0x00002ca7      0x2fc /opt/altera/13.0sp1/nios2eds/bin/gnu/H-i686-pc-linux-gnu/bin/../lib/gcc/nios2-elf/4.1.2/mno-hw-mul/libgcc.a(_pack_df.o)
 .debug_info    0x00002fa3      0x268 /opt/altera/13.0sp1/nios2eds/bin/gnu/H-i686-pc-linux-gnu/bin/../lib/gcc/nios2-elf/4.1.2/mno-hw-mul/libgcc.a(_unpack_df.o)
 .debug_info    0x0000320b       0xc9 /opt/altera/13.0sp1/nios2eds/bin/gnu/H-i686-pc-linux-gnu/bin/../lib/gcc/nios2-elf/4.1.2/mno-hw-mul/libgcc.a(_clz.o)
 .debug_info    0x000032d4      0x9d1 /opt/altera/13.0sp1/nios2eds/bin/gnu/H-i686-pc-linux-gnu/bin/../lib/gcc/nios2-elf/4.1.2/../../../../nios2-elf/lib/mno-hw-mul/libc.a(lib_a-printf.o)
 .debug_info    0x00003ca5      0xa25 /opt/altera/13.0sp1/nios2eds/bin/gnu/H-i686-pc-linux-gnu/bin/../lib/gcc/nios2-elf/4.1.2/../../../../nios2-elf/lib/mno-hw-mul/libc.a(lib_a-puts.o)
 .debug_info    0x000046ca       0xdb /opt/altera/13.0sp1/nios2eds/bin/gnu/H-i686-pc-linux-gnu/bin/../lib/gcc/nios2-elf/4.1.2/../../../../nios2-elf/lib/mno-hw-mul/libc.a(lib_a-strlen.o)
 .debug_info    0x000047a5     0x10d5 /opt/altera/13.0sp1/nios2eds/bin/gnu/H-i686-pc-linux-gnu/bin/../lib/gcc/nios2-elf/4.1.2/../../../../nios2-elf/lib/mno-hw-mul/libc.a(lib_a-vfprintf.o)
 .debug_info    0x0000587a      0x95d /opt/altera/13.0sp1/nios2eds/bin/gnu/H-i686-pc-linux-gnu/bin/../lib/gcc/nios2-elf/4.1.2/../../../../nios2-elf/lib/mno-hw-mul/libc.a(lib_a-wsetup.o)
 .debug_info    0x000061d7      0xd6f /opt/altera/13.0sp1/nios2eds/bin/gnu/H-i686-pc-linux-gnu/bin/../lib/gcc/nios2-elf/4.1.2/../../../../nios2-elf/lib/mno-hw-mul/libc.a(lib_a-dtoa.o)
 .debug_info    0x00006f46      0x9fe /opt/altera/13.0sp1/nios2eds/bin/gnu/H-i686-pc-linux-gnu/bin/../lib/gcc/nios2-elf/4.1.2/../../../../nios2-elf/lib/mno-hw-mul/libc.a(lib_a-fflush.o)
 .debug_info    0x00007944      0xb72 /opt/altera/13.0sp1/nios2eds/bin/gnu/H-i686-pc-linux-gnu/bin/../lib/gcc/nios2-elf/4.1.2/../../../../nios2-elf/lib/mno-hw-mul/libc.a(lib_a-findfp.o)
 .debug_info    0x000084b6      0xbc9 /opt/altera/13.0sp1/nios2eds/bin/gnu/H-i686-pc-linux-gnu/bin/../lib/gcc/nios2-elf/4.1.2/../../../../nios2-elf/lib/mno-hw-mul/libc.a(lib_a-freer.o)
 .debug_info    0x0000907f      0xa88 /opt/altera/13.0sp1/nios2eds/bin/gnu/H-i686-pc-linux-gnu/bin/../lib/gcc/nios2-elf/4.1.2/../../../../nios2-elf/lib/mno-hw-mul/libc.a(lib_a-fvwrite.o)
 .debug_info    0x00009b07      0xaed /opt/altera/13.0sp1/nios2eds/bin/gnu/H-i686-pc-linux-gnu/bin/../lib/gcc/nios2-elf/4.1.2/../../../../nios2-elf/lib/mno-hw-mul/libc.a(lib_a-fwalk.o)
 .debug_info    0x0000a5f4      0x93d /opt/altera/13.0sp1/nios2eds/bin/gnu/H-i686-pc-linux-gnu/bin/../lib/gcc/nios2-elf/4.1.2/../../../../nios2-elf/lib/mno-hw-mul/libc.a(lib_a-impure.o)
 .debug_info    0x0000af31      0xb97 /opt/altera/13.0sp1/nios2eds/bin/gnu/H-i686-pc-linux-gnu/bin/../lib/gcc/nios2-elf/4.1.2/../../../../nios2-elf/lib/mno-hw-mul/libc.a(lib_a-locale.o)
 .debug_info    0x0000bac8      0xb1a /opt/altera/13.0sp1/nios2eds/bin/gnu/H-i686-pc-linux-gnu/bin/../lib/gcc/nios2-elf/4.1.2/../../../../nios2-elf/lib/mno-hw-mul/libc.a(lib_a-makebuf.o)
 .debug_info    0x0000c5e2      0xcd0 /opt/altera/13.0sp1/nios2eds/bin/gnu/H-i686-pc-linux-gnu/bin/../lib/gcc/nios2-elf/4.1.2/../../../../nios2-elf/lib/mno-hw-mul/libc.a(lib_a-mallocr.o)
 .debug_info    0x0000d2b2      0x138 /opt/altera/13.0sp1/nios2eds/bin/gnu/H-i686-pc-linux-gnu/bin/../lib/gcc/nios2-elf/4.1.2/../../../../nios2-elf/lib/mno-hw-mul/libc.a(lib_a-memchr.o)
 .debug_info    0x0000d3ea      0x106 /opt/altera/13.0sp1/nios2eds/bin/gnu/H-i686-pc-linux-gnu/bin/../lib/gcc/nios2-elf/4.1.2/../../../../nios2-elf/lib/mno-hw-mul/libc.a(lib_a-memcpy.o)
 .debug_info    0x0000d4f0      0x13e /opt/altera/13.0sp1/nios2eds/bin/gnu/H-i686-pc-linux-gnu/bin/../lib/gcc/nios2-elf/4.1.2/../../../../nios2-elf/lib/mno-hw-mul/libc.a(lib_a-memmove.o)
 .debug_info    0x0000d62e      0x113 /opt/altera/13.0sp1/nios2eds/bin/gnu/H-i686-pc-linux-gnu/bin/../lib/gcc/nios2-elf/4.1.2/../../../../nios2-elf/lib/mno-hw-mul/libc.a(lib_a-memset.o)
 .debug_info    0x0000d741     0x143b /opt/altera/13.0sp1/nios2eds/bin/gnu/H-i686-pc-linux-gnu/bin/../lib/gcc/nios2-elf/4.1.2/../../../../nios2-elf/lib/mno-hw-mul/libc.a(lib_a-mprec.o)
 .debug_info    0x0000eb7c      0xbd7 /opt/altera/13.0sp1/nios2eds/bin/gnu/H-i686-pc-linux-gnu/bin/../lib/gcc/nios2-elf/4.1.2/../../../../nios2-elf/lib/mno-hw-mul/libc.a(lib_a-reallocr.o)
 .debug_info    0x0000f753       0xd7 /opt/altera/13.0sp1/nios2eds/bin/gnu/H-i686-pc-linux-gnu/bin/../lib/gcc/nios2-elf/4.1.2/../../../../nios2-elf/lib/mno-hw-mul/libc.a(lib_a-s_isinfd.o)
 .debug_info    0x0000f82a       0xd5 /opt/altera/13.0sp1/nios2eds/bin/gnu/H-i686-pc-linux-gnu/bin/../lib/gcc/nios2-elf/4.1.2/../../../../nios2-elf/lib/mno-hw-mul/libc.a(lib_a-s_isnand.o)
 .debug_info    0x0000f8ff      0x962 /opt/altera/13.0sp1/nios2eds/bin/gnu/H-i686-pc-linux-gnu/bin/../lib/gcc/nios2-elf/4.1.2/../../../../nios2-elf/lib/mno-hw-mul/libc.a(lib_a-sbrkr.o)
 .debug_info    0x00010261      0xaac /opt/altera/13.0sp1/nios2eds/bin/gnu/H-i686-pc-linux-gnu/bin/../lib/gcc/nios2-elf/4.1.2/../../../../nios2-elf/lib/mno-hw-mul/libc.a(lib_a-stdio.o)
 .debug_info    0x00010d0d       0xdd /opt/altera/13.0sp1/nios2eds/bin/gnu/H-i686-pc-linux-gnu/bin/../lib/gcc/nios2-elf/4.1.2/../../../../nios2-elf/lib/mno-hw-mul/libc.a(lib_a-strcmp.o)
 .debug_info    0x00010dea      0x993 /opt/altera/13.0sp1/nios2eds/bin/gnu/H-i686-pc-linux-gnu/bin/../lib/gcc/nios2-elf/4.1.2/../../../../nios2-elf/lib/mno-hw-mul/libc.a(lib_a-writer.o)
 .debug_info    0x0001177d      0xa1b /opt/altera/13.0sp1/nios2eds/bin/gnu/H-i686-pc-linux-gnu/bin/../lib/gcc/nios2-elf/4.1.2/../../../../nios2-elf/lib/mno-hw-mul/libc.a(lib_a-callocr.o)
 .debug_info    0x00012198      0x958 /opt/altera/13.0sp1/nios2eds/bin/gnu/H-i686-pc-linux-gnu/bin/../lib/gcc/nios2-elf/4.1.2/../../../../nios2-elf/lib/mno-hw-mul/libc.a(lib_a-closer.o)
 .debug_info    0x00012af0      0x994 /opt/altera/13.0sp1/nios2eds/bin/gnu/H-i686-pc-linux-gnu/bin/../lib/gcc/nios2-elf/4.1.2/../../../../nios2-elf/lib/mno-hw-mul/libc.a(lib_a-fclose.o)
 .debug_info    0x00013484      0xafc /opt/altera/13.0sp1/nios2eds/bin/gnu/H-i686-pc-linux-gnu/bin/../lib/gcc/nios2-elf/4.1.2/../../../../nios2-elf/lib/mno-hw-mul/libc.a(lib_a-fstatr.o)
 .debug_info    0x00013f80       0x8c /opt/altera/13.0sp1/nios2eds/bin/gnu/H-i686-pc-linux-gnu/bin/../lib/gcc/nios2-elf/4.1.2/../../../../nios2-elf/lib/mno-hw-mul/libc.a(lib_a-int_errno.o)
 .debug_info    0x0001400c      0x958 /opt/altera/13.0sp1/nios2eds/bin/gnu/H-i686-pc-linux-gnu/bin/../lib/gcc/nios2-elf/4.1.2/../../../../nios2-elf/lib/mno-hw-mul/libc.a(lib_a-isattyr.o)
 .debug_info    0x00014964      0x981 /opt/altera/13.0sp1/nios2eds/bin/gnu/H-i686-pc-linux-gnu/bin/../lib/gcc/nios2-elf/4.1.2/../../../../nios2-elf/lib/mno-hw-mul/libc.a(lib_a-lseekr.o)
 .debug_info    0x000152e5      0x98c /opt/altera/13.0sp1/nios2eds/bin/gnu/H-i686-pc-linux-gnu/bin/../lib/gcc/nios2-elf/4.1.2/../../../../nios2-elf/lib/mno-hw-mul/libc.a(lib_a-readr.o)
 .debug_info    0x00015c71      0x71c /opt/altera/13.0sp1/nios2eds/bin/gnu/H-i686-pc-linux-gnu/bin/../lib/gcc/nios2-elf/4.1.2/mno-hw-mul/libgcc.a(_udivdi3.o)
 .debug_info    0x0001638d      0x749 /opt/altera/13.0sp1/nios2eds/bin/gnu/H-i686-pc-linux-gnu/bin/../lib/gcc/nios2-elf/4.1.2/mno-hw-mul/libgcc.a(_umoddi3.o)
 .debug_info    0x00016ad6      0x488 /opt/altera/13.0sp1/nios2eds/bin/gnu/H-i686-pc-linux-gnu/bin/../lib/gcc/nios2-elf/4.1.2/mno-hw-mul/libgcc.a(_mul_df.o)
 .debug_info    0x00016f5e      0x29d /opt/altera/13.0sp1/nios2eds/bin/gnu/H-i686-pc-linux-gnu/bin/../lib/gcc/nios2-elf/4.1.2/mno-hw-mul/libgcc.a(_eq_df.o)
 .debug_info    0x000171fb      0x29d /opt/altera/13.0sp1/nios2eds/bin/gnu/H-i686-pc-linux-gnu/bin/../lib/gcc/nios2-elf/4.1.2/mno-hw-mul/libgcc.a(_ne_df.o)
 .debug_info    0x00017498      0x29d /opt/altera/13.0sp1/nios2eds/bin/gnu/H-i686-pc-linux-gnu/bin/../lib/gcc/nios2-elf/4.1.2/mno-hw-mul/libgcc.a(_gt_df.o)
 .debug_info    0x00017735      0x29d /opt/altera/13.0sp1/nios2eds/bin/gnu/H-i686-pc-linux-gnu/bin/../lib/gcc/nios2-elf/4.1.2/mno-hw-mul/libgcc.a(_ge_df.o)
 .debug_info    0x000179d2      0x29d /opt/altera/13.0sp1/nios2eds/bin/gnu/H-i686-pc-linux-gnu/bin/../lib/gcc/nios2-elf/4.1.2/mno-hw-mul/libgcc.a(_lt_df.o)
 .debug_info    0x00017c6f      0x213 /opt/altera/13.0sp1/nios2eds/bin/gnu/H-i686-pc-linux-gnu/bin/../lib/gcc/nios2-elf/4.1.2/mno-hw-mul/libgcc.a(_usi_to_df.o)
 .debug_info    0x00017e82      0x210 /opt/altera/13.0sp1/nios2eds/bin/gnu/H-i686-pc-linux-gnu/bin/../lib/gcc/nios2-elf/4.1.2/mno-hw-mul/libgcc.a(_muldi3.o)
 .debug_info    0x00018092      0x21b /opt/altera/13.0sp1/nios2eds/bin/gnu/H-i686-pc-linux-gnu/bin/../lib/gcc/nios2-elf/4.1.2/mno-hw-mul/libgcc.a(_fpcmp_parts_df.o)
 .debug_info    0x000182ad      0x46a ../lab2_cruisecontrol_bsp//libucosii_bsp.a(alt_alarm_start.o)
 .debug_info    0x00018717      0x4e3 ../lab2_cruisecontrol_bsp//libucosii_bsp.a(alt_close.o)
 .debug_info    0x00018bfa      0x805 ../lab2_cruisecontrol_bsp//libucosii_bsp.a(alt_dev.o)
 .debug_info    0x000193ff      0x18c ../lab2_cruisecontrol_bsp//libucosii_bsp.a(alt_errno.o)
 .debug_info    0x0001958b      0x6dc ../lab2_cruisecontrol_bsp//libucosii_bsp.a(alt_fstat.o)
 .debug_info    0x00019c67      0x6e2 ../lab2_cruisecontrol_bsp//libucosii_bsp.a(alt_isatty.o)
 .debug_info    0x0001a349      0x2b5 ../lab2_cruisecontrol_bsp//libucosii_bsp.a(alt_load.o)
 .debug_info    0x0001a5fe      0x516 ../lab2_cruisecontrol_bsp//libucosii_bsp.a(alt_lseek.o)
 .debug_info    0x0001ab14      0x405 ../lab2_cruisecontrol_bsp//libucosii_bsp.a(alt_main.o)
 .debug_info    0x0001af19      0x706 ../lab2_cruisecontrol_bsp//libucosii_bsp.a(alt_read.o)
 .debug_info    0x0001b61f      0x477 ../lab2_cruisecontrol_bsp//libucosii_bsp.a(alt_release_fd.o)
 .debug_info    0x0001ba96      0x2df ../lab2_cruisecontrol_bsp//libucosii_bsp.a(alt_sbrk.o)
 .debug_info    0x0001bd75      0x439 ../lab2_cruisecontrol_bsp//libucosii_bsp.a(alt_tick.o)
 .debug_info    0x0001c1ae      0x70f ../lab2_cruisecontrol_bsp//libucosii_bsp.a(alt_write.o)
 .debug_info    0x0001c8bd     0x11fb ../lab2_cruisecontrol_bsp//libucosii_bsp.a(alt_env_lock.o)
 .debug_info    0x0001dab8     0x1357 ../lab2_cruisecontrol_bsp//libucosii_bsp.a(alt_malloc_lock.o)
 .debug_info    0x0001ee0f     0x1ed3 ../lab2_cruisecontrol_bsp//libucosii_bsp.a(os_core.o)
 .debug_info    0x00020ce2     0x13eb ../lab2_cruisecontrol_bsp//libucosii_bsp.a(os_dbg.o)
 .debug_info    0x000220cd     0x126c ../lab2_cruisecontrol_bsp//libucosii_bsp.a(os_flag.o)
 .debug_info    0x00023339      0xd68 ../lab2_cruisecontrol_bsp//libucosii_bsp.a(os_mbox.o)
 .debug_info    0x000240a1      0x836 ../lab2_cruisecontrol_bsp//libucosii_bsp.a(os_mem.o)
 .debug_info    0x000248d7     0x10a6 ../lab2_cruisecontrol_bsp//libucosii_bsp.a(os_q.o)
 .debug_info    0x0002597d      0xd0e ../lab2_cruisecontrol_bsp//libucosii_bsp.a(os_sem.o)
 .debug_info    0x0002668b     0x1384 ../lab2_cruisecontrol_bsp//libucosii_bsp.a(os_task.o)
 .debug_info    0x00027a0f      0xa08 ../lab2_cruisecontrol_bsp//libucosii_bsp.a(os_time.o)
 .debug_info    0x00028417      0xb3b ../lab2_cruisecontrol_bsp//libucosii_bsp.a(os_tmr.o)
 .debug_info    0x00028f52      0x98d ../lab2_cruisecontrol_bsp//libucosii_bsp.a(alt_sys_init.o)
 .debug_info    0x000298df      0x9fa ../lab2_cruisecontrol_bsp//libucosii_bsp.a(altera_avalon_jtag_uart_fd.o)
 .debug_info    0x0002a2d9      0x978 ../lab2_cruisecontrol_bsp//libucosii_bsp.a(altera_avalon_jtag_uart_init.o)
 .debug_info    0x0002ac51      0x664 ../lab2_cruisecontrol_bsp//libucosii_bsp.a(altera_avalon_jtag_uart_ioctl.o)
 .debug_info    0x0002b2b5      0x820 ../lab2_cruisecontrol_bsp//libucosii_bsp.a(altera_avalon_jtag_uart_read.o)
 .debug_info    0x0002bad5      0x817 ../lab2_cruisecontrol_bsp//libucosii_bsp.a(altera_avalon_jtag_uart_write.o)
 .debug_info    0x0002c2ec      0x3b3 ../lab2_cruisecontrol_bsp//libucosii_bsp.a(altera_avalon_timer_sc.o)
 .debug_info    0x0002c69f      0x924 ../lab2_cruisecontrol_bsp//libucosii_bsp.a(altera_up_avalon_character_lcd.o)
 .debug_info    0x0002cfc3      0x184 ../lab2_cruisecontrol_bsp//libucosii_bsp.a(alt_dcache_flush_all.o)
 .debug_info    0x0002d147      0x2df ../lab2_cruisecontrol_bsp//libucosii_bsp.a(alt_dev_llist_insert.o)
 .debug_info    0x0002d426      0x137 ../lab2_cruisecontrol_bsp//libucosii_bsp.a(alt_do_ctors.o)
 .debug_info    0x0002d55d      0x136 ../lab2_cruisecontrol_bsp//libucosii_bsp.a(alt_do_dtors.o)
 .debug_info    0x0002d693      0x494 ../lab2_cruisecontrol_bsp//libucosii_bsp.a(alt_find_dev.o)
 .debug_info    0x0002db27      0x184 ../lab2_cruisecontrol_bsp//libucosii_bsp.a(alt_icache_flush_all.o)
 .debug_info    0x0002dcab      0x4bb ../lab2_cruisecontrol_bsp//libucosii_bsp.a(alt_iic.o)
 .debug_info    0x0002e166      0x33c ../lab2_cruisecontrol_bsp//libucosii_bsp.a(alt_iic_isr_register.o)
 .debug_info    0x0002e4a2      0x711 ../lab2_cruisecontrol_bsp//libucosii_bsp.a(alt_io_redirect.o)
 .debug_info    0x0002ebb3       0xac ../lab2_cruisecontrol_bsp//libucosii_bsp.a(alt_irq_entry.o)
 .debug_info    0x0002ec5f      0x2e2 ../lab2_cruisecontrol_bsp//libucosii_bsp.a(alt_irq_handler.o)
 .debug_info    0x0002ef41      0x18f ../lab2_cruisecontrol_bsp//libucosii_bsp.a(alt_irq_vars.o)
 .debug_info    0x0002f0d0      0x592 ../lab2_cruisecontrol_bsp//libucosii_bsp.a(alt_open.o)
 .debug_info    0x0002f662      0x18b ../lab2_cruisecontrol_bsp//libucosii_bsp.a(altera_nios2_qsys_irq.o)
 .debug_info    0x0002f7ed       0xab ../lab2_cruisecontrol_bsp//libucosii_bsp.a(os_cpu_a.o)
 .debug_info    0x0002f898     0x1311 ../lab2_cruisecontrol_bsp//libucosii_bsp.a(os_cpu_c.o)
 .debug_info    0x00030ba9       0xb2 ../lab2_cruisecontrol_bsp//libucosii_bsp.a(alt_exception_entry.o)
 .debug_info    0x00030c5b      0x49b ../lab2_cruisecontrol_bsp//libucosii_bsp.a(alt_find_file.o)
 .debug_info    0x000310f6      0x62d ../lab2_cruisecontrol_bsp//libucosii_bsp.a(alt_get_fd.o)
 .debug_info    0x00031723      0x181 /opt/altera/13.0sp1/nios2eds/bin/gnu/H-i686-pc-linux-gnu/bin/../lib/gcc/nios2-elf/4.1.2/../../../../nios2-elf/lib/mno-hw-mul/libc.a(lib_a-atexit.o)
 .debug_info    0x000318a4      0x93f /opt/altera/13.0sp1/nios2eds/bin/gnu/H-i686-pc-linux-gnu/bin/../lib/gcc/nios2-elf/4.1.2/../../../../nios2-elf/lib/mno-hw-mul/libc.a(lib_a-exit.o)
 .debug_info    0x000321e3      0x115 /opt/altera/13.0sp1/nios2eds/bin/gnu/H-i686-pc-linux-gnu/bin/../lib/gcc/nios2-elf/4.1.2/../../../../nios2-elf/lib/mno-hw-mul/libc.a(lib_a-memcmp.o)
 .debug_info    0x000322f8      0x99c /opt/altera/13.0sp1/nios2eds/bin/gnu/H-i686-pc-linux-gnu/bin/../lib/gcc/nios2-elf/4.1.2/../../../../nios2-elf/lib/mno-hw-mul/libc.a(lib_a-__atexit.o)
 .debug_info    0x00032c94      0x9e2 /opt/altera/13.0sp1/nios2eds/bin/gnu/H-i686-pc-linux-gnu/bin/../lib/gcc/nios2-elf/4.1.2/../../../../nios2-elf/lib/mno-hw-mul/libc.a(lib_a-__call_atexit.o)
 .debug_info    0x00033676       0xce /opt/altera/13.0sp1/nios2eds/bin/gnu/H-i686-pc-linux-gnu/bin/../lib/gcc/nios2-elf/4.1.2/mno-hw-mul/libgcc.a(_fixunsdfsi.o)
 .debug_info    0x00033744      0x230 ../lab2_cruisecontrol_bsp//libucosii_bsp.a(alt_exit.o)

.debug_abbrev   0x00000000     0x9ee0
 *(.debug_abbrev)
 .debug_abbrev  0x00000000       0x12 ../lab2_cruisecontrol_bsp//obj/HAL/src/crt0.o
 .debug_abbrev  0x00000012      0x22e obj/default/cruise_skeleton.o
 .debug_abbrev  0x00000240      0x13d /opt/altera/13.0sp1/nios2eds/bin/gnu/H-i686-pc-linux-gnu/bin/../lib/gcc/nios2-elf/4.1.2/mno-hw-mul/libgcc.a(_si_to_sf.o)
 .debug_abbrev  0x0000037d      0x128 /opt/altera/13.0sp1/nios2eds/bin/gnu/H-i686-pc-linux-gnu/bin/../lib/gcc/nios2-elf/4.1.2/mno-hw-mul/libgcc.a(_sf_to_df.o)
 .debug_abbrev  0x000004a5      0x1d2 /opt/altera/13.0sp1/nios2eds/bin/gnu/H-i686-pc-linux-gnu/bin/../lib/gcc/nios2-elf/4.1.2/mno-hw-mul/libgcc.a(_addsub_df.o)
 .debug_abbrev  0x00000677      0x1e3 /opt/altera/13.0sp1/nios2eds/bin/gnu/H-i686-pc-linux-gnu/bin/../lib/gcc/nios2-elf/4.1.2/mno-hw-mul/libgcc.a(_div_df.o)
 .debug_abbrev  0x0000085a      0x13f /opt/altera/13.0sp1/nios2eds/bin/gnu/H-i686-pc-linux-gnu/bin/../lib/gcc/nios2-elf/4.1.2/mno-hw-mul/libgcc.a(_si_to_df.o)
 .debug_abbrev  0x00000999      0x176 /opt/altera/13.0sp1/nios2eds/bin/gnu/H-i686-pc-linux-gnu/bin/../lib/gcc/nios2-elf/4.1.2/mno-hw-mul/libgcc.a(_df_to_si.o)
 .debug_abbrev  0x00000b0f      0x10f /opt/altera/13.0sp1/nios2eds/bin/gnu/H-i686-pc-linux-gnu/bin/../lib/gcc/nios2-elf/4.1.2/mno-hw-mul/libgcc.a(_make_df.o)
 .debug_abbrev  0x00000c1e       0xba /opt/altera/13.0sp1/nios2eds/bin/gnu/H-i686-pc-linux-gnu/bin/../lib/gcc/nios2-elf/4.1.2/mno-hw-mul/libgcc.a(_thenan_df.o)
 .debug_abbrev  0x00000cd8       0xe0 /opt/altera/13.0sp1/nios2eds/bin/gnu/H-i686-pc-linux-gnu/bin/../lib/gcc/nios2-elf/4.1.2/mno-hw-mul/libgcc.a(lib2-divmod.o)
 .debug_abbrev  0x00000db8       0x7b /opt/altera/13.0sp1/nios2eds/bin/gnu/H-i686-pc-linux-gnu/bin/../lib/gcc/nios2-elf/4.1.2/mno-hw-mul/libgcc.a(lib2-mul.o)
 .debug_abbrev  0x00000e33       0xb9 /opt/altera/13.0sp1/nios2eds/bin/gnu/H-i686-pc-linux-gnu/bin/../lib/gcc/nios2-elf/4.1.2/mno-hw-mul/libgcc.a(_clzsi2.o)
 .debug_abbrev  0x00000eec      0x1aa /opt/altera/13.0sp1/nios2eds/bin/gnu/H-i686-pc-linux-gnu/bin/../lib/gcc/nios2-elf/4.1.2/mno-hw-mul/libgcc.a(_pack_sf.o)
 .debug_abbrev  0x00001096      0x158 /opt/altera/13.0sp1/nios2eds/bin/gnu/H-i686-pc-linux-gnu/bin/../lib/gcc/nios2-elf/4.1.2/mno-hw-mul/libgcc.a(_unpack_sf.o)
 .debug_abbrev  0x000011ee      0x1b1 /opt/altera/13.0sp1/nios2eds/bin/gnu/H-i686-pc-linux-gnu/bin/../lib/gcc/nios2-elf/4.1.2/mno-hw-mul/libgcc.a(_pack_df.o)
 .debug_abbrev  0x0000139f      0x149 /opt/altera/13.0sp1/nios2eds/bin/gnu/H-i686-pc-linux-gnu/bin/../lib/gcc/nios2-elf/4.1.2/mno-hw-mul/libgcc.a(_unpack_df.o)
 .debug_abbrev  0x000014e8       0x61 /opt/altera/13.0sp1/nios2eds/bin/gnu/H-i686-pc-linux-gnu/bin/../lib/gcc/nios2-elf/4.1.2/mno-hw-mul/libgcc.a(_clz.o)
 .debug_abbrev  0x00001549      0x191 /opt/altera/13.0sp1/nios2eds/bin/gnu/H-i686-pc-linux-gnu/bin/../lib/gcc/nios2-elf/4.1.2/../../../../nios2-elf/lib/mno-hw-mul/libc.a(lib_a-printf.o)
 .debug_abbrev  0x000016da      0x1ac /opt/altera/13.0sp1/nios2eds/bin/gnu/H-i686-pc-linux-gnu/bin/../lib/gcc/nios2-elf/4.1.2/../../../../nios2-elf/lib/mno-hw-mul/libc.a(lib_a-puts.o)
 .debug_abbrev  0x00001886       0x8b /opt/altera/13.0sp1/nios2eds/bin/gnu/H-i686-pc-linux-gnu/bin/../lib/gcc/nios2-elf/4.1.2/../../../../nios2-elf/lib/mno-hw-mul/libc.a(lib_a-strlen.o)
 .debug_abbrev  0x00001911      0x30a /opt/altera/13.0sp1/nios2eds/bin/gnu/H-i686-pc-linux-gnu/bin/../lib/gcc/nios2-elf/4.1.2/../../../../nios2-elf/lib/mno-hw-mul/libc.a(lib_a-vfprintf.o)
 .debug_abbrev  0x00001c1b      0x170 /opt/altera/13.0sp1/nios2eds/bin/gnu/H-i686-pc-linux-gnu/bin/../lib/gcc/nios2-elf/4.1.2/../../../../nios2-elf/lib/mno-hw-mul/libc.a(lib_a-wsetup.o)
 .debug_abbrev  0x00001d8b      0x232 /opt/altera/13.0sp1/nios2eds/bin/gnu/H-i686-pc-linux-gnu/bin/../lib/gcc/nios2-elf/4.1.2/../../../../nios2-elf/lib/mno-hw-mul/libc.a(lib_a-dtoa.o)
 .debug_abbrev  0x00001fbd      0x1c6 /opt/altera/13.0sp1/nios2eds/bin/gnu/H-i686-pc-linux-gnu/bin/../lib/gcc/nios2-elf/4.1.2/../../../../nios2-elf/lib/mno-hw-mul/libc.a(lib_a-fflush.o)
 .debug_abbrev  0x00002183      0x24c /opt/altera/13.0sp1/nios2eds/bin/gnu/H-i686-pc-linux-gnu/bin/../lib/gcc/nios2-elf/4.1.2/../../../../nios2-elf/lib/mno-hw-mul/libc.a(lib_a-findfp.o)
 .debug_abbrev  0x000023cf      0x1d9 /opt/altera/13.0sp1/nios2eds/bin/gnu/H-i686-pc-linux-gnu/bin/../lib/gcc/nios2-elf/4.1.2/../../../../nios2-elf/lib/mno-hw-mul/libc.a(lib_a-freer.o)
 .debug_abbrev  0x000025a8      0x1a3 /opt/altera/13.0sp1/nios2eds/bin/gnu/H-i686-pc-linux-gnu/bin/../lib/gcc/nios2-elf/4.1.2/../../../../nios2-elf/lib/mno-hw-mul/libc.a(lib_a-fvwrite.o)
 .debug_abbrev  0x0000274b      0x1e3 /opt/altera/13.0sp1/nios2eds/bin/gnu/H-i686-pc-linux-gnu/bin/../lib/gcc/nios2-elf/4.1.2/../../../../nios2-elf/lib/mno-hw-mul/libc.a(lib_a-fwalk.o)
 .debug_abbrev  0x0000292e      0x157 /opt/altera/13.0sp1/nios2eds/bin/gnu/H-i686-pc-linux-gnu/bin/../lib/gcc/nios2-elf/4.1.2/../../../../nios2-elf/lib/mno-hw-mul/libc.a(lib_a-impure.o)
 .debug_abbrev  0x00002a85      0x1ed /opt/altera/13.0sp1/nios2eds/bin/gnu/H-i686-pc-linux-gnu/bin/../lib/gcc/nios2-elf/4.1.2/../../../../nios2-elf/lib/mno-hw-mul/libc.a(lib_a-locale.o)
 .debug_abbrev  0x00002c72      0x197 /opt/altera/13.0sp1/nios2eds/bin/gnu/H-i686-pc-linux-gnu/bin/../lib/gcc/nios2-elf/4.1.2/../../../../nios2-elf/lib/mno-hw-mul/libc.a(lib_a-makebuf.o)
 .debug_abbrev  0x00002e09      0x216 /opt/altera/13.0sp1/nios2eds/bin/gnu/H-i686-pc-linux-gnu/bin/../lib/gcc/nios2-elf/4.1.2/../../../../nios2-elf/lib/mno-hw-mul/libc.a(lib_a-mallocr.o)
 .debug_abbrev  0x0000301f       0xb5 /opt/altera/13.0sp1/nios2eds/bin/gnu/H-i686-pc-linux-gnu/bin/../lib/gcc/nios2-elf/4.1.2/../../../../nios2-elf/lib/mno-hw-mul/libc.a(lib_a-memchr.o)
 .debug_abbrev  0x000030d4       0xb5 /opt/altera/13.0sp1/nios2eds/bin/gnu/H-i686-pc-linux-gnu/bin/../lib/gcc/nios2-elf/4.1.2/../../../../nios2-elf/lib/mno-hw-mul/libc.a(lib_a-memcpy.o)
 .debug_abbrev  0x00003189       0xb5 /opt/altera/13.0sp1/nios2eds/bin/gnu/H-i686-pc-linux-gnu/bin/../lib/gcc/nios2-elf/4.1.2/../../../../nios2-elf/lib/mno-hw-mul/libc.a(lib_a-memmove.o)
 .debug_abbrev  0x0000323e       0xb8 /opt/altera/13.0sp1/nios2eds/bin/gnu/H-i686-pc-linux-gnu/bin/../lib/gcc/nios2-elf/4.1.2/../../../../nios2-elf/lib/mno-hw-mul/libc.a(lib_a-memset.o)
 .debug_abbrev  0x000032f6      0x297 /opt/altera/13.0sp1/nios2eds/bin/gnu/H-i686-pc-linux-gnu/bin/../lib/gcc/nios2-elf/4.1.2/../../../../nios2-elf/lib/mno-hw-mul/libc.a(lib_a-mprec.o)
 .debug_abbrev  0x0000358d      0x1c3 /opt/altera/13.0sp1/nios2eds/bin/gnu/H-i686-pc-linux-gnu/bin/../lib/gcc/nios2-elf/4.1.2/../../../../nios2-elf/lib/mno-hw-mul/libc.a(lib_a-reallocr.o)
 .debug_abbrev  0x00003750       0x79 /opt/altera/13.0sp1/nios2eds/bin/gnu/H-i686-pc-linux-gnu/bin/../lib/gcc/nios2-elf/4.1.2/../../../../nios2-elf/lib/mno-hw-mul/libc.a(lib_a-s_isinfd.o)
 .debug_abbrev  0x000037c9       0x79 /opt/altera/13.0sp1/nios2eds/bin/gnu/H-i686-pc-linux-gnu/bin/../lib/gcc/nios2-elf/4.1.2/../../../../nios2-elf/lib/mno-hw-mul/libc.a(lib_a-s_isnand.o)
 .debug_abbrev  0x00003842      0x18c /opt/altera/13.0sp1/nios2eds/bin/gnu/H-i686-pc-linux-gnu/bin/../lib/gcc/nios2-elf/4.1.2/../../../../nios2-elf/lib/mno-hw-mul/libc.a(lib_a-sbrkr.o)
 .debug_abbrev  0x000039ce      0x1c9 /opt/altera/13.0sp1/nios2eds/bin/gnu/H-i686-pc-linux-gnu/bin/../lib/gcc/nios2-elf/4.1.2/../../../../nios2-elf/lib/mno-hw-mul/libc.a(lib_a-stdio.o)
 .debug_abbrev  0x00003b97       0x80 /opt/altera/13.0sp1/nios2eds/bin/gnu/H-i686-pc-linux-gnu/bin/../lib/gcc/nios2-elf/4.1.2/../../../../nios2-elf/lib/mno-hw-mul/libc.a(lib_a-strcmp.o)
 .debug_abbrev  0x00003c17      0x184 /opt/altera/13.0sp1/nios2eds/bin/gnu/H-i686-pc-linux-gnu/bin/../lib/gcc/nios2-elf/4.1.2/../../../../nios2-elf/lib/mno-hw-mul/libc.a(lib_a-writer.o)
 .debug_abbrev  0x00003d9b      0x1b8 /opt/altera/13.0sp1/nios2eds/bin/gnu/H-i686-pc-linux-gnu/bin/../lib/gcc/nios2-elf/4.1.2/../../../../nios2-elf/lib/mno-hw-mul/libc.a(lib_a-callocr.o)
 .debug_abbrev  0x00003f53      0x17f /opt/altera/13.0sp1/nios2eds/bin/gnu/H-i686-pc-linux-gnu/bin/../lib/gcc/nios2-elf/4.1.2/../../../../nios2-elf/lib/mno-hw-mul/libc.a(lib_a-closer.o)
 .debug_abbrev  0x000040d2      0x1a7 /opt/altera/13.0sp1/nios2eds/bin/gnu/H-i686-pc-linux-gnu/bin/../lib/gcc/nios2-elf/4.1.2/../../../../nios2-elf/lib/mno-hw-mul/libc.a(lib_a-fclose.o)
 .debug_abbrev  0x00004279      0x18e /opt/altera/13.0sp1/nios2eds/bin/gnu/H-i686-pc-linux-gnu/bin/../lib/gcc/nios2-elf/4.1.2/../../../../nios2-elf/lib/mno-hw-mul/libc.a(lib_a-fstatr.o)
 .debug_abbrev  0x00004407       0x3b /opt/altera/13.0sp1/nios2eds/bin/gnu/H-i686-pc-linux-gnu/bin/../lib/gcc/nios2-elf/4.1.2/../../../../nios2-elf/lib/mno-hw-mul/libc.a(lib_a-int_errno.o)
 .debug_abbrev  0x00004442      0x17f /opt/altera/13.0sp1/nios2eds/bin/gnu/H-i686-pc-linux-gnu/bin/../lib/gcc/nios2-elf/4.1.2/../../../../nios2-elf/lib/mno-hw-mul/libc.a(lib_a-isattyr.o)
 .debug_abbrev  0x000045c1      0x18e /opt/altera/13.0sp1/nios2eds/bin/gnu/H-i686-pc-linux-gnu/bin/../lib/gcc/nios2-elf/4.1.2/../../../../nios2-elf/lib/mno-hw-mul/libc.a(lib_a-lseekr.o)
 .debug_abbrev  0x0000474f      0x17f /opt/altera/13.0sp1/nios2eds/bin/gnu/H-i686-pc-linux-gnu/bin/../lib/gcc/nios2-elf/4.1.2/../../../../nios2-elf/lib/mno-hw-mul/libc.a(lib_a-readr.o)
 .debug_abbrev  0x000048ce      0x16b /opt/altera/13.0sp1/nios2eds/bin/gnu/H-i686-pc-linux-gnu/bin/../lib/gcc/nios2-elf/4.1.2/mno-hw-mul/libgcc.a(_udivdi3.o)
 .debug_abbrev  0x00004a39      0x18e /opt/altera/13.0sp1/nios2eds/bin/gnu/H-i686-pc-linux-gnu/bin/../lib/gcc/nios2-elf/4.1.2/mno-hw-mul/libgcc.a(_umoddi3.o)
 .debug_abbrev  0x00004bc7      0x204 /opt/altera/13.0sp1/nios2eds/bin/gnu/H-i686-pc-linux-gnu/bin/../lib/gcc/nios2-elf/4.1.2/mno-hw-mul/libgcc.a(_mul_df.o)
 .debug_abbrev  0x00004dcb      0x151 /opt/altera/13.0sp1/nios2eds/bin/gnu/H-i686-pc-linux-gnu/bin/../lib/gcc/nios2-elf/4.1.2/mno-hw-mul/libgcc.a(_eq_df.o)
 .debug_abbrev  0x00004f1c      0x151 /opt/altera/13.0sp1/nios2eds/bin/gnu/H-i686-pc-linux-gnu/bin/../lib/gcc/nios2-elf/4.1.2/mno-hw-mul/libgcc.a(_ne_df.o)
 .debug_abbrev  0x0000506d      0x151 /opt/altera/13.0sp1/nios2eds/bin/gnu/H-i686-pc-linux-gnu/bin/../lib/gcc/nios2-elf/4.1.2/mno-hw-mul/libgcc.a(_gt_df.o)
 .debug_abbrev  0x000051be      0x151 /opt/altera/13.0sp1/nios2eds/bin/gnu/H-i686-pc-linux-gnu/bin/../lib/gcc/nios2-elf/4.1.2/mno-hw-mul/libgcc.a(_ge_df.o)
 .debug_abbrev  0x0000530f      0x151 /opt/altera/13.0sp1/nios2eds/bin/gnu/H-i686-pc-linux-gnu/bin/../lib/gcc/nios2-elf/4.1.2/mno-hw-mul/libgcc.a(_lt_df.o)
 .debug_abbrev  0x00005460      0x155 /opt/altera/13.0sp1/nios2eds/bin/gnu/H-i686-pc-linux-gnu/bin/../lib/gcc/nios2-elf/4.1.2/mno-hw-mul/libgcc.a(_usi_to_df.o)
 .debug_abbrev  0x000055b5       0xfb /opt/altera/13.0sp1/nios2eds/bin/gnu/H-i686-pc-linux-gnu/bin/../lib/gcc/nios2-elf/4.1.2/mno-hw-mul/libgcc.a(_muldi3.o)
 .debug_abbrev  0x000056b0      0x132 /opt/altera/13.0sp1/nios2eds/bin/gnu/H-i686-pc-linux-gnu/bin/../lib/gcc/nios2-elf/4.1.2/mno-hw-mul/libgcc.a(_fpcmp_parts_df.o)
 .debug_abbrev  0x000057e2      0x172 ../lab2_cruisecontrol_bsp//libucosii_bsp.a(alt_alarm_start.o)
 .debug_abbrev  0x00005954      0x102 ../lab2_cruisecontrol_bsp//libucosii_bsp.a(alt_close.o)
 .debug_abbrev  0x00005a56      0x10a ../lab2_cruisecontrol_bsp//libucosii_bsp.a(alt_dev.o)
 .debug_abbrev  0x00005b60       0x5e ../lab2_cruisecontrol_bsp//libucosii_bsp.a(alt_errno.o)
 .debug_abbrev  0x00005bbe      0x102 ../lab2_cruisecontrol_bsp//libucosii_bsp.a(alt_fstat.o)
 .debug_abbrev  0x00005cc0      0x102 ../lab2_cruisecontrol_bsp//libucosii_bsp.a(alt_isatty.o)
 .debug_abbrev  0x00005dc2       0x88 ../lab2_cruisecontrol_bsp//libucosii_bsp.a(alt_load.o)
 .debug_abbrev  0x00005e4a      0x102 ../lab2_cruisecontrol_bsp//libucosii_bsp.a(alt_lseek.o)
 .debug_abbrev  0x00005f4c      0x120 ../lab2_cruisecontrol_bsp//libucosii_bsp.a(alt_main.o)
 .debug_abbrev  0x0000606c      0x102 ../lab2_cruisecontrol_bsp//libucosii_bsp.a(alt_read.o)
 .debug_abbrev  0x0000616e       0xd3 ../lab2_cruisecontrol_bsp//libucosii_bsp.a(alt_release_fd.o)
 .debug_abbrev  0x00006241      0x115 ../lab2_cruisecontrol_bsp//libucosii_bsp.a(alt_sbrk.o)
 .debug_abbrev  0x00006356      0x150 ../lab2_cruisecontrol_bsp//libucosii_bsp.a(alt_tick.o)
 .debug_abbrev  0x000064a6      0x107 ../lab2_cruisecontrol_bsp//libucosii_bsp.a(alt_write.o)
 .debug_abbrev  0x000065ad      0x1b3 ../lab2_cruisecontrol_bsp//libucosii_bsp.a(alt_env_lock.o)
 .debug_abbrev  0x00006760      0x234 ../lab2_cruisecontrol_bsp//libucosii_bsp.a(alt_malloc_lock.o)
 .debug_abbrev  0x00006994      0x2ba ../lab2_cruisecontrol_bsp//libucosii_bsp.a(os_core.o)
 .debug_abbrev  0x00006c4e      0x124 ../lab2_cruisecontrol_bsp//libucosii_bsp.a(os_dbg.o)
 .debug_abbrev  0x00006d72      0x21b ../lab2_cruisecontrol_bsp//libucosii_bsp.a(os_flag.o)
 .debug_abbrev  0x00006f8d      0x1f6 ../lab2_cruisecontrol_bsp//libucosii_bsp.a(os_mbox.o)
 .debug_abbrev  0x00007183      0x235 ../lab2_cruisecontrol_bsp//libucosii_bsp.a(os_mem.o)
 .debug_abbrev  0x000073b8      0x20d ../lab2_cruisecontrol_bsp//libucosii_bsp.a(os_q.o)
 .debug_abbrev  0x000075c5      0x20d ../lab2_cruisecontrol_bsp//libucosii_bsp.a(os_sem.o)
 .debug_abbrev  0x000077d2      0x20e ../lab2_cruisecontrol_bsp//libucosii_bsp.a(os_task.o)
 .debug_abbrev  0x000079e0      0x1de ../lab2_cruisecontrol_bsp//libucosii_bsp.a(os_time.o)
 .debug_abbrev  0x00007bbe      0x1c6 ../lab2_cruisecontrol_bsp//libucosii_bsp.a(os_tmr.o)
 .debug_abbrev  0x00007d84      0x1a3 ../lab2_cruisecontrol_bsp//libucosii_bsp.a(alt_sys_init.o)
 .debug_abbrev  0x00007f27      0x13c ../lab2_cruisecontrol_bsp//libucosii_bsp.a(altera_avalon_jtag_uart_fd.o)
 .debug_abbrev  0x00008063      0x21e ../lab2_cruisecontrol_bsp//libucosii_bsp.a(altera_avalon_jtag_uart_init.o)
 .debug_abbrev  0x00008281      0x135 ../lab2_cruisecontrol_bsp//libucosii_bsp.a(altera_avalon_jtag_uart_ioctl.o)
 .debug_abbrev  0x000083b6      0x1ee ../lab2_cruisecontrol_bsp//libucosii_bsp.a(altera_avalon_jtag_uart_read.o)
 .debug_abbrev  0x000085a4      0x1ea ../lab2_cruisecontrol_bsp//libucosii_bsp.a(altera_avalon_jtag_uart_write.o)
 .debug_abbrev  0x0000878e      0x137 ../lab2_cruisecontrol_bsp//libucosii_bsp.a(altera_avalon_timer_sc.o)
 .debug_abbrev  0x000088c5      0x127 ../lab2_cruisecontrol_bsp//libucosii_bsp.a(altera_up_avalon_character_lcd.o)
 .debug_abbrev  0x000089ec       0x3f ../lab2_cruisecontrol_bsp//libucosii_bsp.a(alt_dcache_flush_all.o)
 .debug_abbrev  0x00008a2b       0xf6 ../lab2_cruisecontrol_bsp//libucosii_bsp.a(alt_dev_llist_insert.o)
 .debug_abbrev  0x00008b21       0x76 ../lab2_cruisecontrol_bsp//libucosii_bsp.a(alt_do_ctors.o)
 .debug_abbrev  0x00008b97       0x76 ../lab2_cruisecontrol_bsp//libucosii_bsp.a(alt_do_dtors.o)
 .debug_abbrev  0x00008c0d       0xd6 ../lab2_cruisecontrol_bsp//libucosii_bsp.a(alt_find_dev.o)
 .debug_abbrev  0x00008ce3       0x3f ../lab2_cruisecontrol_bsp//libucosii_bsp.a(alt_icache_flush_all.o)
 .debug_abbrev  0x00008d22      0x134 ../lab2_cruisecontrol_bsp//libucosii_bsp.a(alt_iic.o)
 .debug_abbrev  0x00008e56      0x14e ../lab2_cruisecontrol_bsp//libucosii_bsp.a(alt_iic_isr_register.o)
 .debug_abbrev  0x00008fa4       0xf7 ../lab2_cruisecontrol_bsp//libucosii_bsp.a(alt_io_redirect.o)
 .debug_abbrev  0x0000909b       0x12 ../lab2_cruisecontrol_bsp//libucosii_bsp.a(alt_irq_entry.o)
 .debug_abbrev  0x000090ad      0x124 ../lab2_cruisecontrol_bsp//libucosii_bsp.a(alt_irq_handler.o)
 .debug_abbrev  0x000091d1       0x44 ../lab2_cruisecontrol_bsp//libucosii_bsp.a(alt_irq_vars.o)
 .debug_abbrev  0x00009215      0x119 ../lab2_cruisecontrol_bsp//libucosii_bsp.a(alt_open.o)
 .debug_abbrev  0x0000932e       0x3f ../lab2_cruisecontrol_bsp//libucosii_bsp.a(altera_nios2_qsys_irq.o)
 .debug_abbrev  0x0000936d       0x14 ../lab2_cruisecontrol_bsp//libucosii_bsp.a(os_cpu_a.o)
 .debug_abbrev  0x00009381      0x1d0 ../lab2_cruisecontrol_bsp//libucosii_bsp.a(os_cpu_c.o)
 .debug_abbrev  0x00009551       0x12 ../lab2_cruisecontrol_bsp//libucosii_bsp.a(alt_exception_entry.o)
 .debug_abbrev  0x00009563       0xd6 ../lab2_cruisecontrol_bsp//libucosii_bsp.a(alt_find_file.o)
 .debug_abbrev  0x00009639      0x173 ../lab2_cruisecontrol_bsp//libucosii_bsp.a(alt_get_fd.o)
 .debug_abbrev  0x000097ac       0xb7 /opt/altera/13.0sp1/nios2eds/bin/gnu/H-i686-pc-linux-gnu/bin/../lib/gcc/nios2-elf/4.1.2/../../../../nios2-elf/lib/mno-hw-mul/libc.a(lib_a-atexit.o)
 .debug_abbrev  0x00009863      0x16e /opt/altera/13.0sp1/nios2eds/bin/gnu/H-i686-pc-linux-gnu/bin/../lib/gcc/nios2-elf/4.1.2/../../../../nios2-elf/lib/mno-hw-mul/libc.a(lib_a-exit.o)
 .debug_abbrev  0x000099d1       0x7c /opt/altera/13.0sp1/nios2eds/bin/gnu/H-i686-pc-linux-gnu/bin/../lib/gcc/nios2-elf/4.1.2/../../../../nios2-elf/lib/mno-hw-mul/libc.a(lib_a-memcmp.o)
 .debug_abbrev  0x00009a4d      0x1ae /opt/altera/13.0sp1/nios2eds/bin/gnu/H-i686-pc-linux-gnu/bin/../lib/gcc/nios2-elf/4.1.2/../../../../nios2-elf/lib/mno-hw-mul/libc.a(lib_a-__atexit.o)
 .debug_abbrev  0x00009bfb      0x1de /opt/altera/13.0sp1/nios2eds/bin/gnu/H-i686-pc-linux-gnu/bin/../lib/gcc/nios2-elf/4.1.2/../../../../nios2-elf/lib/mno-hw-mul/libc.a(lib_a-__call_atexit.o)
 .debug_abbrev  0x00009dd9       0x5d /opt/altera/13.0sp1/nios2eds/bin/gnu/H-i686-pc-linux-gnu/bin/../lib/gcc/nios2-elf/4.1.2/mno-hw-mul/libgcc.a(_fixunsdfsi.o)
 .debug_abbrev  0x00009e36       0xaa ../lab2_cruisecontrol_bsp//libucosii_bsp.a(alt_exit.o)

.debug_line     0x00000000    0x1dd03
 *(.debug_line)
 .debug_line    0x00000000       0x66 ../lab2_cruisecontrol_bsp//obj/HAL/src/crt0.o
 .debug_line    0x00000066      0x963 obj/default/cruise_skeleton.o
 .debug_line    0x000009c9      0x187 /opt/altera/13.0sp1/nios2eds/bin/gnu/H-i686-pc-linux-gnu/bin/../lib/gcc/nios2-elf/4.1.2/mno-hw-mul/libgcc.a(_si_to_sf.o)
 .debug_line    0x00000b50       0xd1 /opt/altera/13.0sp1/nios2eds/bin/gnu/H-i686-pc-linux-gnu/bin/../lib/gcc/nios2-elf/4.1.2/mno-hw-mul/libgcc.a(_sf_to_df.o)
 .debug_line    0x00000c21      0x430 /opt/altera/13.0sp1/nios2eds/bin/gnu/H-i686-pc-linux-gnu/bin/../lib/gcc/nios2-elf/4.1.2/mno-hw-mul/libgcc.a(_addsub_df.o)
 .debug_line    0x00001051      0x301 /opt/altera/13.0sp1/nios2eds/bin/gnu/H-i686-pc-linux-gnu/bin/../lib/gcc/nios2-elf/4.1.2/mno-hw-mul/libgcc.a(_div_df.o)
 .debug_line    0x00001352      0x175 /opt/altera/13.0sp1/nios2eds/bin/gnu/H-i686-pc-linux-gnu/bin/../lib/gcc/nios2-elf/4.1.2/mno-hw-mul/libgcc.a(_si_to_df.o)
 .debug_line    0x000014c7      0x149 /opt/altera/13.0sp1/nios2eds/bin/gnu/H-i686-pc-linux-gnu/bin/../lib/gcc/nios2-elf/4.1.2/mno-hw-mul/libgcc.a(_df_to_si.o)
 .debug_line    0x00001610       0xe9 /opt/altera/13.0sp1/nios2eds/bin/gnu/H-i686-pc-linux-gnu/bin/../lib/gcc/nios2-elf/4.1.2/mno-hw-mul/libgcc.a(_make_df.o)
 .debug_line    0x000016f9       0x94 /opt/altera/13.0sp1/nios2eds/bin/gnu/H-i686-pc-linux-gnu/bin/../lib/gcc/nios2-elf/4.1.2/mno-hw-mul/libgcc.a(_thenan_df.o)
 .debug_line    0x0000178d      0x2c6 /opt/altera/13.0sp1/nios2eds/bin/gnu/H-i686-pc-linux-gnu/bin/../lib/gcc/nios2-elf/4.1.2/mno-hw-mul/libgcc.a(lib2-divmod.o)
 .debug_line    0x00001a53      0x191 /opt/altera/13.0sp1/nios2eds/bin/gnu/H-i686-pc-linux-gnu/bin/../lib/gcc/nios2-elf/4.1.2/mno-hw-mul/libgcc.a(lib2-mul.o)
 .debug_line    0x00001be4      0x17c /opt/altera/13.0sp1/nios2eds/bin/gnu/H-i686-pc-linux-gnu/bin/../lib/gcc/nios2-elf/4.1.2/mno-hw-mul/libgcc.a(_clzsi2.o)
 .debug_line    0x00001d60      0x1ca /opt/altera/13.0sp1/nios2eds/bin/gnu/H-i686-pc-linux-gnu/bin/../lib/gcc/nios2-elf/4.1.2/mno-hw-mul/libgcc.a(_pack_sf.o)
 .debug_line    0x00001f2a      0x197 /opt/altera/13.0sp1/nios2eds/bin/gnu/H-i686-pc-linux-gnu/bin/../lib/gcc/nios2-elf/4.1.2/mno-hw-mul/libgcc.a(_unpack_sf.o)
 .debug_line    0x000020c1      0x222 /opt/altera/13.0sp1/nios2eds/bin/gnu/H-i686-pc-linux-gnu/bin/../lib/gcc/nios2-elf/4.1.2/mno-hw-mul/libgcc.a(_pack_df.o)
 .debug_line    0x000022e3      0x1e4 /opt/altera/13.0sp1/nios2eds/bin/gnu/H-i686-pc-linux-gnu/bin/../lib/gcc/nios2-elf/4.1.2/mno-hw-mul/libgcc.a(_unpack_df.o)
 .debug_line    0x000024c7      0x121 /opt/altera/13.0sp1/nios2eds/bin/gnu/H-i686-pc-linux-gnu/bin/../lib/gcc/nios2-elf/4.1.2/mno-hw-mul/libgcc.a(_clz.o)
 .debug_line    0x000025e8      0x29e /opt/altera/13.0sp1/nios2eds/bin/gnu/H-i686-pc-linux-gnu/bin/../lib/gcc/nios2-elf/4.1.2/../../../../nios2-elf/lib/mno-hw-mul/libc.a(lib_a-printf.o)
 .debug_line    0x00002886      0x2fa /opt/altera/13.0sp1/nios2eds/bin/gnu/H-i686-pc-linux-gnu/bin/../lib/gcc/nios2-elf/4.1.2/../../../../nios2-elf/lib/mno-hw-mul/libc.a(lib_a-puts.o)
 .debug_line    0x00002b80      0x270 /opt/altera/13.0sp1/nios2eds/bin/gnu/H-i686-pc-linux-gnu/bin/../lib/gcc/nios2-elf/4.1.2/../../../../nios2-elf/lib/mno-hw-mul/libc.a(lib_a-strlen.o)
 .debug_line    0x00002df0     0x110f /opt/altera/13.0sp1/nios2eds/bin/gnu/H-i686-pc-linux-gnu/bin/../lib/gcc/nios2-elf/4.1.2/../../../../nios2-elf/lib/mno-hw-mul/libc.a(lib_a-vfprintf.o)
 .debug_line    0x00003eff      0x2f3 /opt/altera/13.0sp1/nios2eds/bin/gnu/H-i686-pc-linux-gnu/bin/../lib/gcc/nios2-elf/4.1.2/../../../../nios2-elf/lib/mno-hw-mul/libc.a(lib_a-wsetup.o)
 .debug_line    0x000041f2     0x1309 /opt/altera/13.0sp1/nios2eds/bin/gnu/H-i686-pc-linux-gnu/bin/../lib/gcc/nios2-elf/4.1.2/../../../../nios2-elf/lib/mno-hw-mul/libc.a(lib_a-dtoa.o)
 .debug_line    0x000054fb      0x410 /opt/altera/13.0sp1/nios2eds/bin/gnu/H-i686-pc-linux-gnu/bin/../lib/gcc/nios2-elf/4.1.2/../../../../nios2-elf/lib/mno-hw-mul/libc.a(lib_a-fflush.o)
 .debug_line    0x0000590b      0x60c /opt/altera/13.0sp1/nios2eds/bin/gnu/H-i686-pc-linux-gnu/bin/../lib/gcc/nios2-elf/4.1.2/../../../../nios2-elf/lib/mno-hw-mul/libc.a(lib_a-findfp.o)
 .debug_line    0x00005f17      0x5ee /opt/altera/13.0sp1/nios2eds/bin/gnu/H-i686-pc-linux-gnu/bin/../lib/gcc/nios2-elf/4.1.2/../../../../nios2-elf/lib/mno-hw-mul/libc.a(lib_a-freer.o)
 .debug_line    0x00006505      0x644 /opt/altera/13.0sp1/nios2eds/bin/gnu/H-i686-pc-linux-gnu/bin/../lib/gcc/nios2-elf/4.1.2/../../../../nios2-elf/lib/mno-hw-mul/libc.a(lib_a-fvwrite.o)
 .debug_line    0x00006b49      0x34d /opt/altera/13.0sp1/nios2eds/bin/gnu/H-i686-pc-linux-gnu/bin/../lib/gcc/nios2-elf/4.1.2/../../../../nios2-elf/lib/mno-hw-mul/libc.a(lib_a-fwalk.o)
 .debug_line    0x00006e96      0x230 /opt/altera/13.0sp1/nios2eds/bin/gnu/H-i686-pc-linux-gnu/bin/../lib/gcc/nios2-elf/4.1.2/../../../../nios2-elf/lib/mno-hw-mul/libc.a(lib_a-impure.o)
 .debug_line    0x000070c6      0x2cb /opt/altera/13.0sp1/nios2eds/bin/gnu/H-i686-pc-linux-gnu/bin/../lib/gcc/nios2-elf/4.1.2/../../../../nios2-elf/lib/mno-hw-mul/libc.a(lib_a-locale.o)
 .debug_line    0x00007391      0x3c6 /opt/altera/13.0sp1/nios2eds/bin/gnu/H-i686-pc-linux-gnu/bin/../lib/gcc/nios2-elf/4.1.2/../../../../nios2-elf/lib/mno-hw-mul/libc.a(lib_a-makebuf.o)
 .debug_line    0x00007757      0x80d /opt/altera/13.0sp1/nios2eds/bin/gnu/H-i686-pc-linux-gnu/bin/../lib/gcc/nios2-elf/4.1.2/../../../../nios2-elf/lib/mno-hw-mul/libc.a(lib_a-mallocr.o)
 .debug_line    0x00007f64      0x306 /opt/altera/13.0sp1/nios2eds/bin/gnu/H-i686-pc-linux-gnu/bin/../lib/gcc/nios2-elf/4.1.2/../../../../nios2-elf/lib/mno-hw-mul/libc.a(lib_a-memchr.o)
 .debug_line    0x0000826a      0x1af /opt/altera/13.0sp1/nios2eds/bin/gnu/H-i686-pc-linux-gnu/bin/../lib/gcc/nios2-elf/4.1.2/../../../../nios2-elf/lib/mno-hw-mul/libc.a(lib_a-memcpy.o)
 .debug_line    0x00008419      0x30d /opt/altera/13.0sp1/nios2eds/bin/gnu/H-i686-pc-linux-gnu/bin/../lib/gcc/nios2-elf/4.1.2/../../../../nios2-elf/lib/mno-hw-mul/libc.a(lib_a-memmove.o)
 .debug_line    0x00008726      0x304 /opt/altera/13.0sp1/nios2eds/bin/gnu/H-i686-pc-linux-gnu/bin/../lib/gcc/nios2-elf/4.1.2/../../../../nios2-elf/lib/mno-hw-mul/libc.a(lib_a-memset.o)
 .debug_line    0x00008a2a     0x125e /opt/altera/13.0sp1/nios2eds/bin/gnu/H-i686-pc-linux-gnu/bin/../lib/gcc/nios2-elf/4.1.2/../../../../nios2-elf/lib/mno-hw-mul/libc.a(lib_a-mprec.o)
 .debug_line    0x00009c88      0x58d /opt/altera/13.0sp1/nios2eds/bin/gnu/H-i686-pc-linux-gnu/bin/../lib/gcc/nios2-elf/4.1.2/../../../../nios2-elf/lib/mno-hw-mul/libc.a(lib_a-reallocr.o)
 .debug_line    0x0000a215      0x225 /opt/altera/13.0sp1/nios2eds/bin/gnu/H-i686-pc-linux-gnu/bin/../lib/gcc/nios2-elf/4.1.2/../../../../nios2-elf/lib/mno-hw-mul/libc.a(lib_a-s_isinfd.o)
 .debug_line    0x0000a43a      0x21d /opt/altera/13.0sp1/nios2eds/bin/gnu/H-i686-pc-linux-gnu/bin/../lib/gcc/nios2-elf/4.1.2/../../../../nios2-elf/lib/mno-hw-mul/libc.a(lib_a-s_isnand.o)
 .debug_line    0x0000a657      0x29c /opt/altera/13.0sp1/nios2eds/bin/gnu/H-i686-pc-linux-gnu/bin/../lib/gcc/nios2-elf/4.1.2/../../../../nios2-elf/lib/mno-hw-mul/libc.a(lib_a-sbrkr.o)
 .debug_line    0x0000a8f3      0x38f /opt/altera/13.0sp1/nios2eds/bin/gnu/H-i686-pc-linux-gnu/bin/../lib/gcc/nios2-elf/4.1.2/../../../../nios2-elf/lib/mno-hw-mul/libc.a(lib_a-stdio.o)
 .debug_line    0x0000ac82      0x2d8 /opt/altera/13.0sp1/nios2eds/bin/gnu/H-i686-pc-linux-gnu/bin/../lib/gcc/nios2-elf/4.1.2/../../../../nios2-elf/lib/mno-hw-mul/libc.a(lib_a-strcmp.o)
 .debug_line    0x0000af5a      0x29d /opt/altera/13.0sp1/nios2eds/bin/gnu/H-i686-pc-linux-gnu/bin/../lib/gcc/nios2-elf/4.1.2/../../../../nios2-elf/lib/mno-hw-mul/libc.a(lib_a-writer.o)
 .debug_line    0x0000b1f7      0x25f /opt/altera/13.0sp1/nios2eds/bin/gnu/H-i686-pc-linux-gnu/bin/../lib/gcc/nios2-elf/4.1.2/../../../../nios2-elf/lib/mno-hw-mul/libc.a(lib_a-callocr.o)
 .debug_line    0x0000b456      0x29d /opt/altera/13.0sp1/nios2eds/bin/gnu/H-i686-pc-linux-gnu/bin/../lib/gcc/nios2-elf/4.1.2/../../../../nios2-elf/lib/mno-hw-mul/libc.a(lib_a-closer.o)
 .debug_line    0x0000b6f3      0x2eb /opt/altera/13.0sp1/nios2eds/bin/gnu/H-i686-pc-linux-gnu/bin/../lib/gcc/nios2-elf/4.1.2/../../../../nios2-elf/lib/mno-hw-mul/libc.a(lib_a-fclose.o)
 .debug_line    0x0000b9de      0x267 /opt/altera/13.0sp1/nios2eds/bin/gnu/H-i686-pc-linux-gnu/bin/../lib/gcc/nios2-elf/4.1.2/../../../../nios2-elf/lib/mno-hw-mul/libc.a(lib_a-fstatr.o)
 .debug_line    0x0000bc45      0x1e2 /opt/altera/13.0sp1/nios2eds/bin/gnu/H-i686-pc-linux-gnu/bin/../lib/gcc/nios2-elf/4.1.2/../../../../nios2-elf/lib/mno-hw-mul/libc.a(lib_a-int_errno.o)
 .debug_line    0x0000be27      0x29e /opt/altera/13.0sp1/nios2eds/bin/gnu/H-i686-pc-linux-gnu/bin/../lib/gcc/nios2-elf/4.1.2/../../../../nios2-elf/lib/mno-hw-mul/libc.a(lib_a-isattyr.o)
 .debug_line    0x0000c0c5      0x29d /opt/altera/13.0sp1/nios2eds/bin/gnu/H-i686-pc-linux-gnu/bin/../lib/gcc/nios2-elf/4.1.2/../../../../nios2-elf/lib/mno-hw-mul/libc.a(lib_a-lseekr.o)
 .debug_line    0x0000c362      0x29c /opt/altera/13.0sp1/nios2eds/bin/gnu/H-i686-pc-linux-gnu/bin/../lib/gcc/nios2-elf/4.1.2/../../../../nios2-elf/lib/mno-hw-mul/libc.a(lib_a-readr.o)
 .debug_line    0x0000c5fe      0x369 /opt/altera/13.0sp1/nios2eds/bin/gnu/H-i686-pc-linux-gnu/bin/../lib/gcc/nios2-elf/4.1.2/mno-hw-mul/libgcc.a(_udivdi3.o)
 .debug_line    0x0000c967      0x47c /opt/altera/13.0sp1/nios2eds/bin/gnu/H-i686-pc-linux-gnu/bin/../lib/gcc/nios2-elf/4.1.2/mno-hw-mul/libgcc.a(_umoddi3.o)
 .debug_line    0x0000cde3      0x3e5 /opt/altera/13.0sp1/nios2eds/bin/gnu/H-i686-pc-linux-gnu/bin/../lib/gcc/nios2-elf/4.1.2/mno-hw-mul/libgcc.a(_mul_df.o)
 .debug_line    0x0000d1c8      0x129 /opt/altera/13.0sp1/nios2eds/bin/gnu/H-i686-pc-linux-gnu/bin/../lib/gcc/nios2-elf/4.1.2/mno-hw-mul/libgcc.a(_eq_df.o)
 .debug_line    0x0000d2f1      0x129 /opt/altera/13.0sp1/nios2eds/bin/gnu/H-i686-pc-linux-gnu/bin/../lib/gcc/nios2-elf/4.1.2/mno-hw-mul/libgcc.a(_ne_df.o)
 .debug_line    0x0000d41a      0x129 /opt/altera/13.0sp1/nios2eds/bin/gnu/H-i686-pc-linux-gnu/bin/../lib/gcc/nios2-elf/4.1.2/mno-hw-mul/libgcc.a(_gt_df.o)
 .debug_line    0x0000d543      0x129 /opt/altera/13.0sp1/nios2eds/bin/gnu/H-i686-pc-linux-gnu/bin/../lib/gcc/nios2-elf/4.1.2/mno-hw-mul/libgcc.a(_ge_df.o)
 .debug_line    0x0000d66c      0x129 /opt/altera/13.0sp1/nios2eds/bin/gnu/H-i686-pc-linux-gnu/bin/../lib/gcc/nios2-elf/4.1.2/mno-hw-mul/libgcc.a(_lt_df.o)
 .debug_line    0x0000d795      0x189 /opt/altera/13.0sp1/nios2eds/bin/gnu/H-i686-pc-linux-gnu/bin/../lib/gcc/nios2-elf/4.1.2/mno-hw-mul/libgcc.a(_usi_to_df.o)
 .debug_line    0x0000d91e      0x1c6 /opt/altera/13.0sp1/nios2eds/bin/gnu/H-i686-pc-linux-gnu/bin/../lib/gcc/nios2-elf/4.1.2/mno-hw-mul/libgcc.a(_muldi3.o)
 .debug_line    0x0000dae4      0x187 /opt/altera/13.0sp1/nios2eds/bin/gnu/H-i686-pc-linux-gnu/bin/../lib/gcc/nios2-elf/4.1.2/mno-hw-mul/libgcc.a(_fpcmp_parts_df.o)
 .debug_line    0x0000dc6b      0x2ea ../lab2_cruisecontrol_bsp//libucosii_bsp.a(alt_alarm_start.o)
 .debug_line    0x0000df55      0x307 ../lab2_cruisecontrol_bsp//libucosii_bsp.a(alt_close.o)
 .debug_line    0x0000e25c      0x2c8 ../lab2_cruisecontrol_bsp//libucosii_bsp.a(alt_dev.o)
 .debug_line    0x0000e524      0x1b8 ../lab2_cruisecontrol_bsp//libucosii_bsp.a(alt_errno.o)
 .debug_line    0x0000e6dc      0x30f ../lab2_cruisecontrol_bsp//libucosii_bsp.a(alt_fstat.o)
 .debug_line    0x0000e9eb      0x310 ../lab2_cruisecontrol_bsp//libucosii_bsp.a(alt_isatty.o)
 .debug_line    0x0000ecfb      0x225 ../lab2_cruisecontrol_bsp//libucosii_bsp.a(alt_load.o)
 .debug_line    0x0000ef20      0x30f ../lab2_cruisecontrol_bsp//libucosii_bsp.a(alt_lseek.o)
 .debug_line    0x0000f22f      0x357 ../lab2_cruisecontrol_bsp//libucosii_bsp.a(alt_main.o)
 .debug_line    0x0000f586      0x336 ../lab2_cruisecontrol_bsp//libucosii_bsp.a(alt_read.o)
 .debug_line    0x0000f8bc      0x287 ../lab2_cruisecontrol_bsp//libucosii_bsp.a(alt_release_fd.o)
 .debug_line    0x0000fb43      0x26f ../lab2_cruisecontrol_bsp//libucosii_bsp.a(alt_sbrk.o)
 .debug_line    0x0000fdb2      0x324 ../lab2_cruisecontrol_bsp//libucosii_bsp.a(alt_tick.o)
 .debug_line    0x000100d6      0x337 ../lab2_cruisecontrol_bsp//libucosii_bsp.a(alt_write.o)
 .debug_line    0x0001040d      0x2cd ../lab2_cruisecontrol_bsp//libucosii_bsp.a(alt_env_lock.o)
 .debug_line    0x000106da      0x389 ../lab2_cruisecontrol_bsp//libucosii_bsp.a(alt_malloc_lock.o)
 .debug_line    0x00010a63     0x1679 ../lab2_cruisecontrol_bsp//libucosii_bsp.a(os_core.o)
 .debug_line    0x000120dc      0x3ee ../lab2_cruisecontrol_bsp//libucosii_bsp.a(os_dbg.o)
 .debug_line    0x000124ca     0x11f5 ../lab2_cruisecontrol_bsp//libucosii_bsp.a(os_flag.o)
 .debug_line    0x000136bf      0xac4 ../lab2_cruisecontrol_bsp//libucosii_bsp.a(os_mbox.o)
 .debug_line    0x00014183      0x798 ../lab2_cruisecontrol_bsp//libucosii_bsp.a(os_mem.o)
 .debug_line    0x0001491b      0xe79 ../lab2_cruisecontrol_bsp//libucosii_bsp.a(os_q.o)
 .debug_line    0x00015794      0xa31 ../lab2_cruisecontrol_bsp//libucosii_bsp.a(os_sem.o)
 .debug_line    0x000161c5     0x113a ../lab2_cruisecontrol_bsp//libucosii_bsp.a(os_task.o)
 .debug_line    0x000172ff      0x53d ../lab2_cruisecontrol_bsp//libucosii_bsp.a(os_time.o)
 .debug_line    0x0001783c      0xd38 ../lab2_cruisecontrol_bsp//libucosii_bsp.a(os_tmr.o)
 .debug_line    0x00018574      0x33b ../lab2_cruisecontrol_bsp//libucosii_bsp.a(alt_sys_init.o)
 .debug_line    0x000188af      0x327 ../lab2_cruisecontrol_bsp//libucosii_bsp.a(altera_avalon_jtag_uart_fd.o)
 .debug_line    0x00018bd6      0x5a6 ../lab2_cruisecontrol_bsp//libucosii_bsp.a(altera_avalon_jtag_uart_init.o)
 .debug_line    0x0001917c      0x364 ../lab2_cruisecontrol_bsp//libucosii_bsp.a(altera_avalon_jtag_uart_ioctl.o)
 .debug_line    0x000194e0      0x4a2 ../lab2_cruisecontrol_bsp//libucosii_bsp.a(altera_avalon_jtag_uart_read.o)
 .debug_line    0x00019982      0x4b0 ../lab2_cruisecontrol_bsp//libucosii_bsp.a(altera_avalon_jtag_uart_write.o)
 .debug_line    0x00019e32      0x2c1 ../lab2_cruisecontrol_bsp//libucosii_bsp.a(altera_avalon_timer_sc.o)
 .debug_line    0x0001a0f3      0x4d3 ../lab2_cruisecontrol_bsp//libucosii_bsp.a(altera_up_avalon_character_lcd.o)
 .debug_line    0x0001a5c6      0x1c3 ../lab2_cruisecontrol_bsp//libucosii_bsp.a(alt_dcache_flush_all.o)
 .debug_line    0x0001a789      0x268 ../lab2_cruisecontrol_bsp//libucosii_bsp.a(alt_dev_llist_insert.o)
 .debug_line    0x0001a9f1       0x83 ../lab2_cruisecontrol_bsp//libucosii_bsp.a(alt_do_ctors.o)
 .debug_line    0x0001aa74       0x83 ../lab2_cruisecontrol_bsp//libucosii_bsp.a(alt_do_dtors.o)
 .debug_line    0x0001aaf7      0x2e8 ../lab2_cruisecontrol_bsp//libucosii_bsp.a(alt_find_dev.o)
 .debug_line    0x0001addf      0x1c3 ../lab2_cruisecontrol_bsp//libucosii_bsp.a(alt_icache_flush_all.o)
 .debug_line    0x0001afa2      0x2d6 ../lab2_cruisecontrol_bsp//libucosii_bsp.a(alt_iic.o)
 .debug_line    0x0001b278      0x257 ../lab2_cruisecontrol_bsp//libucosii_bsp.a(alt_iic_isr_register.o)
 .debug_line    0x0001b4cf      0x331 ../lab2_cruisecontrol_bsp//libucosii_bsp.a(alt_io_redirect.o)
 .debug_line    0x0001b800       0x6b ../lab2_cruisecontrol_bsp//libucosii_bsp.a(alt_irq_entry.o)
 .debug_line    0x0001b86b      0x2d2 ../lab2_cruisecontrol_bsp//libucosii_bsp.a(alt_irq_handler.o)
 .debug_line    0x0001bb3d       0x72 ../lab2_cruisecontrol_bsp//libucosii_bsp.a(alt_irq_vars.o)
 .debug_line    0x0001bbaf      0x36d ../lab2_cruisecontrol_bsp//libucosii_bsp.a(alt_open.o)
 .debug_line    0x0001bf1c      0x1dc ../lab2_cruisecontrol_bsp//libucosii_bsp.a(altera_nios2_qsys_irq.o)
 .debug_line    0x0001c0f8       0x86 ../lab2_cruisecontrol_bsp//libucosii_bsp.a(os_cpu_a.o)
 .debug_line    0x0001c17e      0x35e ../lab2_cruisecontrol_bsp//libucosii_bsp.a(os_cpu_c.o)
 .debug_line    0x0001c4dc       0xab ../lab2_cruisecontrol_bsp//libucosii_bsp.a(alt_exception_entry.o)
 .debug_line    0x0001c587      0x2f9 ../lab2_cruisecontrol_bsp//libucosii_bsp.a(alt_find_file.o)
 .debug_line    0x0001c880      0x329 ../lab2_cruisecontrol_bsp//libucosii_bsp.a(alt_get_fd.o)
 .debug_line    0x0001cba9      0x203 /opt/altera/13.0sp1/nios2eds/bin/gnu/H-i686-pc-linux-gnu/bin/../lib/gcc/nios2-elf/4.1.2/../../../../nios2-elf/lib/mno-hw-mul/libc.a(lib_a-atexit.o)
 .debug_line    0x0001cdac      0x23b /opt/altera/13.0sp1/nios2eds/bin/gnu/H-i686-pc-linux-gnu/bin/../lib/gcc/nios2-elf/4.1.2/../../../../nios2-elf/lib/mno-hw-mul/libc.a(lib_a-exit.o)
 .debug_line    0x0001cfe7      0x2a2 /opt/altera/13.0sp1/nios2eds/bin/gnu/H-i686-pc-linux-gnu/bin/../lib/gcc/nios2-elf/4.1.2/../../../../nios2-elf/lib/mno-hw-mul/libc.a(lib_a-memcmp.o)
 .debug_line    0x0001d289      0x316 /opt/altera/13.0sp1/nios2eds/bin/gnu/H-i686-pc-linux-gnu/bin/../lib/gcc/nios2-elf/4.1.2/../../../../nios2-elf/lib/mno-hw-mul/libc.a(lib_a-__atexit.o)
 .debug_line    0x0001d59f      0x36a /opt/altera/13.0sp1/nios2eds/bin/gnu/H-i686-pc-linux-gnu/bin/../lib/gcc/nios2-elf/4.1.2/../../../../nios2-elf/lib/mno-hw-mul/libc.a(lib_a-__call_atexit.o)
 .debug_line    0x0001d909      0x176 /opt/altera/13.0sp1/nios2eds/bin/gnu/H-i686-pc-linux-gnu/bin/../lib/gcc/nios2-elf/4.1.2/mno-hw-mul/libgcc.a(_fixunsdfsi.o)
 .debug_line    0x0001da7f      0x284 ../lab2_cruisecontrol_bsp//libucosii_bsp.a(alt_exit.o)

.debug_frame    0x00000000     0x2b34
 *(.debug_frame)
 .debug_frame   0x00000000      0x1dc obj/default/cruise_skeleton.o
 .debug_frame   0x000001dc       0x28 /opt/altera/13.0sp1/nios2eds/bin/gnu/H-i686-pc-linux-gnu/bin/../lib/gcc/nios2-elf/4.1.2/mno-hw-mul/libgcc.a(_si_to_sf.o)
 .debug_frame   0x00000204       0x28 /opt/altera/13.0sp1/nios2eds/bin/gnu/H-i686-pc-linux-gnu/bin/../lib/gcc/nios2-elf/4.1.2/mno-hw-mul/libgcc.a(_sf_to_df.o)
 .debug_frame   0x0000022c       0x70 /opt/altera/13.0sp1/nios2eds/bin/gnu/H-i686-pc-linux-gnu/bin/../lib/gcc/nios2-elf/4.1.2/mno-hw-mul/libgcc.a(_addsub_df.o)
 .debug_frame   0x0000029c       0x30 /opt/altera/13.0sp1/nios2eds/bin/gnu/H-i686-pc-linux-gnu/bin/../lib/gcc/nios2-elf/4.1.2/mno-hw-mul/libgcc.a(_div_df.o)
 .debug_frame   0x000002cc       0x30 /opt/altera/13.0sp1/nios2eds/bin/gnu/H-i686-pc-linux-gnu/bin/../lib/gcc/nios2-elf/4.1.2/mno-hw-mul/libgcc.a(_si_to_df.o)
 .debug_frame   0x000002fc       0x28 /opt/altera/13.0sp1/nios2eds/bin/gnu/H-i686-pc-linux-gnu/bin/../lib/gcc/nios2-elf/4.1.2/mno-hw-mul/libgcc.a(_df_to_si.o)
 .debug_frame   0x00000324       0x28 /opt/altera/13.0sp1/nios2eds/bin/gnu/H-i686-pc-linux-gnu/bin/../lib/gcc/nios2-elf/4.1.2/mno-hw-mul/libgcc.a(_make_df.o)
 .debug_frame   0x0000034c       0x70 /opt/altera/13.0sp1/nios2eds/bin/gnu/H-i686-pc-linux-gnu/bin/../lib/gcc/nios2-elf/4.1.2/mno-hw-mul/libgcc.a(lib2-divmod.o)
 .debug_frame   0x000003bc       0x20 /opt/altera/13.0sp1/nios2eds/bin/gnu/H-i686-pc-linux-gnu/bin/../lib/gcc/nios2-elf/4.1.2/mno-hw-mul/libgcc.a(lib2-mul.o)
 .debug_frame   0x000003dc       0x20 /opt/altera/13.0sp1/nios2eds/bin/gnu/H-i686-pc-linux-gnu/bin/../lib/gcc/nios2-elf/4.1.2/mno-hw-mul/libgcc.a(_clzsi2.o)
 .debug_frame   0x000003fc       0x20 /opt/altera/13.0sp1/nios2eds/bin/gnu/H-i686-pc-linux-gnu/bin/../lib/gcc/nios2-elf/4.1.2/mno-hw-mul/libgcc.a(_pack_sf.o)
 .debug_frame   0x0000041c       0x20 /opt/altera/13.0sp1/nios2eds/bin/gnu/H-i686-pc-linux-gnu/bin/../lib/gcc/nios2-elf/4.1.2/mno-hw-mul/libgcc.a(_unpack_sf.o)
 .debug_frame   0x0000043c       0x2c /opt/altera/13.0sp1/nios2eds/bin/gnu/H-i686-pc-linux-gnu/bin/../lib/gcc/nios2-elf/4.1.2/mno-hw-mul/libgcc.a(_pack_df.o)
 .debug_frame   0x00000468       0x20 /opt/altera/13.0sp1/nios2eds/bin/gnu/H-i686-pc-linux-gnu/bin/../lib/gcc/nios2-elf/4.1.2/mno-hw-mul/libgcc.a(_unpack_df.o)
 .debug_frame   0x00000488       0x40 /opt/altera/13.0sp1/nios2eds/bin/gnu/H-i686-pc-linux-gnu/bin/../lib/gcc/nios2-elf/4.1.2/../../../../nios2-elf/lib/mno-hw-mul/libc.a(lib_a-printf.o)
 .debug_frame   0x000004c8       0x3c /opt/altera/13.0sp1/nios2eds/bin/gnu/H-i686-pc-linux-gnu/bin/../lib/gcc/nios2-elf/4.1.2/../../../../nios2-elf/lib/mno-hw-mul/libc.a(lib_a-puts.o)
 .debug_frame   0x00000504       0x20 /opt/altera/13.0sp1/nios2eds/bin/gnu/H-i686-pc-linux-gnu/bin/../lib/gcc/nios2-elf/4.1.2/../../../../nios2-elf/lib/mno-hw-mul/libc.a(lib_a-strlen.o)
 .debug_frame   0x00000524       0x64 /opt/altera/13.0sp1/nios2eds/bin/gnu/H-i686-pc-linux-gnu/bin/../lib/gcc/nios2-elf/4.1.2/../../../../nios2-elf/lib/mno-hw-mul/libc.a(lib_a-vfprintf.o)
 .debug_frame   0x00000588       0x2c /opt/altera/13.0sp1/nios2eds/bin/gnu/H-i686-pc-linux-gnu/bin/../lib/gcc/nios2-elf/4.1.2/../../../../nios2-elf/lib/mno-hw-mul/libc.a(lib_a-wsetup.o)
 .debug_frame   0x000005b4       0x64 /opt/altera/13.0sp1/nios2eds/bin/gnu/H-i686-pc-linux-gnu/bin/../lib/gcc/nios2-elf/4.1.2/../../../../nios2-elf/lib/mno-hw-mul/libc.a(lib_a-dtoa.o)
 .debug_frame   0x00000618       0x40 /opt/altera/13.0sp1/nios2eds/bin/gnu/H-i686-pc-linux-gnu/bin/../lib/gcc/nios2-elf/4.1.2/../../../../nios2-elf/lib/mno-hw-mul/libc.a(lib_a-fflush.o)
 .debug_frame   0x00000658      0x118 /opt/altera/13.0sp1/nios2eds/bin/gnu/H-i686-pc-linux-gnu/bin/../lib/gcc/nios2-elf/4.1.2/../../../../nios2-elf/lib/mno-hw-mul/libc.a(lib_a-findfp.o)
 .debug_frame   0x00000770       0x4c /opt/altera/13.0sp1/nios2eds/bin/gnu/H-i686-pc-linux-gnu/bin/../lib/gcc/nios2-elf/4.1.2/../../../../nios2-elf/lib/mno-hw-mul/libc.a(lib_a-freer.o)
 .debug_frame   0x000007bc       0x38 /opt/altera/13.0sp1/nios2eds/bin/gnu/H-i686-pc-linux-gnu/bin/../lib/gcc/nios2-elf/4.1.2/../../../../nios2-elf/lib/mno-hw-mul/libc.a(lib_a-fvwrite.o)
 .debug_frame   0x000007f4       0x60 /opt/altera/13.0sp1/nios2eds/bin/gnu/H-i686-pc-linux-gnu/bin/../lib/gcc/nios2-elf/4.1.2/../../../../nios2-elf/lib/mno-hw-mul/libc.a(lib_a-fwalk.o)
 .debug_frame   0x00000854       0x70 /opt/altera/13.0sp1/nios2eds/bin/gnu/H-i686-pc-linux-gnu/bin/../lib/gcc/nios2-elf/4.1.2/../../../../nios2-elf/lib/mno-hw-mul/libc.a(lib_a-locale.o)
 .debug_frame   0x000008c4       0x2c /opt/altera/13.0sp1/nios2eds/bin/gnu/H-i686-pc-linux-gnu/bin/../lib/gcc/nios2-elf/4.1.2/../../../../nios2-elf/lib/mno-hw-mul/libc.a(lib_a-makebuf.o)
 .debug_frame   0x000008f0       0x38 /opt/altera/13.0sp1/nios2eds/bin/gnu/H-i686-pc-linux-gnu/bin/../lib/gcc/nios2-elf/4.1.2/../../../../nios2-elf/lib/mno-hw-mul/libc.a(lib_a-mallocr.o)
 .debug_frame   0x00000928       0x20 /opt/altera/13.0sp1/nios2eds/bin/gnu/H-i686-pc-linux-gnu/bin/../lib/gcc/nios2-elf/4.1.2/../../../../nios2-elf/lib/mno-hw-mul/libc.a(lib_a-memchr.o)
 .debug_frame   0x00000948       0x20 /opt/altera/13.0sp1/nios2eds/bin/gnu/H-i686-pc-linux-gnu/bin/../lib/gcc/nios2-elf/4.1.2/../../../../nios2-elf/lib/mno-hw-mul/libc.a(lib_a-memcpy.o)
 .debug_frame   0x00000968       0x20 /opt/altera/13.0sp1/nios2eds/bin/gnu/H-i686-pc-linux-gnu/bin/../lib/gcc/nios2-elf/4.1.2/../../../../nios2-elf/lib/mno-hw-mul/libc.a(lib_a-memmove.o)
 .debug_frame   0x00000988       0x20 /opt/altera/13.0sp1/nios2eds/bin/gnu/H-i686-pc-linux-gnu/bin/../lib/gcc/nios2-elf/4.1.2/../../../../nios2-elf/lib/mno-hw-mul/libc.a(lib_a-memset.o)
 .debug_frame   0x000009a8      0x228 /opt/altera/13.0sp1/nios2eds/bin/gnu/H-i686-pc-linux-gnu/bin/../lib/gcc/nios2-elf/4.1.2/../../../../nios2-elf/lib/mno-hw-mul/libc.a(lib_a-mprec.o)
 .debug_frame   0x00000bd0       0x38 /opt/altera/13.0sp1/nios2eds/bin/gnu/H-i686-pc-linux-gnu/bin/../lib/gcc/nios2-elf/4.1.2/../../../../nios2-elf/lib/mno-hw-mul/libc.a(lib_a-reallocr.o)
 .debug_frame   0x00000c08       0x20 /opt/altera/13.0sp1/nios2eds/bin/gnu/H-i686-pc-linux-gnu/bin/../lib/gcc/nios2-elf/4.1.2/../../../../nios2-elf/lib/mno-hw-mul/libc.a(lib_a-s_isinfd.o)
 .debug_frame   0x00000c28       0x20 /opt/altera/13.0sp1/nios2eds/bin/gnu/H-i686-pc-linux-gnu/bin/../lib/gcc/nios2-elf/4.1.2/../../../../nios2-elf/lib/mno-hw-mul/libc.a(lib_a-s_isnand.o)
 .debug_frame   0x00000c48       0x2c /opt/altera/13.0sp1/nios2eds/bin/gnu/H-i686-pc-linux-gnu/bin/../lib/gcc/nios2-elf/4.1.2/../../../../nios2-elf/lib/mno-hw-mul/libc.a(lib_a-sbrkr.o)
 .debug_frame   0x00000c74       0x78 /opt/altera/13.0sp1/nios2eds/bin/gnu/H-i686-pc-linux-gnu/bin/../lib/gcc/nios2-elf/4.1.2/../../../../nios2-elf/lib/mno-hw-mul/libc.a(lib_a-stdio.o)
 .debug_frame   0x00000cec       0x20 /opt/altera/13.0sp1/nios2eds/bin/gnu/H-i686-pc-linux-gnu/bin/../lib/gcc/nios2-elf/4.1.2/../../../../nios2-elf/lib/mno-hw-mul/libc.a(lib_a-strcmp.o)
 .debug_frame   0x00000d0c       0x2c /opt/altera/13.0sp1/nios2eds/bin/gnu/H-i686-pc-linux-gnu/bin/../lib/gcc/nios2-elf/4.1.2/../../../../nios2-elf/lib/mno-hw-mul/libc.a(lib_a-writer.o)
 .debug_frame   0x00000d38       0x2c /opt/altera/13.0sp1/nios2eds/bin/gnu/H-i686-pc-linux-gnu/bin/../lib/gcc/nios2-elf/4.1.2/../../../../nios2-elf/lib/mno-hw-mul/libc.a(lib_a-callocr.o)
 .debug_frame   0x00000d64       0x2c /opt/altera/13.0sp1/nios2eds/bin/gnu/H-i686-pc-linux-gnu/bin/../lib/gcc/nios2-elf/4.1.2/../../../../nios2-elf/lib/mno-hw-mul/libc.a(lib_a-closer.o)
 .debug_frame   0x00000d90       0x3c /opt/altera/13.0sp1/nios2eds/bin/gnu/H-i686-pc-linux-gnu/bin/../lib/gcc/nios2-elf/4.1.2/../../../../nios2-elf/lib/mno-hw-mul/libc.a(lib_a-fclose.o)
 .debug_frame   0x00000dcc       0x2c /opt/altera/13.0sp1/nios2eds/bin/gnu/H-i686-pc-linux-gnu/bin/../lib/gcc/nios2-elf/4.1.2/../../../../nios2-elf/lib/mno-hw-mul/libc.a(lib_a-fstatr.o)
 .debug_frame   0x00000df8       0x2c /opt/altera/13.0sp1/nios2eds/bin/gnu/H-i686-pc-linux-gnu/bin/../lib/gcc/nios2-elf/4.1.2/../../../../nios2-elf/lib/mno-hw-mul/libc.a(lib_a-isattyr.o)
 .debug_frame   0x00000e24       0x2c /opt/altera/13.0sp1/nios2eds/bin/gnu/H-i686-pc-linux-gnu/bin/../lib/gcc/nios2-elf/4.1.2/../../../../nios2-elf/lib/mno-hw-mul/libc.a(lib_a-lseekr.o)
 .debug_frame   0x00000e50       0x2c /opt/altera/13.0sp1/nios2eds/bin/gnu/H-i686-pc-linux-gnu/bin/../lib/gcc/nios2-elf/4.1.2/../../../../nios2-elf/lib/mno-hw-mul/libc.a(lib_a-readr.o)
 .debug_frame   0x00000e7c       0x38 /opt/altera/13.0sp1/nios2eds/bin/gnu/H-i686-pc-linux-gnu/bin/../lib/gcc/nios2-elf/4.1.2/mno-hw-mul/libgcc.a(_udivdi3.o)
 .debug_frame   0x00000eb4       0x38 /opt/altera/13.0sp1/nios2eds/bin/gnu/H-i686-pc-linux-gnu/bin/../lib/gcc/nios2-elf/4.1.2/mno-hw-mul/libgcc.a(_umoddi3.o)
 .debug_frame   0x00000eec       0x3c /opt/altera/13.0sp1/nios2eds/bin/gnu/H-i686-pc-linux-gnu/bin/../lib/gcc/nios2-elf/4.1.2/mno-hw-mul/libgcc.a(_mul_df.o)
 .debug_frame   0x00000f28       0x2c /opt/altera/13.0sp1/nios2eds/bin/gnu/H-i686-pc-linux-gnu/bin/../lib/gcc/nios2-elf/4.1.2/mno-hw-mul/libgcc.a(_eq_df.o)
 .debug_frame   0x00000f54       0x2c /opt/altera/13.0sp1/nios2eds/bin/gnu/H-i686-pc-linux-gnu/bin/../lib/gcc/nios2-elf/4.1.2/mno-hw-mul/libgcc.a(_ne_df.o)
 .debug_frame   0x00000f80       0x2c /opt/altera/13.0sp1/nios2eds/bin/gnu/H-i686-pc-linux-gnu/bin/../lib/gcc/nios2-elf/4.1.2/mno-hw-mul/libgcc.a(_gt_df.o)
 .debug_frame   0x00000fac       0x2c /opt/altera/13.0sp1/nios2eds/bin/gnu/H-i686-pc-linux-gnu/bin/../lib/gcc/nios2-elf/4.1.2/mno-hw-mul/libgcc.a(_ge_df.o)
 .debug_frame   0x00000fd8       0x2c /opt/altera/13.0sp1/nios2eds/bin/gnu/H-i686-pc-linux-gnu/bin/../lib/gcc/nios2-elf/4.1.2/mno-hw-mul/libgcc.a(_lt_df.o)
 .debug_frame   0x00001004       0x38 /opt/altera/13.0sp1/nios2eds/bin/gnu/H-i686-pc-linux-gnu/bin/../lib/gcc/nios2-elf/4.1.2/mno-hw-mul/libgcc.a(_usi_to_df.o)
 .debug_frame   0x0000103c       0x40 /opt/altera/13.0sp1/nios2eds/bin/gnu/H-i686-pc-linux-gnu/bin/../lib/gcc/nios2-elf/4.1.2/mno-hw-mul/libgcc.a(_muldi3.o)
 .debug_frame   0x0000107c       0x20 /opt/altera/13.0sp1/nios2eds/bin/gnu/H-i686-pc-linux-gnu/bin/../lib/gcc/nios2-elf/4.1.2/mno-hw-mul/libgcc.a(_fpcmp_parts_df.o)
 .debug_frame   0x0000109c       0x2c ../lab2_cruisecontrol_bsp//libucosii_bsp.a(alt_alarm_start.o)
 .debug_frame   0x000010c8       0x48 ../lab2_cruisecontrol_bsp//libucosii_bsp.a(alt_close.o)
 .debug_frame   0x00001110       0x2c ../lab2_cruisecontrol_bsp//libucosii_bsp.a(alt_dev.o)
 .debug_frame   0x0000113c       0x48 ../lab2_cruisecontrol_bsp//libucosii_bsp.a(alt_fstat.o)
 .debug_frame   0x00001184       0x48 ../lab2_cruisecontrol_bsp//libucosii_bsp.a(alt_isatty.o)
 .debug_frame   0x000011cc       0x48 ../lab2_cruisecontrol_bsp//libucosii_bsp.a(alt_load.o)
 .debug_frame   0x00001214       0x48 ../lab2_cruisecontrol_bsp//libucosii_bsp.a(alt_lseek.o)
 .debug_frame   0x0000125c       0x2c ../lab2_cruisecontrol_bsp//libucosii_bsp.a(alt_main.o)
 .debug_frame   0x00001288       0x48 ../lab2_cruisecontrol_bsp//libucosii_bsp.a(alt_read.o)
 .debug_frame   0x000012d0       0x30 ../lab2_cruisecontrol_bsp//libucosii_bsp.a(alt_release_fd.o)
 .debug_frame   0x00001300       0x2c ../lab2_cruisecontrol_bsp//libucosii_bsp.a(alt_sbrk.o)
 .debug_frame   0x0000132c       0x48 ../lab2_cruisecontrol_bsp//libucosii_bsp.a(alt_tick.o)
 .debug_frame   0x00001374       0x48 ../lab2_cruisecontrol_bsp//libucosii_bsp.a(alt_write.o)
 .debug_frame   0x000013bc       0x4c ../lab2_cruisecontrol_bsp//libucosii_bsp.a(alt_env_lock.o)
 .debug_frame   0x00001408       0x4c ../lab2_cruisecontrol_bsp//libucosii_bsp.a(alt_malloc_lock.o)
 .debug_frame   0x00001454      0x3e4 ../lab2_cruisecontrol_bsp//libucosii_bsp.a(os_core.o)
 .debug_frame   0x00001838       0x2c ../lab2_cruisecontrol_bsp//libucosii_bsp.a(os_dbg.o)
 .debug_frame   0x00001864      0x180 ../lab2_cruisecontrol_bsp//libucosii_bsp.a(os_flag.o)
 .debug_frame   0x000019e4       0xf0 ../lab2_cruisecontrol_bsp//libucosii_bsp.a(os_mbox.o)
 .debug_frame   0x00001ad4       0xd4 ../lab2_cruisecontrol_bsp//libucosii_bsp.a(os_mem.o)
 .debug_frame   0x00001ba8      0x144 ../lab2_cruisecontrol_bsp//libucosii_bsp.a(os_q.o)
 .debug_frame   0x00001cec       0xf0 ../lab2_cruisecontrol_bsp//libucosii_bsp.a(os_sem.o)
 .debug_frame   0x00001ddc      0x160 ../lab2_cruisecontrol_bsp//libucosii_bsp.a(os_task.o)
 .debug_frame   0x00001f3c       0xa0 ../lab2_cruisecontrol_bsp//libucosii_bsp.a(os_time.o)
 .debug_frame   0x00001fdc      0x1ec ../lab2_cruisecontrol_bsp//libucosii_bsp.a(os_tmr.o)
 .debug_frame   0x000021c8       0x64 ../lab2_cruisecontrol_bsp//libucosii_bsp.a(alt_sys_init.o)
 .debug_frame   0x0000222c       0x80 ../lab2_cruisecontrol_bsp//libucosii_bsp.a(altera_avalon_jtag_uart_fd.o)
 .debug_frame   0x000022ac       0x80 ../lab2_cruisecontrol_bsp//libucosii_bsp.a(altera_avalon_jtag_uart_init.o)
 .debug_frame   0x0000232c       0x2c ../lab2_cruisecontrol_bsp//libucosii_bsp.a(altera_avalon_jtag_uart_ioctl.o)
 .debug_frame   0x00002358       0x2c ../lab2_cruisecontrol_bsp//libucosii_bsp.a(altera_avalon_jtag_uart_read.o)
 .debug_frame   0x00002384       0x2c ../lab2_cruisecontrol_bsp//libucosii_bsp.a(altera_avalon_jtag_uart_write.o)
 .debug_frame   0x000023b0       0x48 ../lab2_cruisecontrol_bsp//libucosii_bsp.a(altera_avalon_timer_sc.o)
 .debug_frame   0x000023f8      0x17c ../lab2_cruisecontrol_bsp//libucosii_bsp.a(altera_up_avalon_character_lcd.o)
 .debug_frame   0x00002574       0x2c ../lab2_cruisecontrol_bsp//libucosii_bsp.a(alt_dcache_flush_all.o)
 .debug_frame   0x000025a0       0x48 ../lab2_cruisecontrol_bsp//libucosii_bsp.a(alt_dev_llist_insert.o)
 .debug_frame   0x000025e8       0x2c ../lab2_cruisecontrol_bsp//libucosii_bsp.a(alt_do_ctors.o)
 .debug_frame   0x00002614       0x2c ../lab2_cruisecontrol_bsp//libucosii_bsp.a(alt_do_dtors.o)
 .debug_frame   0x00002640       0x2c ../lab2_cruisecontrol_bsp//libucosii_bsp.a(alt_find_dev.o)
 .debug_frame   0x0000266c       0x2c ../lab2_cruisecontrol_bsp//libucosii_bsp.a(alt_icache_flush_all.o)
 .debug_frame   0x00002698       0x80 ../lab2_cruisecontrol_bsp//libucosii_bsp.a(alt_iic.o)
 .debug_frame   0x00002718       0x2c ../lab2_cruisecontrol_bsp//libucosii_bsp.a(alt_iic_isr_register.o)
 .debug_frame   0x00002744       0x4c ../lab2_cruisecontrol_bsp//libucosii_bsp.a(alt_io_redirect.o)
 .debug_frame   0x00002790       0x2c ../lab2_cruisecontrol_bsp//libucosii_bsp.a(alt_irq_handler.o)
 .debug_frame   0x000027bc       0x68 ../lab2_cruisecontrol_bsp//libucosii_bsp.a(alt_open.o)
 .debug_frame   0x00002824       0x2c ../lab2_cruisecontrol_bsp//libucosii_bsp.a(altera_nios2_qsys_irq.o)
 .debug_frame   0x00002850      0x128 ../lab2_cruisecontrol_bsp//libucosii_bsp.a(os_cpu_c.o)
 .debug_frame   0x00002978       0x2c ../lab2_cruisecontrol_bsp//libucosii_bsp.a(alt_find_file.o)
 .debug_frame   0x000029a4       0x30 ../lab2_cruisecontrol_bsp//libucosii_bsp.a(alt_get_fd.o)
 .debug_frame   0x000029d4       0x20 /opt/altera/13.0sp1/nios2eds/bin/gnu/H-i686-pc-linux-gnu/bin/../lib/gcc/nios2-elf/4.1.2/../../../../nios2-elf/lib/mno-hw-mul/libc.a(lib_a-atexit.o)
 .debug_frame   0x000029f4       0x28 /opt/altera/13.0sp1/nios2eds/bin/gnu/H-i686-pc-linux-gnu/bin/../lib/gcc/nios2-elf/4.1.2/../../../../nios2-elf/lib/mno-hw-mul/libc.a(lib_a-exit.o)
 .debug_frame   0x00002a1c       0x20 /opt/altera/13.0sp1/nios2eds/bin/gnu/H-i686-pc-linux-gnu/bin/../lib/gcc/nios2-elf/4.1.2/../../../../nios2-elf/lib/mno-hw-mul/libc.a(lib_a-memcmp.o)
 .debug_frame   0x00002a3c       0x34 /opt/altera/13.0sp1/nios2eds/bin/gnu/H-i686-pc-linux-gnu/bin/../lib/gcc/nios2-elf/4.1.2/../../../../nios2-elf/lib/mno-hw-mul/libc.a(lib_a-__atexit.o)
 .debug_frame   0x00002a70       0x4c /opt/altera/13.0sp1/nios2eds/bin/gnu/H-i686-pc-linux-gnu/bin/../lib/gcc/nios2-elf/4.1.2/../../../../nios2-elf/lib/mno-hw-mul/libc.a(lib_a-__call_atexit.o)
 .debug_frame   0x00002abc       0x30 /opt/altera/13.0sp1/nios2eds/bin/gnu/H-i686-pc-linux-gnu/bin/../lib/gcc/nios2-elf/4.1.2/mno-hw-mul/libgcc.a(_fixunsdfsi.o)
 .debug_frame   0x00002aec       0x48 ../lab2_cruisecontrol_bsp//libucosii_bsp.a(alt_exit.o)

.debug_str      0x00000000     0x2610
 *(.debug_str)
 .debug_str     0x00000000       0x6e obj/default/cruise_skeleton.o
 .debug_str     0x0000006e      0x183 /opt/altera/13.0sp1/nios2eds/bin/gnu/H-i686-pc-linux-gnu/bin/../lib/gcc/nios2-elf/4.1.2/mno-hw-mul/libgcc.a(_si_to_sf.o)
                                0x1e3 (size before relaxing)
 .debug_str     0x000001f1       0x2e /opt/altera/13.0sp1/nios2eds/bin/gnu/H-i686-pc-linux-gnu/bin/../lib/gcc/nios2-elf/4.1.2/mno-hw-mul/libgcc.a(_sf_to_df.o)
                                0x1f7 (size before relaxing)
 .debug_str     0x0000021f       0xa3 /opt/altera/13.0sp1/nios2eds/bin/gnu/H-i686-pc-linux-gnu/bin/../lib/gcc/nios2-elf/4.1.2/mno-hw-mul/libgcc.a(_addsub_df.o)
                                0x274 (size before relaxing)
 .debug_str     0x000002c2       0x35 /opt/altera/13.0sp1/nios2eds/bin/gnu/H-i686-pc-linux-gnu/bin/../lib/gcc/nios2-elf/4.1.2/mno-hw-mul/libgcc.a(_div_df.o)
                                0x236 (size before relaxing)
 .debug_str     0x000002f7        0xc /opt/altera/13.0sp1/nios2eds/bin/gnu/H-i686-pc-linux-gnu/bin/../lib/gcc/nios2-elf/4.1.2/mno-hw-mul/libgcc.a(_si_to_df.o)
                                0x1e3 (size before relaxing)
 .debug_str     0x00000303        0xa /opt/altera/13.0sp1/nios2eds/bin/gnu/H-i686-pc-linux-gnu/bin/../lib/gcc/nios2-elf/4.1.2/mno-hw-mul/libgcc.a(_df_to_si.o)
                                0x20c (size before relaxing)
 .debug_str     0x0000030d        0xa /opt/altera/13.0sp1/nios2eds/bin/gnu/H-i686-pc-linux-gnu/bin/../lib/gcc/nios2-elf/4.1.2/mno-hw-mul/libgcc.a(_make_df.o)
                                0x1be (size before relaxing)
 .debug_str     0x00000000      0x1a8 /opt/altera/13.0sp1/nios2eds/bin/gnu/H-i686-pc-linux-gnu/bin/../lib/gcc/nios2-elf/4.1.2/mno-hw-mul/libgcc.a(_thenan_df.o)
 .debug_str     0x00000317       0xa1 /opt/altera/13.0sp1/nios2eds/bin/gnu/H-i686-pc-linux-gnu/bin/../lib/gcc/nios2-elf/4.1.2/mno-hw-mul/libgcc.a(lib2-divmod.o)
                                0x1b9 (size before relaxing)
 .debug_str     0x000003b8       0x37 /opt/altera/13.0sp1/nios2eds/bin/gnu/H-i686-pc-linux-gnu/bin/../lib/gcc/nios2-elf/4.1.2/mno-hw-mul/libgcc.a(lib2-mul.o)
                                0x17a (size before relaxing)
 .debug_str     0x000003ef       0x40 /opt/altera/13.0sp1/nios2eds/bin/gnu/H-i686-pc-linux-gnu/bin/../lib/gcc/nios2-elf/4.1.2/mno-hw-mul/libgcc.a(_clzsi2.o)
                                0x183 (size before relaxing)
 .debug_str     0x0000042f       0x10 /opt/altera/13.0sp1/nios2eds/bin/gnu/H-i686-pc-linux-gnu/bin/../lib/gcc/nios2-elf/4.1.2/mno-hw-mul/libgcc.a(_pack_sf.o)
                                0x205 (size before relaxing)
 .debug_str     0x0000043f        0xb /opt/altera/13.0sp1/nios2eds/bin/gnu/H-i686-pc-linux-gnu/bin/../lib/gcc/nios2-elf/4.1.2/mno-hw-mul/libgcc.a(_unpack_sf.o)
                                0x1e7 (size before relaxing)
 .debug_str     0x0000044a        0x9 /opt/altera/13.0sp1/nios2eds/bin/gnu/H-i686-pc-linux-gnu/bin/../lib/gcc/nios2-elf/4.1.2/mno-hw-mul/libgcc.a(_pack_df.o)
                                0x20b (size before relaxing)
 .debug_str     0x00000453        0xb /opt/altera/13.0sp1/nios2eds/bin/gnu/H-i686-pc-linux-gnu/bin/../lib/gcc/nios2-elf/4.1.2/mno-hw-mul/libgcc.a(_unpack_df.o)
                                0x1ed (size before relaxing)
 .debug_str     0x00000000      0x166 /opt/altera/13.0sp1/nios2eds/bin/gnu/H-i686-pc-linux-gnu/bin/../lib/gcc/nios2-elf/4.1.2/mno-hw-mul/libgcc.a(_clz.o)
 .debug_str     0x0000045e      0x452 /opt/altera/13.0sp1/nios2eds/bin/gnu/H-i686-pc-linux-gnu/bin/../lib/gcc/nios2-elf/4.1.2/../../../../nios2-elf/lib/mno-hw-mul/libc.a(lib_a-printf.o)
                                0x536 (size before relaxing)
 .debug_str     0x000008b0       0x84 /opt/altera/13.0sp1/nios2eds/bin/gnu/H-i686-pc-linux-gnu/bin/../lib/gcc/nios2-elf/4.1.2/../../../../nios2-elf/lib/mno-hw-mul/libc.a(lib_a-puts.o)
                                0x55c (size before relaxing)
 .debug_str     0x00000934       0xee /opt/altera/13.0sp1/nios2eds/bin/gnu/H-i686-pc-linux-gnu/bin/../lib/gcc/nios2-elf/4.1.2/../../../../nios2-elf/lib/mno-hw-mul/libc.a(lib_a-strlen.o)
                                0x190 (size before relaxing)
 .debug_str     0x00000a22      0x188 /opt/altera/13.0sp1/nios2eds/bin/gnu/H-i686-pc-linux-gnu/bin/../lib/gcc/nios2-elf/4.1.2/../../../../nios2-elf/lib/mno-hw-mul/libc.a(lib_a-vfprintf.o)
                                0x70b (size before relaxing)
 .debug_str     0x00000baa       0x49 /opt/altera/13.0sp1/nios2eds/bin/gnu/H-i686-pc-linux-gnu/bin/../lib/gcc/nios2-elf/4.1.2/../../../../nios2-elf/lib/mno-hw-mul/libc.a(lib_a-wsetup.o)
                                0x51f (size before relaxing)
 .debug_str     0x00000bf3      0x1a1 /opt/altera/13.0sp1/nios2eds/bin/gnu/H-i686-pc-linux-gnu/bin/../lib/gcc/nios2-elf/4.1.2/../../../../nios2-elf/lib/mno-hw-mul/libc.a(lib_a-dtoa.o)
                                0x614 (size before relaxing)
 .debug_str     0x00000d94       0x68 /opt/altera/13.0sp1/nios2eds/bin/gnu/H-i686-pc-linux-gnu/bin/../lib/gcc/nios2-elf/4.1.2/../../../../nios2-elf/lib/mno-hw-mul/libc.a(lib_a-fflush.o)
                                0x545 (size before relaxing)
 .debug_str     0x00000dfc      0x105 /opt/altera/13.0sp1/nios2eds/bin/gnu/H-i686-pc-linux-gnu/bin/../lib/gcc/nios2-elf/4.1.2/../../../../nios2-elf/lib/mno-hw-mul/libc.a(lib_a-findfp.o)
                                0x607 (size before relaxing)
 .debug_str     0x00000f01      0x15e /opt/altera/13.0sp1/nios2eds/bin/gnu/H-i686-pc-linux-gnu/bin/../lib/gcc/nios2-elf/4.1.2/../../../../nios2-elf/lib/mno-hw-mul/libc.a(lib_a-freer.o)
                                0x656 (size before relaxing)
 .debug_str     0x0000105f       0x69 /opt/altera/13.0sp1/nios2eds/bin/gnu/H-i686-pc-linux-gnu/bin/../lib/gcc/nios2-elf/4.1.2/../../../../nios2-elf/lib/mno-hw-mul/libc.a(lib_a-fvwrite.o)
                                0x576 (size before relaxing)
 .debug_str     0x000010c8       0x61 /opt/altera/13.0sp1/nios2eds/bin/gnu/H-i686-pc-linux-gnu/bin/../lib/gcc/nios2-elf/4.1.2/../../../../nios2-elf/lib/mno-hw-mul/libc.a(lib_a-fwalk.o)
                                0x548 (size before relaxing)
 .debug_str     0x00001129       0xe4 /opt/altera/13.0sp1/nios2eds/bin/gnu/H-i686-pc-linux-gnu/bin/../lib/gcc/nios2-elf/4.1.2/../../../../nios2-elf/lib/mno-hw-mul/libc.a(lib_a-impure.o)
                                0x52d (size before relaxing)
 .debug_str     0x0000120d      0x238 /opt/altera/13.0sp1/nios2eds/bin/gnu/H-i686-pc-linux-gnu/bin/../lib/gcc/nios2-elf/4.1.2/../../../../nios2-elf/lib/mno-hw-mul/libc.a(lib_a-locale.o)
                                0x6bc (size before relaxing)
 .debug_str     0x00001445      0x126 /opt/altera/13.0sp1/nios2eds/bin/gnu/H-i686-pc-linux-gnu/bin/../lib/gcc/nios2-elf/4.1.2/../../../../nios2-elf/lib/mno-hw-mul/libc.a(lib_a-makebuf.o)
                                0x619 (size before relaxing)
 .debug_str     0x0000156b       0xef /opt/altera/13.0sp1/nios2eds/bin/gnu/H-i686-pc-linux-gnu/bin/../lib/gcc/nios2-elf/4.1.2/../../../../nios2-elf/lib/mno-hw-mul/libc.a(lib_a-mallocr.o)
                                0x704 (size before relaxing)
 .debug_str     0x0000165a       0x5f /opt/altera/13.0sp1/nios2eds/bin/gnu/H-i686-pc-linux-gnu/bin/../lib/gcc/nios2-elf/4.1.2/../../../../nios2-elf/lib/mno-hw-mul/libc.a(lib_a-memchr.o)
                                0x19e (size before relaxing)
 .debug_str     0x000016b9       0x6c /opt/altera/13.0sp1/nios2eds/bin/gnu/H-i686-pc-linux-gnu/bin/../lib/gcc/nios2-elf/4.1.2/../../../../nios2-elf/lib/mno-hw-mul/libc.a(lib_a-memcpy.o)
                                0x13b (size before relaxing)
 .debug_str     0x00001725       0x50 /opt/altera/13.0sp1/nios2eds/bin/gnu/H-i686-pc-linux-gnu/bin/../lib/gcc/nios2-elf/4.1.2/../../../../nios2-elf/lib/mno-hw-mul/libc.a(lib_a-memmove.o)
                                0x1b0 (size before relaxing)
 .debug_str     0x00001775       0x45 /opt/altera/13.0sp1/nios2eds/bin/gnu/H-i686-pc-linux-gnu/bin/../lib/gcc/nios2-elf/4.1.2/../../../../nios2-elf/lib/mno-hw-mul/libc.a(lib_a-memset.o)
                                0x191 (size before relaxing)
 .debug_str     0x000017ba       0xfb /opt/altera/13.0sp1/nios2eds/bin/gnu/H-i686-pc-linux-gnu/bin/../lib/gcc/nios2-elf/4.1.2/../../../../nios2-elf/lib/mno-hw-mul/libc.a(lib_a-mprec.o)
                                0x621 (size before relaxing)
 .debug_str     0x000018b5       0x59 /opt/altera/13.0sp1/nios2eds/bin/gnu/H-i686-pc-linux-gnu/bin/../lib/gcc/nios2-elf/4.1.2/../../../../nios2-elf/lib/mno-hw-mul/libc.a(lib_a-reallocr.o)
                                0x5d6 (size before relaxing)
 .debug_str     0x0000190e       0xef /opt/altera/13.0sp1/nios2eds/bin/gnu/H-i686-pc-linux-gnu/bin/../lib/gcc/nios2-elf/4.1.2/../../../../nios2-elf/lib/mno-hw-mul/libc.a(lib_a-s_isinfd.o)
                                0x19d (size before relaxing)
 .debug_str     0x000019fd       0x49 /opt/altera/13.0sp1/nios2eds/bin/gnu/H-i686-pc-linux-gnu/bin/../lib/gcc/nios2-elf/4.1.2/../../../../nios2-elf/lib/mno-hw-mul/libc.a(lib_a-s_isnand.o)
                                0x19d (size before relaxing)
 .debug_str     0x00001a46       0x53 /opt/altera/13.0sp1/nios2eds/bin/gnu/H-i686-pc-linux-gnu/bin/../lib/gcc/nios2-elf/4.1.2/../../../../nios2-elf/lib/mno-hw-mul/libc.a(lib_a-sbrkr.o)
                                0x51e (size before relaxing)
 .debug_str     0x00001a99       0x65 /opt/altera/13.0sp1/nios2eds/bin/gnu/H-i686-pc-linux-gnu/bin/../lib/gcc/nios2-elf/4.1.2/../../../../nios2-elf/lib/mno-hw-mul/libc.a(lib_a-stdio.o)
                                0x544 (size before relaxing)
 .debug_str     0x00001afe       0x45 /opt/altera/13.0sp1/nios2eds/bin/gnu/H-i686-pc-linux-gnu/bin/../lib/gcc/nios2-elf/4.1.2/../../../../nios2-elf/lib/mno-hw-mul/libc.a(lib_a-strcmp.o)
                                0x176 (size before relaxing)
 .debug_str     0x00001b43       0x4f /opt/altera/13.0sp1/nios2eds/bin/gnu/H-i686-pc-linux-gnu/bin/../lib/gcc/nios2-elf/4.1.2/../../../../nios2-elf/lib/mno-hw-mul/libc.a(lib_a-writer.o)
                                0x521 (size before relaxing)
 .debug_str     0x00001b92       0x19 /opt/altera/13.0sp1/nios2eds/bin/gnu/H-i686-pc-linux-gnu/bin/../lib/gcc/nios2-elf/4.1.2/../../../../nios2-elf/lib/mno-hw-mul/libc.a(lib_a-callocr.o)
                                0x555 (size before relaxing)
 .debug_str     0x00001bab       0x46 /opt/altera/13.0sp1/nios2eds/bin/gnu/H-i686-pc-linux-gnu/bin/../lib/gcc/nios2-elf/4.1.2/../../../../nios2-elf/lib/mno-hw-mul/libc.a(lib_a-closer.o)
                                0x511 (size before relaxing)
 .debug_str     0x00001bf1       0x4e /opt/altera/13.0sp1/nios2eds/bin/gnu/H-i686-pc-linux-gnu/bin/../lib/gcc/nios2-elf/4.1.2/../../../../nios2-elf/lib/mno-hw-mul/libc.a(lib_a-fclose.o)
                                0x529 (size before relaxing)
 .debug_str     0x00001c3f       0x4c /opt/altera/13.0sp1/nios2eds/bin/gnu/H-i686-pc-linux-gnu/bin/../lib/gcc/nios2-elf/4.1.2/../../../../nios2-elf/lib/mno-hw-mul/libc.a(lib_a-fstatr.o)
                                0x604 (size before relaxing)
 .debug_str     0x00001c8b       0x40 /opt/altera/13.0sp1/nios2eds/bin/gnu/H-i686-pc-linux-gnu/bin/../lib/gcc/nios2-elf/4.1.2/../../../../nios2-elf/lib/mno-hw-mul/libc.a(lib_a-int_errno.o)
                                0x176 (size before relaxing)
 .debug_str     0x00001ccb       0x48 /opt/altera/13.0sp1/nios2eds/bin/gnu/H-i686-pc-linux-gnu/bin/../lib/gcc/nios2-elf/4.1.2/../../../../nios2-elf/lib/mno-hw-mul/libc.a(lib_a-isattyr.o)
                                0x513 (size before relaxing)
 .debug_str     0x00001d13       0x46 /opt/altera/13.0sp1/nios2eds/bin/gnu/H-i686-pc-linux-gnu/bin/../lib/gcc/nios2-elf/4.1.2/../../../../nios2-elf/lib/mno-hw-mul/libc.a(lib_a-lseekr.o)
                                0x51f (size before relaxing)
 .debug_str     0x00001d59       0x44 /opt/altera/13.0sp1/nios2eds/bin/gnu/H-i686-pc-linux-gnu/bin/../lib/gcc/nios2-elf/4.1.2/../../../../nios2-elf/lib/mno-hw-mul/libc.a(lib_a-readr.o)
                                0x51f (size before relaxing)
 .debug_str     0x00001d9d       0x73 /opt/altera/13.0sp1/nios2eds/bin/gnu/H-i686-pc-linux-gnu/bin/../lib/gcc/nios2-elf/4.1.2/mno-hw-mul/libgcc.a(_udivdi3.o)
                                0x1fc (size before relaxing)
 .debug_str     0x00001e10        0xa /opt/altera/13.0sp1/nios2eds/bin/gnu/H-i686-pc-linux-gnu/bin/../lib/gcc/nios2-elf/4.1.2/mno-hw-mul/libgcc.a(_umoddi3.o)
                                0x1fc (size before relaxing)
 .debug_str     0x00001e1a       0x40 /opt/altera/13.0sp1/nios2eds/bin/gnu/H-i686-pc-linux-gnu/bin/../lib/gcc/nios2-elf/4.1.2/mno-hw-mul/libgcc.a(_mul_df.o)
                                0x246 (size before relaxing)
 .debug_str     0x00001e5a        0x8 /opt/altera/13.0sp1/nios2eds/bin/gnu/H-i686-pc-linux-gnu/bin/../lib/gcc/nios2-elf/4.1.2/mno-hw-mul/libgcc.a(_eq_df.o)
                                0x203 (size before relaxing)
 .debug_str     0x00001e62        0x8 /opt/altera/13.0sp1/nios2eds/bin/gnu/H-i686-pc-linux-gnu/bin/../lib/gcc/nios2-elf/4.1.2/mno-hw-mul/libgcc.a(_ne_df.o)
                                0x203 (size before relaxing)
 .debug_str     0x00001e6a        0x8 /opt/altera/13.0sp1/nios2eds/bin/gnu/H-i686-pc-linux-gnu/bin/../lib/gcc/nios2-elf/4.1.2/mno-hw-mul/libgcc.a(_gt_df.o)
                                0x203 (size before relaxing)
 .debug_str     0x00001e72        0x8 /opt/altera/13.0sp1/nios2eds/bin/gnu/H-i686-pc-linux-gnu/bin/../lib/gcc/nios2-elf/4.1.2/mno-hw-mul/libgcc.a(_ge_df.o)
                                0x203 (size before relaxing)
 .debug_str     0x00001e7a        0x8 /opt/altera/13.0sp1/nios2eds/bin/gnu/H-i686-pc-linux-gnu/bin/../lib/gcc/nios2-elf/4.1.2/mno-hw-mul/libgcc.a(_lt_df.o)
                                0x203 (size before relaxing)
 .debug_str     0x00001e82       0x14 /opt/altera/13.0sp1/nios2eds/bin/gnu/H-i686-pc-linux-gnu/bin/../lib/gcc/nios2-elf/4.1.2/mno-hw-mul/libgcc.a(_usi_to_df.o)
                                0x1df (size before relaxing)
 .debug_str     0x00001e96        0x9 /opt/altera/13.0sp1/nios2eds/bin/gnu/H-i686-pc-linux-gnu/bin/../lib/gcc/nios2-elf/4.1.2/mno-hw-mul/libgcc.a(_muldi3.o)
                                0x1b1 (size before relaxing)
 .debug_str     0x00001e9f       0x10 /opt/altera/13.0sp1/nios2eds/bin/gnu/H-i686-pc-linux-gnu/bin/../lib/gcc/nios2-elf/4.1.2/mno-hw-mul/libgcc.a(_fpcmp_parts_df.o)
                                0x1cb (size before relaxing)
 .debug_str     0x00001eaf       0x23 ../lab2_cruisecontrol_bsp//libucosii_bsp.a(alt_alarm_start.o)
 .debug_str     0x00001ed2       0x12 ../lab2_cruisecontrol_bsp//libucosii_bsp.a(alt_close.o)
 .debug_str     0x00001ee4       0x12 ../lab2_cruisecontrol_bsp//libucosii_bsp.a(alt_dev.o)
 .debug_str     0x00001ef6       0x12 ../lab2_cruisecontrol_bsp//libucosii_bsp.a(alt_errno.o)
 .debug_str     0x00001f08       0x12 ../lab2_cruisecontrol_bsp//libucosii_bsp.a(alt_fstat.o)
 .debug_str     0x00001f1a       0x12 ../lab2_cruisecontrol_bsp//libucosii_bsp.a(alt_isatty.o)
 .debug_str     0x00001f2c       0x12 ../lab2_cruisecontrol_bsp//libucosii_bsp.a(alt_load.o)
 .debug_str     0x00001f3e       0x12 ../lab2_cruisecontrol_bsp//libucosii_bsp.a(alt_lseek.o)
 .debug_str     0x00001f50       0x12 ../lab2_cruisecontrol_bsp//libucosii_bsp.a(alt_main.o)
 .debug_str     0x00001f62       0x12 ../lab2_cruisecontrol_bsp//libucosii_bsp.a(alt_read.o)
 .debug_str     0x00001f74       0x12 ../lab2_cruisecontrol_bsp//libucosii_bsp.a(alt_release_fd.o)
 .debug_str     0x00001f86       0x1a ../lab2_cruisecontrol_bsp//libucosii_bsp.a(alt_sbrk.o)
 .debug_str     0x00001fa0       0x1a ../lab2_cruisecontrol_bsp//libucosii_bsp.a(alt_tick.o)
 .debug_str     0x00001fba       0x12 ../lab2_cruisecontrol_bsp//libucosii_bsp.a(alt_write.o)
 .debug_str     0x00001fcc       0x36 ../lab2_cruisecontrol_bsp//libucosii_bsp.a(alt_env_lock.o)
 .debug_str     0x00002002       0x36 ../lab2_cruisecontrol_bsp//libucosii_bsp.a(alt_malloc_lock.o)
 .debug_str     0x00002038       0x46 ../lab2_cruisecontrol_bsp//libucosii_bsp.a(os_core.o)
 .debug_str     0x0000207e       0x2b ../lab2_cruisecontrol_bsp//libucosii_bsp.a(os_dbg.o)
 .debug_str     0x000020a9       0x4e ../lab2_cruisecontrol_bsp//libucosii_bsp.a(os_flag.o)
 .debug_str     0x000020f7       0x36 ../lab2_cruisecontrol_bsp//libucosii_bsp.a(os_mbox.o)
 .debug_str     0x0000212d       0x2c ../lab2_cruisecontrol_bsp//libucosii_bsp.a(os_mem.o)
 .debug_str     0x00002159       0x36 ../lab2_cruisecontrol_bsp//libucosii_bsp.a(os_q.o)
 .debug_str     0x0000218f       0x36 ../lab2_cruisecontrol_bsp//libucosii_bsp.a(os_sem.o)
 .debug_str     0x000021c5       0x23 ../lab2_cruisecontrol_bsp//libucosii_bsp.a(os_task.o)
 .debug_str     0x000021e8       0x1f ../lab2_cruisecontrol_bsp//libucosii_bsp.a(os_time.o)
 .debug_str     0x00002207       0x30 ../lab2_cruisecontrol_bsp//libucosii_bsp.a(os_tmr.o)
 .debug_str     0x00002237       0x2b ../lab2_cruisecontrol_bsp//libucosii_bsp.a(alt_sys_init.o)
 .debug_str     0x00002262       0x12 ../lab2_cruisecontrol_bsp//libucosii_bsp.a(altera_avalon_jtag_uart_fd.o)
 .debug_str     0x00002274       0x1a ../lab2_cruisecontrol_bsp//libucosii_bsp.a(altera_avalon_jtag_uart_init.o)
 .debug_str     0x0000228e       0x12 ../lab2_cruisecontrol_bsp//libucosii_bsp.a(altera_avalon_jtag_uart_ioctl.o)
 .debug_str     0x000022a0       0x22 ../lab2_cruisecontrol_bsp//libucosii_bsp.a(altera_avalon_jtag_uart_read.o)
 .debug_str     0x000022c2       0x22 ../lab2_cruisecontrol_bsp//libucosii_bsp.a(altera_avalon_jtag_uart_write.o)
 .debug_str     0x000022e4       0x12 ../lab2_cruisecontrol_bsp//libucosii_bsp.a(altera_avalon_timer_sc.o)
 .debug_str     0x000022f6       0x55 ../lab2_cruisecontrol_bsp//libucosii_bsp.a(altera_up_avalon_character_lcd.o)
 .debug_str     0x0000234b       0x12 ../lab2_cruisecontrol_bsp//libucosii_bsp.a(alt_dcache_flush_all.o)
 .debug_str     0x0000235d       0x12 ../lab2_cruisecontrol_bsp//libucosii_bsp.a(alt_dev_llist_insert.o)
 .debug_str     0x0000236f       0x12 ../lab2_cruisecontrol_bsp//libucosii_bsp.a(alt_find_dev.o)
 .debug_str     0x00002381       0x12 ../lab2_cruisecontrol_bsp//libucosii_bsp.a(alt_icache_flush_all.o)
 .debug_str     0x00002393       0x18 ../lab2_cruisecontrol_bsp//libucosii_bsp.a(alt_iic.o)
 .debug_str     0x000023ab       0x1a ../lab2_cruisecontrol_bsp//libucosii_bsp.a(alt_iic_isr_register.o)
 .debug_str     0x000023c5       0x12 ../lab2_cruisecontrol_bsp//libucosii_bsp.a(alt_io_redirect.o)
 .debug_str     0x000023d7       0x12 ../lab2_cruisecontrol_bsp//libucosii_bsp.a(alt_irq_handler.o)
 .debug_str     0x000023e9       0x12 ../lab2_cruisecontrol_bsp//libucosii_bsp.a(alt_open.o)
 .debug_str     0x000023fb       0x12 ../lab2_cruisecontrol_bsp//libucosii_bsp.a(altera_nios2_qsys_irq.o)
 .debug_str     0x0000240d       0x20 ../lab2_cruisecontrol_bsp//libucosii_bsp.a(os_cpu_c.o)
 .debug_str     0x0000242d       0x12 ../lab2_cruisecontrol_bsp//libucosii_bsp.a(alt_find_file.o)
 .debug_str     0x0000243f       0x12 ../lab2_cruisecontrol_bsp//libucosii_bsp.a(alt_get_fd.o)
 .debug_str     0x00002451       0x3e /opt/altera/13.0sp1/nios2eds/bin/gnu/H-i686-pc-linux-gnu/bin/../lib/gcc/nios2-elf/4.1.2/../../../../nios2-elf/lib/mno-hw-mul/libc.a(lib_a-atexit.o)
                                0x1d2 (size before relaxing)
 .debug_str     0x0000248f       0x41 /opt/altera/13.0sp1/nios2eds/bin/gnu/H-i686-pc-linux-gnu/bin/../lib/gcc/nios2-elf/4.1.2/../../../../nios2-elf/lib/mno-hw-mul/libc.a(lib_a-exit.o)
                                0x51f (size before relaxing)
 .debug_str     0x000024d0       0x45 /opt/altera/13.0sp1/nios2eds/bin/gnu/H-i686-pc-linux-gnu/bin/../lib/gcc/nios2-elf/4.1.2/../../../../nios2-elf/lib/mno-hw-mul/libc.a(lib_a-memcmp.o)
                                0x17d (size before relaxing)
 .debug_str     0x00002515       0x54 /opt/altera/13.0sp1/nios2eds/bin/gnu/H-i686-pc-linux-gnu/bin/../lib/gcc/nios2-elf/4.1.2/../../../../nios2-elf/lib/mno-hw-mul/libc.a(lib_a-__atexit.o)
                                0x537 (size before relaxing)
 .debug_str     0x00002569       0x7e /opt/altera/13.0sp1/nios2eds/bin/gnu/H-i686-pc-linux-gnu/bin/../lib/gcc/nios2-elf/4.1.2/../../../../nios2-elf/lib/mno-hw-mul/libc.a(lib_a-__call_atexit.o)
                                0x561 (size before relaxing)
 .debug_str     0x000025e7        0xd /opt/altera/13.0sp1/nios2eds/bin/gnu/H-i686-pc-linux-gnu/bin/../lib/gcc/nios2-elf/4.1.2/mno-hw-mul/libgcc.a(_fixunsdfsi.o)
                                0x170 (size before relaxing)
 .debug_str     0x000025f4       0x1c ../lab2_cruisecontrol_bsp//libucosii_bsp.a(alt_exit.o)

.debug_loc      0x00000000     0xdaa6
 *(.debug_loc)
 .debug_loc     0x00000000      0x2b0 obj/default/cruise_skeleton.o
 .debug_loc     0x000002b0       0x8f /opt/altera/13.0sp1/nios2eds/bin/gnu/H-i686-pc-linux-gnu/bin/../lib/gcc/nios2-elf/4.1.2/mno-hw-mul/libgcc.a(_si_to_sf.o)
 .debug_loc     0x0000033f       0x32 /opt/altera/13.0sp1/nios2eds/bin/gnu/H-i686-pc-linux-gnu/bin/../lib/gcc/nios2-elf/4.1.2/mno-hw-mul/libgcc.a(_sf_to_df.o)
 .debug_loc     0x00000371      0x47a /opt/altera/13.0sp1/nios2eds/bin/gnu/H-i686-pc-linux-gnu/bin/../lib/gcc/nios2-elf/4.1.2/mno-hw-mul/libgcc.a(_addsub_df.o)
 .debug_loc     0x000007eb      0x1df /opt/altera/13.0sp1/nios2eds/bin/gnu/H-i686-pc-linux-gnu/bin/../lib/gcc/nios2-elf/4.1.2/mno-hw-mul/libgcc.a(_div_df.o)
 .debug_loc     0x000009ca       0x9a /opt/altera/13.0sp1/nios2eds/bin/gnu/H-i686-pc-linux-gnu/bin/../lib/gcc/nios2-elf/4.1.2/mno-hw-mul/libgcc.a(_si_to_df.o)
 .debug_loc     0x00000a64       0x8b /opt/altera/13.0sp1/nios2eds/bin/gnu/H-i686-pc-linux-gnu/bin/../lib/gcc/nios2-elf/4.1.2/mno-hw-mul/libgcc.a(_df_to_si.o)
 .debug_loc     0x00000aef       0x58 /opt/altera/13.0sp1/nios2eds/bin/gnu/H-i686-pc-linux-gnu/bin/../lib/gcc/nios2-elf/4.1.2/mno-hw-mul/libgcc.a(_make_df.o)
 .debug_loc     0x00000b47      0x1d2 /opt/altera/13.0sp1/nios2eds/bin/gnu/H-i686-pc-linux-gnu/bin/../lib/gcc/nios2-elf/4.1.2/mno-hw-mul/libgcc.a(lib2-divmod.o)
 .debug_loc     0x00000d19       0x4f /opt/altera/13.0sp1/nios2eds/bin/gnu/H-i686-pc-linux-gnu/bin/../lib/gcc/nios2-elf/4.1.2/mno-hw-mul/libgcc.a(lib2-mul.o)
 .debug_loc     0x00000d68       0x1e /opt/altera/13.0sp1/nios2eds/bin/gnu/H-i686-pc-linux-gnu/bin/../lib/gcc/nios2-elf/4.1.2/mno-hw-mul/libgcc.a(_clzsi2.o)
 .debug_loc     0x00000d86       0xf9 /opt/altera/13.0sp1/nios2eds/bin/gnu/H-i686-pc-linux-gnu/bin/../lib/gcc/nios2-elf/4.1.2/mno-hw-mul/libgcc.a(_pack_sf.o)
 .debug_loc     0x00000e7f       0x31 /opt/altera/13.0sp1/nios2eds/bin/gnu/H-i686-pc-linux-gnu/bin/../lib/gcc/nios2-elf/4.1.2/mno-hw-mul/libgcc.a(_unpack_sf.o)
 .debug_loc     0x00000eb0      0x184 /opt/altera/13.0sp1/nios2eds/bin/gnu/H-i686-pc-linux-gnu/bin/../lib/gcc/nios2-elf/4.1.2/mno-hw-mul/libgcc.a(_pack_df.o)
 .debug_loc     0x00001034       0xe5 /opt/altera/13.0sp1/nios2eds/bin/gnu/H-i686-pc-linux-gnu/bin/../lib/gcc/nios2-elf/4.1.2/mno-hw-mul/libgcc.a(_unpack_df.o)
 .debug_loc     0x00001119       0xcb /opt/altera/13.0sp1/nios2eds/bin/gnu/H-i686-pc-linux-gnu/bin/../lib/gcc/nios2-elf/4.1.2/../../../../nios2-elf/lib/mno-hw-mul/libc.a(lib_a-printf.o)
 .debug_loc     0x000011e4       0xa2 /opt/altera/13.0sp1/nios2eds/bin/gnu/H-i686-pc-linux-gnu/bin/../lib/gcc/nios2-elf/4.1.2/../../../../nios2-elf/lib/mno-hw-mul/libc.a(lib_a-puts.o)
 .debug_loc     0x00001286       0x3c /opt/altera/13.0sp1/nios2eds/bin/gnu/H-i686-pc-linux-gnu/bin/../lib/gcc/nios2-elf/4.1.2/../../../../nios2-elf/lib/mno-hw-mul/libc.a(lib_a-strlen.o)
 .debug_loc     0x000012c2     0x1dc0 /opt/altera/13.0sp1/nios2eds/bin/gnu/H-i686-pc-linux-gnu/bin/../lib/gcc/nios2-elf/4.1.2/../../../../nios2-elf/lib/mno-hw-mul/libc.a(lib_a-vfprintf.o)
 .debug_loc     0x00003082       0x7c /opt/altera/13.0sp1/nios2eds/bin/gnu/H-i686-pc-linux-gnu/bin/../lib/gcc/nios2-elf/4.1.2/../../../../nios2-elf/lib/mno-hw-mul/libc.a(lib_a-wsetup.o)
 .debug_loc     0x000030fe     0x1da7 /opt/altera/13.0sp1/nios2eds/bin/gnu/H-i686-pc-linux-gnu/bin/../lib/gcc/nios2-elf/4.1.2/../../../../nios2-elf/lib/mno-hw-mul/libc.a(lib_a-dtoa.o)
 .debug_loc     0x00004ea5      0x1f6 /opt/altera/13.0sp1/nios2eds/bin/gnu/H-i686-pc-linux-gnu/bin/../lib/gcc/nios2-elf/4.1.2/../../../../nios2-elf/lib/mno-hw-mul/libc.a(lib_a-fflush.o)
 .debug_loc     0x0000509b      0x1e1 /opt/altera/13.0sp1/nios2eds/bin/gnu/H-i686-pc-linux-gnu/bin/../lib/gcc/nios2-elf/4.1.2/../../../../nios2-elf/lib/mno-hw-mul/libc.a(lib_a-findfp.o)
 .debug_loc     0x0000527c      0x4a7 /opt/altera/13.0sp1/nios2eds/bin/gnu/H-i686-pc-linux-gnu/bin/../lib/gcc/nios2-elf/4.1.2/../../../../nios2-elf/lib/mno-hw-mul/libc.a(lib_a-freer.o)
 .debug_loc     0x00005723      0x4e4 /opt/altera/13.0sp1/nios2eds/bin/gnu/H-i686-pc-linux-gnu/bin/../lib/gcc/nios2-elf/4.1.2/../../../../nios2-elf/lib/mno-hw-mul/libc.a(lib_a-fvwrite.o)
 .debug_loc     0x00005c07      0x1d2 /opt/altera/13.0sp1/nios2eds/bin/gnu/H-i686-pc-linux-gnu/bin/../lib/gcc/nios2-elf/4.1.2/../../../../nios2-elf/lib/mno-hw-mul/libc.a(lib_a-fwalk.o)
 .debug_loc     0x00005dd9       0xe1 /opt/altera/13.0sp1/nios2eds/bin/gnu/H-i686-pc-linux-gnu/bin/../lib/gcc/nios2-elf/4.1.2/../../../../nios2-elf/lib/mno-hw-mul/libc.a(lib_a-locale.o)
 .debug_loc     0x00005eba      0x11c /opt/altera/13.0sp1/nios2eds/bin/gnu/H-i686-pc-linux-gnu/bin/../lib/gcc/nios2-elf/4.1.2/../../../../nios2-elf/lib/mno-hw-mul/libc.a(lib_a-makebuf.o)
 .debug_loc     0x00005fd6      0xaeb /opt/altera/13.0sp1/nios2eds/bin/gnu/H-i686-pc-linux-gnu/bin/../lib/gcc/nios2-elf/4.1.2/../../../../nios2-elf/lib/mno-hw-mul/libc.a(lib_a-mallocr.o)
 .debug_loc     0x00006ac1      0x106 /opt/altera/13.0sp1/nios2eds/bin/gnu/H-i686-pc-linux-gnu/bin/../lib/gcc/nios2-elf/4.1.2/../../../../nios2-elf/lib/mno-hw-mul/libc.a(lib_a-memchr.o)
 .debug_loc     0x00006bc7       0xca /opt/altera/13.0sp1/nios2eds/bin/gnu/H-i686-pc-linux-gnu/bin/../lib/gcc/nios2-elf/4.1.2/../../../../nios2-elf/lib/mno-hw-mul/libc.a(lib_a-memcpy.o)
 .debug_loc     0x00006c91      0x117 /opt/altera/13.0sp1/nios2eds/bin/gnu/H-i686-pc-linux-gnu/bin/../lib/gcc/nios2-elf/4.1.2/../../../../nios2-elf/lib/mno-hw-mul/libc.a(lib_a-memmove.o)
 .debug_loc     0x00006da8       0xa1 /opt/altera/13.0sp1/nios2eds/bin/gnu/H-i686-pc-linux-gnu/bin/../lib/gcc/nios2-elf/4.1.2/../../../../nios2-elf/lib/mno-hw-mul/libc.a(lib_a-memset.o)
 .debug_loc     0x00006e49     0x1547 /opt/altera/13.0sp1/nios2eds/bin/gnu/H-i686-pc-linux-gnu/bin/../lib/gcc/nios2-elf/4.1.2/../../../../nios2-elf/lib/mno-hw-mul/libc.a(lib_a-mprec.o)
 .debug_loc     0x00008390      0x8c0 /opt/altera/13.0sp1/nios2eds/bin/gnu/H-i686-pc-linux-gnu/bin/../lib/gcc/nios2-elf/4.1.2/../../../../nios2-elf/lib/mno-hw-mul/libc.a(lib_a-reallocr.o)
 .debug_loc     0x00008c50       0x36 /opt/altera/13.0sp1/nios2eds/bin/gnu/H-i686-pc-linux-gnu/bin/../lib/gcc/nios2-elf/4.1.2/../../../../nios2-elf/lib/mno-hw-mul/libc.a(lib_a-s_isinfd.o)
 .debug_loc     0x00008c86       0x18 /opt/altera/13.0sp1/nios2eds/bin/gnu/H-i686-pc-linux-gnu/bin/../lib/gcc/nios2-elf/4.1.2/../../../../nios2-elf/lib/mno-hw-mul/libc.a(lib_a-s_isnand.o)
 .debug_loc     0x00008c9e       0x5b /opt/altera/13.0sp1/nios2eds/bin/gnu/H-i686-pc-linux-gnu/bin/../lib/gcc/nios2-elf/4.1.2/../../../../nios2-elf/lib/mno-hw-mul/libc.a(lib_a-sbrkr.o)
 .debug_loc     0x00008cf9      0x21f /opt/altera/13.0sp1/nios2eds/bin/gnu/H-i686-pc-linux-gnu/bin/../lib/gcc/nios2-elf/4.1.2/../../../../nios2-elf/lib/mno-hw-mul/libc.a(lib_a-stdio.o)
 .debug_loc     0x00008f18       0x65 /opt/altera/13.0sp1/nios2eds/bin/gnu/H-i686-pc-linux-gnu/bin/../lib/gcc/nios2-elf/4.1.2/../../../../nios2-elf/lib/mno-hw-mul/libc.a(lib_a-strcmp.o)
 .debug_loc     0x00008f7d       0x97 /opt/altera/13.0sp1/nios2eds/bin/gnu/H-i686-pc-linux-gnu/bin/../lib/gcc/nios2-elf/4.1.2/../../../../nios2-elf/lib/mno-hw-mul/libc.a(lib_a-writer.o)
 .debug_loc     0x00009014       0xff /opt/altera/13.0sp1/nios2eds/bin/gnu/H-i686-pc-linux-gnu/bin/../lib/gcc/nios2-elf/4.1.2/../../../../nios2-elf/lib/mno-hw-mul/libc.a(lib_a-callocr.o)
 .debug_loc     0x00009113       0x5b /opt/altera/13.0sp1/nios2eds/bin/gnu/H-i686-pc-linux-gnu/bin/../lib/gcc/nios2-elf/4.1.2/../../../../nios2-elf/lib/mno-hw-mul/libc.a(lib_a-closer.o)
 .debug_loc     0x0000916e       0xe4 /opt/altera/13.0sp1/nios2eds/bin/gnu/H-i686-pc-linux-gnu/bin/../lib/gcc/nios2-elf/4.1.2/../../../../nios2-elf/lib/mno-hw-mul/libc.a(lib_a-fclose.o)
 .debug_loc     0x00009252       0x79 /opt/altera/13.0sp1/nios2eds/bin/gnu/H-i686-pc-linux-gnu/bin/../lib/gcc/nios2-elf/4.1.2/../../../../nios2-elf/lib/mno-hw-mul/libc.a(lib_a-fstatr.o)
 .debug_loc     0x000092cb       0x5b /opt/altera/13.0sp1/nios2eds/bin/gnu/H-i686-pc-linux-gnu/bin/../lib/gcc/nios2-elf/4.1.2/../../../../nios2-elf/lib/mno-hw-mul/libc.a(lib_a-isattyr.o)
 .debug_loc     0x00009326       0x97 /opt/altera/13.0sp1/nios2eds/bin/gnu/H-i686-pc-linux-gnu/bin/../lib/gcc/nios2-elf/4.1.2/../../../../nios2-elf/lib/mno-hw-mul/libc.a(lib_a-lseekr.o)
 .debug_loc     0x000093bd       0x97 /opt/altera/13.0sp1/nios2eds/bin/gnu/H-i686-pc-linux-gnu/bin/../lib/gcc/nios2-elf/4.1.2/../../../../nios2-elf/lib/mno-hw-mul/libc.a(lib_a-readr.o)
 .debug_loc     0x00009454      0xc12 /opt/altera/13.0sp1/nios2eds/bin/gnu/H-i686-pc-linux-gnu/bin/../lib/gcc/nios2-elf/4.1.2/mno-hw-mul/libgcc.a(_udivdi3.o)
 .debug_loc     0x0000a066      0xbcc /opt/altera/13.0sp1/nios2eds/bin/gnu/H-i686-pc-linux-gnu/bin/../lib/gcc/nios2-elf/4.1.2/mno-hw-mul/libgcc.a(_umoddi3.o)
 .debug_loc     0x0000ac32      0x3b4 /opt/altera/13.0sp1/nios2eds/bin/gnu/H-i686-pc-linux-gnu/bin/../lib/gcc/nios2-elf/4.1.2/mno-hw-mul/libgcc.a(_mul_df.o)
 .debug_loc     0x0000afe6       0x70 /opt/altera/13.0sp1/nios2eds/bin/gnu/H-i686-pc-linux-gnu/bin/../lib/gcc/nios2-elf/4.1.2/mno-hw-mul/libgcc.a(_eq_df.o)
 .debug_loc     0x0000b056       0x70 /opt/altera/13.0sp1/nios2eds/bin/gnu/H-i686-pc-linux-gnu/bin/../lib/gcc/nios2-elf/4.1.2/mno-hw-mul/libgcc.a(_ne_df.o)
 .debug_loc     0x0000b0c6       0x70 /opt/altera/13.0sp1/nios2eds/bin/gnu/H-i686-pc-linux-gnu/bin/../lib/gcc/nios2-elf/4.1.2/mno-hw-mul/libgcc.a(_gt_df.o)
 .debug_loc     0x0000b136       0x70 /opt/altera/13.0sp1/nios2eds/bin/gnu/H-i686-pc-linux-gnu/bin/../lib/gcc/nios2-elf/4.1.2/mno-hw-mul/libgcc.a(_ge_df.o)
 .debug_loc     0x0000b1a6       0x70 /opt/altera/13.0sp1/nios2eds/bin/gnu/H-i686-pc-linux-gnu/bin/../lib/gcc/nios2-elf/4.1.2/mno-hw-mul/libgcc.a(_lt_df.o)
 .debug_loc     0x0000b216       0x5b /opt/altera/13.0sp1/nios2eds/bin/gnu/H-i686-pc-linux-gnu/bin/../lib/gcc/nios2-elf/4.1.2/mno-hw-mul/libgcc.a(_usi_to_df.o)
 .debug_loc     0x0000b271      0x103 /opt/altera/13.0sp1/nios2eds/bin/gnu/H-i686-pc-linux-gnu/bin/../lib/gcc/nios2-elf/4.1.2/mno-hw-mul/libgcc.a(_muldi3.o)
 .debug_loc     0x0000b374       0x2b ../lab2_cruisecontrol_bsp//libucosii_bsp.a(alt_alarm_start.o)
 .debug_loc     0x0000b39f       0x56 ../lab2_cruisecontrol_bsp//libucosii_bsp.a(alt_close.o)
 .debug_loc     0x0000b3f5       0x2b ../lab2_cruisecontrol_bsp//libucosii_bsp.a(alt_dev.o)
 .debug_loc     0x0000b420       0x56 ../lab2_cruisecontrol_bsp//libucosii_bsp.a(alt_fstat.o)
 .debug_loc     0x0000b476       0x57 ../lab2_cruisecontrol_bsp//libucosii_bsp.a(alt_isatty.o)
 .debug_loc     0x0000b4cd       0x56 ../lab2_cruisecontrol_bsp//libucosii_bsp.a(alt_load.o)
 .debug_loc     0x0000b523       0x56 ../lab2_cruisecontrol_bsp//libucosii_bsp.a(alt_lseek.o)
 .debug_loc     0x0000b579       0x2b ../lab2_cruisecontrol_bsp//libucosii_bsp.a(alt_main.o)
 .debug_loc     0x0000b5a4       0x56 ../lab2_cruisecontrol_bsp//libucosii_bsp.a(alt_read.o)
 .debug_loc     0x0000b5fa       0x2b ../lab2_cruisecontrol_bsp//libucosii_bsp.a(alt_release_fd.o)
 .debug_loc     0x0000b625       0x2b ../lab2_cruisecontrol_bsp//libucosii_bsp.a(alt_sbrk.o)
 .debug_loc     0x0000b650       0x56 ../lab2_cruisecontrol_bsp//libucosii_bsp.a(alt_tick.o)
 .debug_loc     0x0000b6a6       0x56 ../lab2_cruisecontrol_bsp//libucosii_bsp.a(alt_write.o)
 .debug_loc     0x0000b6fc       0x57 ../lab2_cruisecontrol_bsp//libucosii_bsp.a(alt_env_lock.o)
 .debug_loc     0x0000b753       0x57 ../lab2_cruisecontrol_bsp//libucosii_bsp.a(alt_malloc_lock.o)
 .debug_loc     0x0000b7aa      0x5e2 ../lab2_cruisecontrol_bsp//libucosii_bsp.a(os_core.o)
 .debug_loc     0x0000bd8c       0x2b ../lab2_cruisecontrol_bsp//libucosii_bsp.a(os_dbg.o)
 .debug_loc     0x0000bdb7      0x232 ../lab2_cruisecontrol_bsp//libucosii_bsp.a(os_flag.o)
 .debug_loc     0x0000bfe9      0x158 ../lab2_cruisecontrol_bsp//libucosii_bsp.a(os_mbox.o)
 .debug_loc     0x0000c141      0x12d ../lab2_cruisecontrol_bsp//libucosii_bsp.a(os_mem.o)
 .debug_loc     0x0000c26e      0x1da ../lab2_cruisecontrol_bsp//libucosii_bsp.a(os_q.o)
 .debug_loc     0x0000c448      0x158 ../lab2_cruisecontrol_bsp//libucosii_bsp.a(os_sem.o)
 .debug_loc     0x0000c5a0      0x207 ../lab2_cruisecontrol_bsp//libucosii_bsp.a(os_task.o)
 .debug_loc     0x0000c7a7       0xd7 ../lab2_cruisecontrol_bsp//libucosii_bsp.a(os_time.o)
 .debug_loc     0x0000c87e      0x2db ../lab2_cruisecontrol_bsp//libucosii_bsp.a(os_tmr.o)
 .debug_loc     0x0000cb59       0x81 ../lab2_cruisecontrol_bsp//libucosii_bsp.a(alt_sys_init.o)
 .debug_loc     0x0000cbda       0xac ../lab2_cruisecontrol_bsp//libucosii_bsp.a(altera_avalon_jtag_uart_fd.o)
 .debug_loc     0x0000cc86       0xac ../lab2_cruisecontrol_bsp//libucosii_bsp.a(altera_avalon_jtag_uart_init.o)
 .debug_loc     0x0000cd32       0x2b ../lab2_cruisecontrol_bsp//libucosii_bsp.a(altera_avalon_jtag_uart_ioctl.o)
 .debug_loc     0x0000cd5d       0x2c ../lab2_cruisecontrol_bsp//libucosii_bsp.a(altera_avalon_jtag_uart_read.o)
 .debug_loc     0x0000cd89       0x2c ../lab2_cruisecontrol_bsp//libucosii_bsp.a(altera_avalon_jtag_uart_write.o)
 .debug_loc     0x0000cdb5       0x56 ../lab2_cruisecontrol_bsp//libucosii_bsp.a(altera_avalon_timer_sc.o)
 .debug_loc     0x0000ce0b      0x22f ../lab2_cruisecontrol_bsp//libucosii_bsp.a(altera_up_avalon_character_lcd.o)
 .debug_loc     0x0000d03a       0x2b ../lab2_cruisecontrol_bsp//libucosii_bsp.a(alt_dcache_flush_all.o)
 .debug_loc     0x0000d065       0x56 ../lab2_cruisecontrol_bsp//libucosii_bsp.a(alt_dev_llist_insert.o)
 .debug_loc     0x0000d0bb       0x2b ../lab2_cruisecontrol_bsp//libucosii_bsp.a(alt_do_ctors.o)
 .debug_loc     0x0000d0e6       0x2b ../lab2_cruisecontrol_bsp//libucosii_bsp.a(alt_do_dtors.o)
 .debug_loc     0x0000d111       0x2b ../lab2_cruisecontrol_bsp//libucosii_bsp.a(alt_find_dev.o)
 .debug_loc     0x0000d13c       0x2b ../lab2_cruisecontrol_bsp//libucosii_bsp.a(alt_icache_flush_all.o)
 .debug_loc     0x0000d167       0xac ../lab2_cruisecontrol_bsp//libucosii_bsp.a(alt_iic.o)
 .debug_loc     0x0000d213       0x2b ../lab2_cruisecontrol_bsp//libucosii_bsp.a(alt_iic_isr_register.o)
 .debug_loc     0x0000d23e       0x56 ../lab2_cruisecontrol_bsp//libucosii_bsp.a(alt_io_redirect.o)
 .debug_loc     0x0000d294       0x2b ../lab2_cruisecontrol_bsp//libucosii_bsp.a(alt_irq_handler.o)
 .debug_loc     0x0000d2bf       0x81 ../lab2_cruisecontrol_bsp//libucosii_bsp.a(alt_open.o)
 .debug_loc     0x0000d340       0x2b ../lab2_cruisecontrol_bsp//libucosii_bsp.a(altera_nios2_qsys_irq.o)
 .debug_loc     0x0000d36b      0x1ae ../lab2_cruisecontrol_bsp//libucosii_bsp.a(os_cpu_c.o)
 .debug_loc     0x0000d519       0x2b ../lab2_cruisecontrol_bsp//libucosii_bsp.a(alt_find_file.o)
 .debug_loc     0x0000d544       0x2b ../lab2_cruisecontrol_bsp//libucosii_bsp.a(alt_get_fd.o)
 .debug_loc     0x0000d56f       0x1e /opt/altera/13.0sp1/nios2eds/bin/gnu/H-i686-pc-linux-gnu/bin/../lib/gcc/nios2-elf/4.1.2/../../../../nios2-elf/lib/mno-hw-mul/libc.a(lib_a-atexit.o)
 .debug_loc     0x0000d58d       0x3d /opt/altera/13.0sp1/nios2eds/bin/gnu/H-i686-pc-linux-gnu/bin/../lib/gcc/nios2-elf/4.1.2/../../../../nios2-elf/lib/mno-hw-mul/libc.a(lib_a-exit.o)
 .debug_loc     0x0000d5ca      0x114 /opt/altera/13.0sp1/nios2eds/bin/gnu/H-i686-pc-linux-gnu/bin/../lib/gcc/nios2-elf/4.1.2/../../../../nios2-elf/lib/mno-hw-mul/libc.a(lib_a-memcmp.o)
 .debug_loc     0x0000d6de      0x120 /opt/altera/13.0sp1/nios2eds/bin/gnu/H-i686-pc-linux-gnu/bin/../lib/gcc/nios2-elf/4.1.2/../../../../nios2-elf/lib/mno-hw-mul/libc.a(lib_a-__atexit.o)
 .debug_loc     0x0000d7fe      0x1cb /opt/altera/13.0sp1/nios2eds/bin/gnu/H-i686-pc-linux-gnu/bin/../lib/gcc/nios2-elf/4.1.2/../../../../nios2-elf/lib/mno-hw-mul/libc.a(lib_a-__call_atexit.o)
 .debug_loc     0x0000d9c9       0x87 /opt/altera/13.0sp1/nios2eds/bin/gnu/H-i686-pc-linux-gnu/bin/../lib/gcc/nios2-elf/4.1.2/mno-hw-mul/libgcc.a(_fixunsdfsi.o)
 .debug_loc     0x0000da50       0x56 ../lab2_cruisecontrol_bsp//libucosii_bsp.a(alt_exit.o)

.debug_macinfo
 *(.debug_macinfo)

.debug_weaknames
 *(.debug_weaknames)

.debug_funcnames
 *(.debug_funcnames)

.debug_typenames
 *(.debug_typenames)

.debug_varnames
 *(.debug_varnames)

.debug_alt_sim_info
                0x00000000       0x10
 *(.debug_alt_sim_info)
 .debug_alt_sim_info
                0x00000000       0x10 ../lab2_cruisecontrol_bsp//obj/HAL/src/crt0.o
                0x01800000                __alt_data_end = 0x1800000
                0x01800000                PROVIDE (__alt_stack_pointer, __alt_data_end)
                0x0102ad20                PROVIDE (__alt_stack_limit, __alt_stack_base)
                0x0102ad20                PROVIDE (__alt_heap_start, end)
                0x01800000                PROVIDE (__alt_heap_limit, 0x1800000)
OUTPUT(lab2_cruisecontrol.elf elf32-littlenios2)

.debug_ranges   0x00000000      0xa10
 .debug_ranges  0x00000000       0x20 ../lab2_cruisecontrol_bsp//obj/HAL/src/crt0.o
 .debug_ranges  0x00000020       0x18 /opt/altera/13.0sp1/nios2eds/bin/gnu/H-i686-pc-linux-gnu/bin/../lib/gcc/nios2-elf/4.1.2/mno-hw-mul/libgcc.a(_si_to_sf.o)
 .debug_ranges  0x00000038       0x30 /opt/altera/13.0sp1/nios2eds/bin/gnu/H-i686-pc-linux-gnu/bin/../lib/gcc/nios2-elf/4.1.2/mno-hw-mul/libgcc.a(_addsub_df.o)
 .debug_ranges  0x00000068       0x50 /opt/altera/13.0sp1/nios2eds/bin/gnu/H-i686-pc-linux-gnu/bin/../lib/gcc/nios2-elf/4.1.2/mno-hw-mul/libgcc.a(_div_df.o)
 .debug_ranges  0x000000b8       0x28 /opt/altera/13.0sp1/nios2eds/bin/gnu/H-i686-pc-linux-gnu/bin/../lib/gcc/nios2-elf/4.1.2/mno-hw-mul/libgcc.a(_clzsi2.o)
 .debug_ranges  0x000000e0       0x28 /opt/altera/13.0sp1/nios2eds/bin/gnu/H-i686-pc-linux-gnu/bin/../lib/gcc/nios2-elf/4.1.2/mno-hw-mul/libgcc.a(_pack_df.o)
 .debug_ranges  0x00000108      0x168 /opt/altera/13.0sp1/nios2eds/bin/gnu/H-i686-pc-linux-gnu/bin/../lib/gcc/nios2-elf/4.1.2/../../../../nios2-elf/lib/mno-hw-mul/libc.a(lib_a-vfprintf.o)
 .debug_ranges  0x00000270       0x20 /opt/altera/13.0sp1/nios2eds/bin/gnu/H-i686-pc-linux-gnu/bin/../lib/gcc/nios2-elf/4.1.2/../../../../nios2-elf/lib/mno-hw-mul/libc.a(lib_a-fflush.o)
 .debug_ranges  0x00000290       0x28 /opt/altera/13.0sp1/nios2eds/bin/gnu/H-i686-pc-linux-gnu/bin/../lib/gcc/nios2-elf/4.1.2/../../../../nios2-elf/lib/mno-hw-mul/libc.a(lib_a-fvwrite.o)
 .debug_ranges  0x000002b8       0xa0 /opt/altera/13.0sp1/nios2eds/bin/gnu/H-i686-pc-linux-gnu/bin/../lib/gcc/nios2-elf/4.1.2/../../../../nios2-elf/lib/mno-hw-mul/libc.a(lib_a-fwalk.o)
 .debug_ranges  0x00000358       0x70 /opt/altera/13.0sp1/nios2eds/bin/gnu/H-i686-pc-linux-gnu/bin/../lib/gcc/nios2-elf/4.1.2/../../../../nios2-elf/lib/mno-hw-mul/libc.a(lib_a-mallocr.o)
 .debug_ranges  0x000003c8      0x110 /opt/altera/13.0sp1/nios2eds/bin/gnu/H-i686-pc-linux-gnu/bin/../lib/gcc/nios2-elf/4.1.2/../../../../nios2-elf/lib/mno-hw-mul/libc.a(lib_a-reallocr.o)
 .debug_ranges  0x000004d8       0x38 /opt/altera/13.0sp1/nios2eds/bin/gnu/H-i686-pc-linux-gnu/bin/../lib/gcc/nios2-elf/4.1.2/../../../../nios2-elf/lib/mno-hw-mul/libc.a(lib_a-callocr.o)
 .debug_ranges  0x00000510      0x190 /opt/altera/13.0sp1/nios2eds/bin/gnu/H-i686-pc-linux-gnu/bin/../lib/gcc/nios2-elf/4.1.2/mno-hw-mul/libgcc.a(_udivdi3.o)
 .debug_ranges  0x000006a0      0x1c0 /opt/altera/13.0sp1/nios2eds/bin/gnu/H-i686-pc-linux-gnu/bin/../lib/gcc/nios2-elf/4.1.2/mno-hw-mul/libgcc.a(_umoddi3.o)
 .debug_ranges  0x00000860       0x88 /opt/altera/13.0sp1/nios2eds/bin/gnu/H-i686-pc-linux-gnu/bin/../lib/gcc/nios2-elf/4.1.2/mno-hw-mul/libgcc.a(_mul_df.o)
 .debug_ranges  0x000008e8       0x18 /opt/altera/13.0sp1/nios2eds/bin/gnu/H-i686-pc-linux-gnu/bin/../lib/gcc/nios2-elf/4.1.2/mno-hw-mul/libgcc.a(_usi_to_df.o)
 .debug_ranges  0x00000900       0x88 /opt/altera/13.0sp1/nios2eds/bin/gnu/H-i686-pc-linux-gnu/bin/../lib/gcc/nios2-elf/4.1.2/mno-hw-mul/libgcc.a(_muldi3.o)
 .debug_ranges  0x00000988       0x18 ../lab2_cruisecontrol_bsp//libucosii_bsp.a(altera_avalon_jtag_uart_init.o)
 .debug_ranges  0x000009a0       0x28 ../lab2_cruisecontrol_bsp//libucosii_bsp.a(alt_irq_entry.o)
 .debug_ranges  0x000009c8       0x30 ../lab2_cruisecontrol_bsp//libucosii_bsp.a(alt_exception_entry.o)
 .debug_ranges  0x000009f8       0x18 /opt/altera/13.0sp1/nios2eds/bin/gnu/H-i686-pc-linux-gnu/bin/../lib/gcc/nios2-elf/4.1.2/../../../../nios2-elf/lib/mno-hw-mul/libc.a(lib_a-__call_atexit.o)
